   1                             	r8	=	0xffef0
   2                             	r16	=	0xffee8
   3                             	r24	=	0xffee0
   4                             	r9	=	0xffef1
   5                             	r17	=	0xffee9
   6                             	r25	=	0xffee1
   7                             	r10	=	0xffef2
   8                             	r18	=	0xffeea
   9                             	r26	=	0xffee2
  10                             	r11	=	0xffef3
  11                             	r19	=	0xffeeb
  12                             	r27	=	0xffee3
  13                             	r12	=	0xffef4
  14                             	r20	=	0xffeec
  15                             	r28	=	0xffee4
  16                             	r13	=	0xffef5
  17                             	r21	=	0xffeed
  18                             	r29	=	0xffee5
  19                             	r14	=	0xffef6
  20                             	r22	=	0xffeee
  21                             	r30	=	0xffee6
  22                             	r15	=	0xffef7
  23                             	r23	=	0xffeef
  24                             	r31	=	0xffee7
  25                             	MDUC	=	0xf00e8
  26                             	MDAL	=	0xffff0
  27                             	MDAH	=	0xffff2
  28                             	MDBL	=	0xffff6
  29                             	MDBH	=	0xffff4
  30                             	MDCL	=	0xf00e0
  31                             	MDCH	=	0xf00e2
  32                             	.text
  33                             	.Ltext0:
  34                             		.comm	_M1_Time_T1,2,2
  35                             		.comm	_M1_Time_T2,2,2
  36                             		.comm	_M1_Time_T3,2,2
  37                             		.comm	_M1_Time_T4,2,2
  38                             		.comm	_M2_Time_T1,2,2
  39                             		.comm	_M2_Time_T2,2,2
  40                             		.comm	_M2_Time_T3,2,2
  41                             		.comm	_M2_Time_T4,2,2
  42                             		.comm	_Flash_Timer_Counter,1,1
  43                             		.comm	_Pre_Flash_Type,1,1
  44                             		.comm	_Flash_Frequency_Config,1,1
  45                             		.global	_Flash_Enable
  46                             		.section	.bss.Flash_Enable,"aw",@nobits
  49                             	_Flash_Enable:
  50 0000 00                      		.zero	1
  51                             		.global	_Pre_flash_Time
  52                             		.section	.bss.Pre_flash_Time,"aw",@nobits
  55                             	_Pre_flash_Time:
  56 0000 00                      		.zero	1
  57                             		.global	_Machine_State
  58                             		.section	.bss.Machine_State,"aw",@nobits
  61                             	_Machine_State:
  62 0000 00                      		.zero	1
  63                             		.global	_Braking_Time_Enable
  64                             		.section	.bss.Braking_Time_Enable,"aw",@nobits
  67                             	_Braking_Time_Enable:
  68 0000 00                      		.zero	1
  69                             		.global	_Disable_Time_Enable
  70                             		.section	.bss.Disable_Time_Enable,"aw",@nobits
  73                             	_Disable_Time_Enable:
  74 0000 00                      		.zero	1
  75                             		.global	_Last_Moving_Direction
  76                             		.section	.bss.Last_Moving_Direction,"aw",@nobits
  79                             	_Last_Moving_Direction:
  80 0000 00                      		.zero	1
  81                             		.global	_Stop_Timer_Enable
  82                             		.section	.bss.Stop_Timer_Enable,"aw",@nobits
  85                             	_Stop_Timer_Enable:
  86 0000 00                      		.zero	1
  87                             		.global	_Stop_Timer_Counter
  88                             		.section	.bss.Stop_Timer_Counter,"aw",@nobits
  91                             	_Stop_Timer_Counter:
  92 0000 00                      		.zero	1
  93                             		.section	.text.Motor1_Disable,"ax",@progbits
  94                             		.global	_Motor1_Disable
  96                             	_Motor1_Disable:
  97                             	.LFB0:
  98                             		.file 1 "../DGC_A230_Functions/DGC_A230_Motor_Functions.c"
   1:../DGC_A230_Functions/DGC_A230_Motor_Functions.c **** /*
   2:../DGC_A230_Functions/DGC_A230_Motor_Functions.c ****  * DGC_A230_Motor_Functions.c
   3:../DGC_A230_Functions/DGC_A230_Motor_Functions.c ****  *
   4:../DGC_A230_Functions/DGC_A230_Motor_Functions.c ****  *  Created on: Nov 22, 2023
   5:../DGC_A230_Functions/DGC_A230_Motor_Functions.c ****  *      Author: Mr. Han
   6:../DGC_A230_Functions/DGC_A230_Motor_Functions.c ****  */
   7:../DGC_A230_Functions/DGC_A230_Motor_Functions.c **** 
   8:../DGC_A230_Functions/DGC_A230_Motor_Functions.c **** #include "r_cg_macrodriver.h"
   9:../DGC_A230_Functions/DGC_A230_Motor_Functions.c **** #include "r_cg_userdefine.h"
  10:../DGC_A230_Functions/DGC_A230_Motor_Functions.c **** 
  11:../DGC_A230_Functions/DGC_A230_Motor_Functions.c **** #include "string.h"
  12:../DGC_A230_Functions/DGC_A230_Motor_Functions.c **** #include <DGC_A230_Define.h>
  13:../DGC_A230_Functions/DGC_A230_Motor_Functions.c **** #include <Common.h>
  14:../DGC_A230_Functions/DGC_A230_Motor_Functions.c **** 
  15:../DGC_A230_Functions/DGC_A230_Motor_Functions.c **** extern uint16_t M1_Torque_Setting, M2_Torque_Setting;
  16:../DGC_A230_Functions/DGC_A230_Motor_Functions.c **** extern uint8_t	M1_Timestamp, M2_Timestamp;
  17:../DGC_A230_Functions/DGC_A230_Motor_Functions.c **** extern uint16_t Torque_Inc;
  18:../DGC_A230_Functions/DGC_A230_Motor_Functions.c **** 
  19:../DGC_A230_Functions/DGC_A230_Motor_Functions.c **** uint16_t M1_Time_T1, M1_Time_T2, M1_Time_T3, M1_Time_T4;
  20:../DGC_A230_Functions/DGC_A230_Motor_Functions.c **** uint16_t M2_Time_T1, M2_Time_T2, M2_Time_T3, M2_Time_T4;
  21:../DGC_A230_Functions/DGC_A230_Motor_Functions.c **** 
  22:../DGC_A230_Functions/DGC_A230_Motor_Functions.c **** extern uint8_t Leaf_No1_State, Leaf_No2_State;
  23:../DGC_A230_Functions/DGC_A230_Motor_Functions.c **** extern struct Device_Config_Parameters CFG_parameter;
  24:../DGC_A230_Functions/DGC_A230_Motor_Functions.c **** extern uint16_t Tick_Count, M1_Tick_Count, M2_Tick_Count, Brake_Tick_Count, Disable_Tick_Count;
  25:../DGC_A230_Functions/DGC_A230_Motor_Functions.c **** extern uint16_t M1_Time_Position, M2_Time_Position;				// Gate position in time
  26:../DGC_A230_Functions/DGC_A230_Motor_Functions.c **** extern uint16_t M1_Last_Time_Position, M2_Last_Time_Position;		// Last Gate Position in time
  27:../DGC_A230_Functions/DGC_A230_Motor_Functions.c **** extern uint16_t M1_Position_Count, M2_Position_Count;
  28:../DGC_A230_Functions/DGC_A230_Motor_Functions.c **** 
  29:../DGC_A230_Functions/DGC_A230_Motor_Functions.c **** extern uint8_t Power_failure;
  30:../DGC_A230_Functions/DGC_A230_Motor_Functions.c **** extern char Parameter_Name[2];
  31:../DGC_A230_Functions/DGC_A230_Motor_Functions.c **** extern char Parameter_Value[2];
  32:../DGC_A230_Functions/DGC_A230_Motor_Functions.c **** extern uint8_t	HMI_Flash_Count;
  33:../DGC_A230_Functions/DGC_A230_Motor_Functions.c **** extern uint8_t Mask;
  34:../DGC_A230_Functions/DGC_A230_Motor_Functions.c **** extern uint8_t HMI_Flash_Enable;
  35:../DGC_A230_Functions/DGC_A230_Motor_Functions.c **** 
  36:../DGC_A230_Functions/DGC_A230_Motor_Functions.c **** extern uint8_t Display_Mode;
  37:../DGC_A230_Functions/DGC_A230_Motor_Functions.c **** 
  38:../DGC_A230_Functions/DGC_A230_Motor_Functions.c **** uint8_t	Flash_Timer_Counter, Pre_Flash_Type, Flash_Frequency_Config, Flash_Enable = 0, Pre_flash_Ti
  39:../DGC_A230_Functions/DGC_A230_Motor_Functions.c **** extern uint8_t Flash_Frequency_Count;
  40:../DGC_A230_Functions/DGC_A230_Motor_Functions.c **** 
  41:../DGC_A230_Functions/DGC_A230_Motor_Functions.c **** uint8_t Machine_State = MACHINE_STATE_STOP;
  42:../DGC_A230_Functions/DGC_A230_Motor_Functions.c **** uint8_t Braking_Time_Enable = 0x00, Disable_Time_Enable = 0x00;
  43:../DGC_A230_Functions/DGC_A230_Motor_Functions.c **** 
  44:../DGC_A230_Functions/DGC_A230_Motor_Functions.c **** uint8_t Last_Moving_Direction = GATE_MOVING_DIRECTION_UNKNOW;
  45:../DGC_A230_Functions/DGC_A230_Motor_Functions.c **** 
  46:../DGC_A230_Functions/DGC_A230_Motor_Functions.c **** uint8_t Stop_Timer_Enable = 0x00;
  47:../DGC_A230_Functions/DGC_A230_Motor_Functions.c **** uint8_t Stop_Timer_Counter = 0x00;
  48:../DGC_A230_Functions/DGC_A230_Motor_Functions.c **** 
  49:../DGC_A230_Functions/DGC_A230_Motor_Functions.c **** ////code
  50:../DGC_A230_Functions/DGC_A230_Motor_Functions.c **** //
  51:../DGC_A230_Functions/DGC_A230_Motor_Functions.c **** //extern uint8_t Last_Sensing_Edge_COS1_status;
  52:../DGC_A230_Functions/DGC_A230_Motor_Functions.c **** //extern uint8_t Last_Sensing_Edge_COS2_status;
  53:../DGC_A230_Functions/DGC_A230_Motor_Functions.c **** //extern uint8_t Last_Close_Command_State;
  54:../DGC_A230_Functions/DGC_A230_Motor_Functions.c **** //extern uint8_t Last_Open_Command_State;
  55:../DGC_A230_Functions/DGC_A230_Motor_Functions.c **** //extern uint8_t Auto_Close_Gate_Command;
  56:../DGC_A230_Functions/DGC_A230_Motor_Functions.c **** //int check_recovery = 1;
  57:../DGC_A230_Functions/DGC_A230_Motor_Functions.c **** ////code
  58:../DGC_A230_Functions/DGC_A230_Motor_Functions.c **** 
  59:../DGC_A230_Functions/DGC_A230_Motor_Functions.c **** void Motor1_Disable(void)
  60:../DGC_A230_Functions/DGC_A230_Motor_Functions.c **** {
  99                             		.loc 1 60 0
  61:../DGC_A230_Functions/DGC_A230_Motor_Functions.c **** 	M1_FF = 0;
 100                             		.loc 1 61 0
 101 0000 C9 F0 02 FF             		movw	r8, #-254
 102 0004 AD F0                   		movw	ax, r8
 103 0006 BD F4                   		movw	r12, ax
 104 0008 FA F4                   		movw	hl, r12
 105 000a 8B                      		mov	a, [hl]
 106 000b 9D F2                   		mov	r10, a
 107 000d 5A F2 DF                		and	r10, #-33
 108 0010 AD F0                   		movw	ax, r8
 109 0012 EA F4                   		movw	de, r12
 110 0014 8D F2                   		mov	a, r10
 111 0016 99                      		mov	[de], a
  62:../DGC_A230_Functions/DGC_A230_Motor_Functions.c **** 	M1_RR = 0;
 112                             		.loc 1 62 0
 113 0017 C9 F0 02 FF             		movw	r8, #-254
 114 001b AD F0                   		movw	ax, r8
 115 001d BD F4                   		movw	r12, ax
 116 001f FA F4                   		movw	hl, r12
 117 0021 8B                      		mov	a, [hl]
 118 0022 9D F2                   		mov	r10, a
 119 0024 5A F2 BF                		and	r10, #-65
 120 0027 AD F0                   		movw	ax, r8
 121 0029 EA F4                   		movw	de, r12
 122 002b 8D F2                   		mov	a, r10
 123 002d 99                      		mov	[de], a
  63:../DGC_A230_Functions/DGC_A230_Motor_Functions.c **** //	delay_ms(10);
  64:../DGC_A230_Functions/DGC_A230_Motor_Functions.c **** //	M1_PWM = 1;
  65:../DGC_A230_Functions/DGC_A230_Motor_Functions.c **** }
 124                             		.loc 1 65 0
 125 002e D7                      		ret
 126                             	.LFE0:
 128                             		.section	.text.Motor1_Open_Enable,"ax",@progbits
 129                             		.global	_Motor1_Open_Enable
 131                             	_Motor1_Open_Enable:
 132                             	.LFB1:
  66:../DGC_A230_Functions/DGC_A230_Motor_Functions.c **** 
  67:../DGC_A230_Functions/DGC_A230_Motor_Functions.c **** void Motor1_Open_Enable(void)
  68:../DGC_A230_Functions/DGC_A230_Motor_Functions.c **** {
 133                             		.loc 1 68 0
  69:../DGC_A230_Functions/DGC_A230_Motor_Functions.c **** 	M1_FF = 1;
 134                             		.loc 1 69 0
 135 0000 C9 F0 02 FF             		movw	r8, #-254
 136 0004 AD F0                   		movw	ax, r8
 137 0006 BD F4                   		movw	r12, ax
 138 0008 FA F4                   		movw	hl, r12
 139 000a 8B                      		mov	a, [hl]
 140 000b 9D F2                   		mov	r10, a
 141 000d 6A F2 20                		or	r10, #32
 142 0010 AD F0                   		movw	ax, r8
 143 0012 EA F4                   		movw	de, r12
 144 0014 8D F2                   		mov	a, r10
 145 0016 99                      		mov	[de], a
  70:../DGC_A230_Functions/DGC_A230_Motor_Functions.c **** //	delay_ms(20);
  71:../DGC_A230_Functions/DGC_A230_Motor_Functions.c **** }
 146                             		.loc 1 71 0
 147 0017 D7                      		ret
 148                             	.LFE1:
 150                             		.section	.text.Motor1_Close_Enable,"ax",@progbits
 151                             		.global	_Motor1_Close_Enable
 153                             	_Motor1_Close_Enable:
 154                             	.LFB2:
  72:../DGC_A230_Functions/DGC_A230_Motor_Functions.c **** 
  73:../DGC_A230_Functions/DGC_A230_Motor_Functions.c **** void Motor1_Close_Enable(void)
  74:../DGC_A230_Functions/DGC_A230_Motor_Functions.c **** {
 155                             		.loc 1 74 0
  75:../DGC_A230_Functions/DGC_A230_Motor_Functions.c **** 	M1_RR = 1;
 156                             		.loc 1 75 0
 157 0000 C9 F0 02 FF             		movw	r8, #-254
 158 0004 AD F0                   		movw	ax, r8
 159 0006 BD F4                   		movw	r12, ax
 160 0008 FA F4                   		movw	hl, r12
 161 000a 8B                      		mov	a, [hl]
 162 000b 9D F2                   		mov	r10, a
 163 000d 6A F2 40                		or	r10, #64
 164 0010 AD F0                   		movw	ax, r8
 165 0012 EA F4                   		movw	de, r12
 166 0014 8D F2                   		mov	a, r10
 167 0016 99                      		mov	[de], a
  76:../DGC_A230_Functions/DGC_A230_Motor_Functions.c **** //	delay_ms(20);
  77:../DGC_A230_Functions/DGC_A230_Motor_Functions.c **** }
 168                             		.loc 1 77 0
 169 0017 D7                      		ret
 170                             	.LFE2:
 172                             		.section	.text.Motor2_Disable,"ax",@progbits
 173                             		.global	_Motor2_Disable
 175                             	_Motor2_Disable:
 176                             	.LFB3:
  78:../DGC_A230_Functions/DGC_A230_Motor_Functions.c **** 
  79:../DGC_A230_Functions/DGC_A230_Motor_Functions.c **** void Motor2_Disable(void)
  80:../DGC_A230_Functions/DGC_A230_Motor_Functions.c **** {
 177                             		.loc 1 80 0
  81:../DGC_A230_Functions/DGC_A230_Motor_Functions.c **** 	M2_FF = 0;
 178                             		.loc 1 81 0
 179 0000 C9 F0 02 FF             		movw	r8, #-254
 180 0004 AD F0                   		movw	ax, r8
 181 0006 BD F4                   		movw	r12, ax
 182 0008 FA F4                   		movw	hl, r12
 183 000a 8B                      		mov	a, [hl]
 184 000b 9D F2                   		mov	r10, a
 185 000d 5A F2 F7                		and	r10, #-9
 186 0010 AD F0                   		movw	ax, r8
 187 0012 EA F4                   		movw	de, r12
 188 0014 8D F2                   		mov	a, r10
 189 0016 99                      		mov	[de], a
  82:../DGC_A230_Functions/DGC_A230_Motor_Functions.c **** 	M2_RR = 0;
 190                             		.loc 1 82 0
 191 0017 C9 F0 02 FF             		movw	r8, #-254
 192 001b AD F0                   		movw	ax, r8
 193 001d BD F4                   		movw	r12, ax
 194 001f FA F4                   		movw	hl, r12
 195 0021 8B                      		mov	a, [hl]
 196 0022 9D F2                   		mov	r10, a
 197 0024 5A F2 EF                		and	r10, #-17
 198 0027 AD F0                   		movw	ax, r8
 199 0029 EA F4                   		movw	de, r12
 200 002b 8D F2                   		mov	a, r10
 201 002d 99                      		mov	[de], a
  83:../DGC_A230_Functions/DGC_A230_Motor_Functions.c **** //	delay_ms(10);
  84:../DGC_A230_Functions/DGC_A230_Motor_Functions.c **** //	M2_PWM = 1;
  85:../DGC_A230_Functions/DGC_A230_Motor_Functions.c **** }
 202                             		.loc 1 85 0
 203 002e D7                      		ret
 204                             	.LFE3:
 206                             		.section	.text.Motor2_Open_Enable,"ax",@progbits
 207                             		.global	_Motor2_Open_Enable
 209                             	_Motor2_Open_Enable:
 210                             	.LFB4:
  86:../DGC_A230_Functions/DGC_A230_Motor_Functions.c **** 
  87:../DGC_A230_Functions/DGC_A230_Motor_Functions.c **** void Motor2_Open_Enable(void)
  88:../DGC_A230_Functions/DGC_A230_Motor_Functions.c **** {
 211                             		.loc 1 88 0
  89:../DGC_A230_Functions/DGC_A230_Motor_Functions.c **** 	M2_FF = 1;
 212                             		.loc 1 89 0
 213 0000 C9 F0 02 FF             		movw	r8, #-254
 214 0004 AD F0                   		movw	ax, r8
 215 0006 BD F4                   		movw	r12, ax
 216 0008 FA F4                   		movw	hl, r12
 217 000a 8B                      		mov	a, [hl]
 218 000b 9D F2                   		mov	r10, a
 219 000d 6A F2 08                		or	r10, #8
 220 0010 AD F0                   		movw	ax, r8
 221 0012 EA F4                   		movw	de, r12
 222 0014 8D F2                   		mov	a, r10
 223 0016 99                      		mov	[de], a
  90:../DGC_A230_Functions/DGC_A230_Motor_Functions.c **** //	delay_ms(20);
  91:../DGC_A230_Functions/DGC_A230_Motor_Functions.c **** }
 224                             		.loc 1 91 0
 225 0017 D7                      		ret
 226                             	.LFE4:
 228                             		.section	.text.Motor2_Close_Enable,"ax",@progbits
 229                             		.global	_Motor2_Close_Enable
 231                             	_Motor2_Close_Enable:
 232                             	.LFB5:
  92:../DGC_A230_Functions/DGC_A230_Motor_Functions.c **** 
  93:../DGC_A230_Functions/DGC_A230_Motor_Functions.c **** void Motor2_Close_Enable(void)
  94:../DGC_A230_Functions/DGC_A230_Motor_Functions.c **** {
 233                             		.loc 1 94 0
  95:../DGC_A230_Functions/DGC_A230_Motor_Functions.c **** 	M2_RR = 1;
 234                             		.loc 1 95 0
 235 0000 C9 F0 02 FF             		movw	r8, #-254
 236 0004 AD F0                   		movw	ax, r8
 237 0006 BD F4                   		movw	r12, ax
 238 0008 FA F4                   		movw	hl, r12
 239 000a 8B                      		mov	a, [hl]
 240 000b 9D F2                   		mov	r10, a
 241 000d 6A F2 10                		or	r10, #16
 242 0010 AD F0                   		movw	ax, r8
 243 0012 EA F4                   		movw	de, r12
 244 0014 8D F2                   		mov	a, r10
 245 0016 99                      		mov	[de], a
  96:../DGC_A230_Functions/DGC_A230_Motor_Functions.c **** //	delay_ms(20);
  97:../DGC_A230_Functions/DGC_A230_Motor_Functions.c **** }
 246                             		.loc 1 97 0
 247 0017 D7                      		ret
 248                             	.LFE5:
 250                             		.section	.text.Calculate_Torque_Parameter_Motor1,"ax",@progbits
 251                             		.global	_Calculate_Torque_Parameter_Motor1
 253                             	_Calculate_Torque_Parameter_Motor1:
 254                             	.LFB6:
  98:../DGC_A230_Functions/DGC_A230_Motor_Functions.c **** 
  99:../DGC_A230_Functions/DGC_A230_Motor_Functions.c **** 
 100:../DGC_A230_Functions/DGC_A230_Motor_Functions.c **** 
 101:../DGC_A230_Functions/DGC_A230_Motor_Functions.c **** void Calculate_Torque_Parameter_Motor1 (void)
 102:../DGC_A230_Functions/DGC_A230_Motor_Functions.c **** {
 255                             		.loc 1 102 0
 103:../DGC_A230_Functions/DGC_A230_Motor_Functions.c **** 	Torque_Inc = 0x0000;
 256                             		.loc 1 103 0
 257 0000 F6                      		clrw	ax
 258 0001 BF 00 00                		movw	!_Torque_Inc, ax
 104:../DGC_A230_Functions/DGC_A230_Motor_Functions.c **** 
 105:../DGC_A230_Functions/DGC_A230_Motor_Functions.c **** 	if(CFG_parameter.Motor_Start_Time > 0)
 259                             		.loc 1 105 0
 260 0004 AF 00 00                		movw	ax, !_CFG_parameter+4
 261 0007 BD F0                   		movw	r8, ax
 262 0009 44 00 00                		cmpw	ax, #0
 263 000c 61 F8                   		 sknz
 264 000e EC A4 00 00             		 br	!!.L8
 106:../DGC_A230_Functions/DGC_A230_Motor_Functions.c **** 	{
 107:../DGC_A230_Functions/DGC_A230_Motor_Functions.c **** 		M1_Torque_Setting = TORQUE_LEVEL_1;
 265                             		.loc 1 107 0
 266 0012 30 EB A9                		movw	ax, #-22037
 267 0015 BF 00 00                		movw	!_M1_Torque_Setting, ax
 108:../DGC_A230_Functions/DGC_A230_Motor_Functions.c **** 		if (CFG_parameter.Motor_Maximum_Boost_Time > 0)
 268                             		.loc 1 108 0
 269 0018 AF 00 00                		movw	ax, !_CFG_parameter+6
 270 001b BD F0                   		movw	r8, ax
 271 001d 44 00 00                		cmpw	ax, #0
 272 0020 61 F8                   		 sknz
 273 0022 EC 65 00 00             		 br	!!.L9
 109:../DGC_A230_Functions/DGC_A230_Motor_Functions.c **** 			Torque_Inc = (TORQUE_LEVEL_1 - CFG_parameter.Motor_Torque_Boots) / CFG_parameter.Motor_Start_Tim
 274                             		.loc 1 109 0
 275 0026 AF 00 00                		movw	ax, !_CFG_parameter+76
 276 0029 BD F0                   		movw	r8, ax
 277 002b 30 EB A9                		movw	ax, #-22037
 278 002e 26 F0                   		subw	ax, r8
 279 0030 BD F2                   		movw	r10, ax
 280 0032 AF 00 00                		movw	ax, !_CFG_parameter+4
 281 0035 BD F0                   		movw	r8, ax
 282 0037 DA F0                   		movw	bc, r8
 283 0039 AD F2                   		movw	ax, r10
 284 003b 61 DD                   		push	psw
 285 003d 71 7B FA                		di
 286 0040 CF E8 00 80             		mov	!MDUC, #0x80
 287 0044 BE F0                   		movw	MDAL, ax
 288 0046 13                      		movw	ax, bc
 289 0047 BE F6                   		movw	MDBL, ax
 290 0049 F6                      		clrw	ax
 291 004a BE F2                   		movw	MDAH, ax
 292 004c BE F4                   		movw	MDBH, ax
 293 004e CF E8 00 81             		mov	!MDUC, #0x81
 294 0052 8F E8 00                	0:	mov	a, !MDUC
 295 0055 31 03 FA                		bt	a.0, $0b
 296 0058 AE F0                   		movw	ax, MDAL
 297 005a 61 CD                   		pop	psw ; udivhi3_g13
 298 005c BD F0                   		movw	r8, ax
 299 005e BF 00 00                		movw	!_Torque_Inc, ax
 300 0061 EC C6 00 00             		br	!!.L7
 301                             	.L9:
 110:../DGC_A230_Functions/DGC_A230_Motor_Functions.c **** 		else
 111:../DGC_A230_Functions/DGC_A230_Motor_Functions.c **** 			Torque_Inc = (TORQUE_LEVEL_1 - CFG_parameter.Motor_Torque_Maneuver) / CFG_parameter.Motor_Start_
 302                             		.loc 1 111 0
 303 0065 AF 00 00                		movw	ax, !_CFG_parameter+72
 304 0068 BD F0                   		movw	r8, ax
 305 006a 30 EB A9                		movw	ax, #-22037
 306 006d 26 F0                   		subw	ax, r8
 307 006f BD F2                   		movw	r10, ax
 308 0071 AF 00 00                		movw	ax, !_CFG_parameter+4
 309 0074 BD F0                   		movw	r8, ax
 310 0076 DA F0                   		movw	bc, r8
 311 0078 AD F2                   		movw	ax, r10
 312 007a 61 DD                   		push	psw
 313 007c 71 7B FA                		di
 314 007f CF E8 00 80             		mov	!MDUC, #0x80
 315 0083 BE F0                   		movw	MDAL, ax
 316 0085 13                      		movw	ax, bc
 317 0086 BE F6                   		movw	MDBL, ax
 318 0088 F6                      		clrw	ax
 319 0089 BE F2                   		movw	MDAH, ax
 320 008b BE F4                   		movw	MDBH, ax
 321 008d CF E8 00 81             		mov	!MDUC, #0x81
 322 0091 8F E8 00                	0:	mov	a, !MDUC
 323 0094 31 03 FA                		bt	a.0, $0b
 324 0097 AE F0                   		movw	ax, MDAL
 325 0099 61 CD                   		pop	psw ; udivhi3_g13
 326 009b BD F0                   		movw	r8, ax
 327 009d BF 00 00                		movw	!_Torque_Inc, ax
 328 00a0 EC C6 00 00             		br	!!.L7
 329                             	.L8:
 112:../DGC_A230_Functions/DGC_A230_Motor_Functions.c **** 	}
 113:../DGC_A230_Functions/DGC_A230_Motor_Functions.c **** 	else
 114:../DGC_A230_Functions/DGC_A230_Motor_Functions.c **** 	{
 115:../DGC_A230_Functions/DGC_A230_Motor_Functions.c **** 		if (CFG_parameter.Motor_Maximum_Boost_Time > 0)
 330                             		.loc 1 115 0
 331 00a4 AF 00 00                		movw	ax, !_CFG_parameter+6
 332 00a7 BD F0                   		movw	r8, ax
 333 00a9 44 00 00                		cmpw	ax, #0
 334 00ac 61 F8                   		 sknz
 335 00ae EC BE 00 00             		 br	!!.L12
 116:../DGC_A230_Functions/DGC_A230_Motor_Functions.c **** 		{
 117:../DGC_A230_Functions/DGC_A230_Motor_Functions.c **** 			M1_Torque_Setting = CFG_parameter.Motor_Torque_Boots;
 336                             		.loc 1 117 0
 337 00b2 AF 00 00                		movw	ax, !_CFG_parameter+76
 338 00b5 BD F0                   		movw	r8, ax
 339 00b7 BF 00 00                		movw	!_M1_Torque_Setting, ax
 340 00ba EC C6 00 00             		br	!!.L7
 341                             	.L12:
 118:../DGC_A230_Functions/DGC_A230_Motor_Functions.c **** 		}
 119:../DGC_A230_Functions/DGC_A230_Motor_Functions.c **** 		else
 120:../DGC_A230_Functions/DGC_A230_Motor_Functions.c **** 		{
 121:../DGC_A230_Functions/DGC_A230_Motor_Functions.c **** 			M1_Torque_Setting = CFG_parameter.Motor_Torque_Maneuver;
 342                             		.loc 1 121 0
 343 00be AF 00 00                		movw	ax, !_CFG_parameter+72
 344 00c1 BD F0                   		movw	r8, ax
 345 00c3 BF 00 00                		movw	!_M1_Torque_Setting, ax
 346                             	.L7:
 122:../DGC_A230_Functions/DGC_A230_Motor_Functions.c **** 		}
 123:../DGC_A230_Functions/DGC_A230_Motor_Functions.c **** 	}
 124:../DGC_A230_Functions/DGC_A230_Motor_Functions.c **** }
 347                             		.loc 1 124 0
 348 00c6 D7                      		ret
 349                             	.LFE6:
 351                             		.section	.text.Calculate_Torque_Parameter_Motor2,"ax",@progbits
 352                             		.global	_Calculate_Torque_Parameter_Motor2
 354                             	_Calculate_Torque_Parameter_Motor2:
 355                             	.LFB7:
 125:../DGC_A230_Functions/DGC_A230_Motor_Functions.c **** 
 126:../DGC_A230_Functions/DGC_A230_Motor_Functions.c **** 
 127:../DGC_A230_Functions/DGC_A230_Motor_Functions.c **** void Calculate_Torque_Parameter_Motor2 (void)
 128:../DGC_A230_Functions/DGC_A230_Motor_Functions.c **** {
 356                             		.loc 1 128 0
 129:../DGC_A230_Functions/DGC_A230_Motor_Functions.c **** //	Torque_Inc = 0x0000;
 130:../DGC_A230_Functions/DGC_A230_Motor_Functions.c **** 
 131:../DGC_A230_Functions/DGC_A230_Motor_Functions.c **** 	if(CFG_parameter.Motor_Start_Time > 0)
 357                             		.loc 1 131 0
 358 0000 AF 00 00                		movw	ax, !_CFG_parameter+4
 359 0003 BD F0                   		movw	r8, ax
 360 0005 44 00 00                		cmpw	ax, #0
 361 0008 61 F8                   		 sknz
 362 000a EC A0 00 00             		 br	!!.L14
 132:../DGC_A230_Functions/DGC_A230_Motor_Functions.c **** 	{
 133:../DGC_A230_Functions/DGC_A230_Motor_Functions.c **** 		M2_Torque_Setting = TORQUE_LEVEL_1;
 363                             		.loc 1 133 0
 364 000e 30 EB A9                		movw	ax, #-22037
 365 0011 BF 00 00                		movw	!_M2_Torque_Setting, ax
 134:../DGC_A230_Functions/DGC_A230_Motor_Functions.c **** 		if (CFG_parameter.Motor_Maximum_Boost_Time > 0)
 366                             		.loc 1 134 0
 367 0014 AF 00 00                		movw	ax, !_CFG_parameter+6
 368 0017 BD F0                   		movw	r8, ax
 369 0019 44 00 00                		cmpw	ax, #0
 370 001c 61 F8                   		 sknz
 371 001e EC 61 00 00             		 br	!!.L15
 135:../DGC_A230_Functions/DGC_A230_Motor_Functions.c **** 			Torque_Inc = (TORQUE_LEVEL_1 - CFG_parameter.Motor_Torque_Boots) / CFG_parameter.Motor_Start_Tim
 372                             		.loc 1 135 0
 373 0022 AF 00 00                		movw	ax, !_CFG_parameter+76
 374 0025 BD F0                   		movw	r8, ax
 375 0027 30 EB A9                		movw	ax, #-22037
 376 002a 26 F0                   		subw	ax, r8
 377 002c BD F2                   		movw	r10, ax
 378 002e AF 00 00                		movw	ax, !_CFG_parameter+4
 379 0031 BD F0                   		movw	r8, ax
 380 0033 DA F0                   		movw	bc, r8
 381 0035 AD F2                   		movw	ax, r10
 382 0037 61 DD                   		push	psw
 383 0039 71 7B FA                		di
 384 003c CF E8 00 80             		mov	!MDUC, #0x80
 385 0040 BE F0                   		movw	MDAL, ax
 386 0042 13                      		movw	ax, bc
 387 0043 BE F6                   		movw	MDBL, ax
 388 0045 F6                      		clrw	ax
 389 0046 BE F2                   		movw	MDAH, ax
 390 0048 BE F4                   		movw	MDBH, ax
 391 004a CF E8 00 81             		mov	!MDUC, #0x81
 392 004e 8F E8 00                	0:	mov	a, !MDUC
 393 0051 31 03 FA                		bt	a.0, $0b
 394 0054 AE F0                   		movw	ax, MDAL
 395 0056 61 CD                   		pop	psw ; udivhi3_g13
 396 0058 BD F0                   		movw	r8, ax
 397 005a BF 00 00                		movw	!_Torque_Inc, ax
 398 005d EC C2 00 00             		br	!!.L13
 399                             	.L15:
 136:../DGC_A230_Functions/DGC_A230_Motor_Functions.c **** 		else
 137:../DGC_A230_Functions/DGC_A230_Motor_Functions.c **** 			Torque_Inc = (TORQUE_LEVEL_1 - CFG_parameter.Motor_Torque_Maneuver) / CFG_parameter.Motor_Start_
 400                             		.loc 1 137 0
 401 0061 AF 00 00                		movw	ax, !_CFG_parameter+72
 402 0064 BD F0                   		movw	r8, ax
 403 0066 30 EB A9                		movw	ax, #-22037
 404 0069 26 F0                   		subw	ax, r8
 405 006b BD F2                   		movw	r10, ax
 406 006d AF 00 00                		movw	ax, !_CFG_parameter+4
 407 0070 BD F0                   		movw	r8, ax
 408 0072 DA F0                   		movw	bc, r8
 409 0074 AD F2                   		movw	ax, r10
 410 0076 61 DD                   		push	psw
 411 0078 71 7B FA                		di
 412 007b CF E8 00 80             		mov	!MDUC, #0x80
 413 007f BE F0                   		movw	MDAL, ax
 414 0081 13                      		movw	ax, bc
 415 0082 BE F6                   		movw	MDBL, ax
 416 0084 F6                      		clrw	ax
 417 0085 BE F2                   		movw	MDAH, ax
 418 0087 BE F4                   		movw	MDBH, ax
 419 0089 CF E8 00 81             		mov	!MDUC, #0x81
 420 008d 8F E8 00                	0:	mov	a, !MDUC
 421 0090 31 03 FA                		bt	a.0, $0b
 422 0093 AE F0                   		movw	ax, MDAL
 423 0095 61 CD                   		pop	psw ; udivhi3_g13
 424 0097 BD F0                   		movw	r8, ax
 425 0099 BF 00 00                		movw	!_Torque_Inc, ax
 426 009c EC C2 00 00             		br	!!.L13
 427                             	.L14:
 138:../DGC_A230_Functions/DGC_A230_Motor_Functions.c **** 	}
 139:../DGC_A230_Functions/DGC_A230_Motor_Functions.c **** 	else
 140:../DGC_A230_Functions/DGC_A230_Motor_Functions.c **** 	{
 141:../DGC_A230_Functions/DGC_A230_Motor_Functions.c **** 		if (CFG_parameter.Motor_Maximum_Boost_Time > 0)
 428                             		.loc 1 141 0
 429 00a0 AF 00 00                		movw	ax, !_CFG_parameter+6
 430 00a3 BD F0                   		movw	r8, ax
 431 00a5 44 00 00                		cmpw	ax, #0
 432 00a8 61 F8                   		 sknz
 433 00aa EC BA 00 00             		 br	!!.L18
 142:../DGC_A230_Functions/DGC_A230_Motor_Functions.c **** 		{
 143:../DGC_A230_Functions/DGC_A230_Motor_Functions.c **** 			M2_Torque_Setting = CFG_parameter.Motor_Torque_Boots;
 434                             		.loc 1 143 0
 435 00ae AF 00 00                		movw	ax, !_CFG_parameter+76
 436 00b1 BD F0                   		movw	r8, ax
 437 00b3 BF 00 00                		movw	!_M2_Torque_Setting, ax
 438 00b6 EC C2 00 00             		br	!!.L13
 439                             	.L18:
 144:../DGC_A230_Functions/DGC_A230_Motor_Functions.c **** 		}
 145:../DGC_A230_Functions/DGC_A230_Motor_Functions.c **** 		else
 146:../DGC_A230_Functions/DGC_A230_Motor_Functions.c **** 		{
 147:../DGC_A230_Functions/DGC_A230_Motor_Functions.c **** 			M2_Torque_Setting = CFG_parameter.Motor_Torque_Maneuver;
 440                             		.loc 1 147 0
 441 00ba AF 00 00                		movw	ax, !_CFG_parameter+72
 442 00bd BD F0                   		movw	r8, ax
 443 00bf BF 00 00                		movw	!_M2_Torque_Setting, ax
 444                             	.L13:
 148:../DGC_A230_Functions/DGC_A230_Motor_Functions.c **** 		}
 149:../DGC_A230_Functions/DGC_A230_Motor_Functions.c **** 	}
 150:../DGC_A230_Functions/DGC_A230_Motor_Functions.c **** }
 445                             		.loc 1 150 0
 446 00c2 D7                      		ret
 447                             	.LFE7:
 449                             		.section	.text.Calculate_Torque_Parameter,"ax",@progbits
 450                             		.global	_Calculate_Torque_Parameter
 452                             	_Calculate_Torque_Parameter:
 453                             	.LFB8:
 151:../DGC_A230_Functions/DGC_A230_Motor_Functions.c **** 
 152:../DGC_A230_Functions/DGC_A230_Motor_Functions.c **** void Calculate_Torque_Parameter (void)
 153:../DGC_A230_Functions/DGC_A230_Motor_Functions.c **** {
 454                             		.loc 1 153 0
 154:../DGC_A230_Functions/DGC_A230_Motor_Functions.c **** 	Torque_Inc = 0x0000;
 455                             		.loc 1 154 0
 456 0000 F6                      		clrw	ax
 457 0001 BF 00 00                		movw	!_Torque_Inc, ax
 155:../DGC_A230_Functions/DGC_A230_Motor_Functions.c **** 
 156:../DGC_A230_Functions/DGC_A230_Motor_Functions.c **** 	if(CFG_parameter.Motor_Start_Time > 0)
 458                             		.loc 1 156 0
 459 0004 AF 00 00                		movw	ax, !_CFG_parameter+4
 460 0007 BD F0                   		movw	r8, ax
 461 0009 44 00 00                		cmpw	ax, #0
 462 000c 61 F8                   		 sknz
 463 000e EC AA 00 00             		 br	!!.L20
 157:../DGC_A230_Functions/DGC_A230_Motor_Functions.c **** 	{
 158:../DGC_A230_Functions/DGC_A230_Motor_Functions.c **** 		M1_Torque_Setting = TORQUE_LEVEL_1;
 464                             		.loc 1 158 0
 465 0012 30 EB A9                		movw	ax, #-22037
 466 0015 BF 00 00                		movw	!_M1_Torque_Setting, ax
 159:../DGC_A230_Functions/DGC_A230_Motor_Functions.c **** 		M2_Torque_Setting = TORQUE_LEVEL_1;
 467                             		.loc 1 159 0
 468 0018 30 EB A9                		movw	ax, #-22037
 469 001b BF 00 00                		movw	!_M2_Torque_Setting, ax
 160:../DGC_A230_Functions/DGC_A230_Motor_Functions.c **** 		if (CFG_parameter.Motor_Maximum_Boost_Time > 0)
 470                             		.loc 1 160 0
 471 001e AF 00 00                		movw	ax, !_CFG_parameter+6
 472 0021 BD F0                   		movw	r8, ax
 473 0023 44 00 00                		cmpw	ax, #0
 474 0026 61 F8                   		 sknz
 475 0028 EC 6B 00 00             		 br	!!.L21
 161:../DGC_A230_Functions/DGC_A230_Motor_Functions.c **** 			Torque_Inc = (TORQUE_LEVEL_1 - CFG_parameter.Motor_Torque_Boots) / CFG_parameter.Motor_Start_Tim
 476                             		.loc 1 161 0
 477 002c AF 00 00                		movw	ax, !_CFG_parameter+76
 478 002f BD F0                   		movw	r8, ax
 479 0031 30 EB A9                		movw	ax, #-22037
 480 0034 26 F0                   		subw	ax, r8
 481 0036 BD F2                   		movw	r10, ax
 482 0038 AF 00 00                		movw	ax, !_CFG_parameter+4
 483 003b BD F0                   		movw	r8, ax
 484 003d DA F0                   		movw	bc, r8
 485 003f AD F2                   		movw	ax, r10
 486 0041 61 DD                   		push	psw
 487 0043 71 7B FA                		di
 488 0046 CF E8 00 80             		mov	!MDUC, #0x80
 489 004a BE F0                   		movw	MDAL, ax
 490 004c 13                      		movw	ax, bc
 491 004d BE F6                   		movw	MDBL, ax
 492 004f F6                      		clrw	ax
 493 0050 BE F2                   		movw	MDAH, ax
 494 0052 BE F4                   		movw	MDBH, ax
 495 0054 CF E8 00 81             		mov	!MDUC, #0x81
 496 0058 8F E8 00                	0:	mov	a, !MDUC
 497 005b 31 03 FA                		bt	a.0, $0b
 498 005e AE F0                   		movw	ax, MDAL
 499 0060 61 CD                   		pop	psw ; udivhi3_g13
 500 0062 BD F0                   		movw	r8, ax
 501 0064 BF 00 00                		movw	!_Torque_Inc, ax
 502 0067 EC DC 00 00             		br	!!.L19
 503                             	.L21:
 162:../DGC_A230_Functions/DGC_A230_Motor_Functions.c **** 		else
 163:../DGC_A230_Functions/DGC_A230_Motor_Functions.c **** 			Torque_Inc = (TORQUE_LEVEL_1 - CFG_parameter.Motor_Torque_Maneuver) / CFG_parameter.Motor_Start_
 504                             		.loc 1 163 0
 505 006b AF 00 00                		movw	ax, !_CFG_parameter+72
 506 006e BD F0                   		movw	r8, ax
 507 0070 30 EB A9                		movw	ax, #-22037
 508 0073 26 F0                   		subw	ax, r8
 509 0075 BD F2                   		movw	r10, ax
 510 0077 AF 00 00                		movw	ax, !_CFG_parameter+4
 511 007a BD F0                   		movw	r8, ax
 512 007c DA F0                   		movw	bc, r8
 513 007e AD F2                   		movw	ax, r10
 514 0080 61 DD                   		push	psw
 515 0082 71 7B FA                		di
 516 0085 CF E8 00 80             		mov	!MDUC, #0x80
 517 0089 BE F0                   		movw	MDAL, ax
 518 008b 13                      		movw	ax, bc
 519 008c BE F6                   		movw	MDBL, ax
 520 008e F6                      		clrw	ax
 521 008f BE F2                   		movw	MDAH, ax
 522 0091 BE F4                   		movw	MDBH, ax
 523 0093 CF E8 00 81             		mov	!MDUC, #0x81
 524 0097 8F E8 00                	0:	mov	a, !MDUC
 525 009a 31 03 FA                		bt	a.0, $0b
 526 009d AE F0                   		movw	ax, MDAL
 527 009f 61 CD                   		pop	psw ; udivhi3_g13
 528 00a1 BD F0                   		movw	r8, ax
 529 00a3 BF 00 00                		movw	!_Torque_Inc, ax
 530 00a6 EC DC 00 00             		br	!!.L19
 531                             	.L20:
 164:../DGC_A230_Functions/DGC_A230_Motor_Functions.c **** 	}
 165:../DGC_A230_Functions/DGC_A230_Motor_Functions.c **** 	else
 166:../DGC_A230_Functions/DGC_A230_Motor_Functions.c **** 	{
 167:../DGC_A230_Functions/DGC_A230_Motor_Functions.c **** 		if (CFG_parameter.Motor_Maximum_Boost_Time > 0)
 532                             		.loc 1 167 0
 533 00aa AF 00 00                		movw	ax, !_CFG_parameter+6
 534 00ad BD F0                   		movw	r8, ax
 535 00af 44 00 00                		cmpw	ax, #0
 536 00b2 61 F8                   		 sknz
 537 00b4 EC CC 00 00             		 br	!!.L24
 168:../DGC_A230_Functions/DGC_A230_Motor_Functions.c **** 		{
 169:../DGC_A230_Functions/DGC_A230_Motor_Functions.c **** 			M1_Torque_Setting = CFG_parameter.Motor_Torque_Boots;
 538                             		.loc 1 169 0
 539 00b8 AF 00 00                		movw	ax, !_CFG_parameter+76
 540 00bb BD F0                   		movw	r8, ax
 541 00bd BF 00 00                		movw	!_M1_Torque_Setting, ax
 170:../DGC_A230_Functions/DGC_A230_Motor_Functions.c **** 			M2_Torque_Setting = CFG_parameter.Motor_Torque_Boots;
 542                             		.loc 1 170 0
 543 00c0 AF 00 00                		movw	ax, !_CFG_parameter+76
 544 00c3 BD F0                   		movw	r8, ax
 545 00c5 BF 00 00                		movw	!_M2_Torque_Setting, ax
 546 00c8 EC DC 00 00             		br	!!.L19
 547                             	.L24:
 171:../DGC_A230_Functions/DGC_A230_Motor_Functions.c **** 		}
 172:../DGC_A230_Functions/DGC_A230_Motor_Functions.c **** 		else
 173:../DGC_A230_Functions/DGC_A230_Motor_Functions.c **** 		{
 174:../DGC_A230_Functions/DGC_A230_Motor_Functions.c **** 			M1_Torque_Setting = CFG_parameter.Motor_Torque_Maneuver;
 548                             		.loc 1 174 0
 549 00cc AF 00 00                		movw	ax, !_CFG_parameter+72
 550 00cf BD F0                   		movw	r8, ax
 551 00d1 BF 00 00                		movw	!_M1_Torque_Setting, ax
 175:../DGC_A230_Functions/DGC_A230_Motor_Functions.c **** 			M2_Torque_Setting = CFG_parameter.Motor_Torque_Maneuver;
 552                             		.loc 1 175 0
 553 00d4 AF 00 00                		movw	ax, !_CFG_parameter+72
 554 00d7 BD F0                   		movw	r8, ax
 555 00d9 BF 00 00                		movw	!_M2_Torque_Setting, ax
 556                             	.L19:
 176:../DGC_A230_Functions/DGC_A230_Motor_Functions.c **** 		}
 177:../DGC_A230_Functions/DGC_A230_Motor_Functions.c **** 	}
 178:../DGC_A230_Functions/DGC_A230_Motor_Functions.c **** 
 179:../DGC_A230_Functions/DGC_A230_Motor_Functions.c **** //	if (CFG_parameter.Motor_Finish_Time > 0)
 180:../DGC_A230_Functions/DGC_A230_Motor_Functions.c **** //		Torque_Dec = (TORQUE_LEVEL_1 - CFG_parameter.Motor_Torque_Decelaration) / CFG_parameter.Motor_F
 181:../DGC_A230_Functions/DGC_A230_Motor_Functions.c **** //	else
 182:../DGC_A230_Functions/DGC_A230_Motor_Functions.c **** //		Torque_Dec = 0x0000;
 183:../DGC_A230_Functions/DGC_A230_Motor_Functions.c **** 
 184:../DGC_A230_Functions/DGC_A230_Motor_Functions.c **** }
 557                             		.loc 1 184 0
 558 00dc D7                      		ret
 559                             	.LFE8:
 561                             		.section	.text.Setting_Courtesy_Light_and_Flash_Light,"ax",@progbits
 562                             		.global	_Setting_Courtesy_Light_and_Flash_Light
 564                             	_Setting_Courtesy_Light_and_Flash_Light:
 565                             	.LFB9:
 185:../DGC_A230_Functions/DGC_A230_Motor_Functions.c **** 
 186:../DGC_A230_Functions/DGC_A230_Motor_Functions.c **** void Setting_Courtesy_Light_and_Flash_Light(uint8_t Moving_Direction)
 187:../DGC_A230_Functions/DGC_A230_Motor_Functions.c **** {
 566                             		.loc 1 187 0
 567                             		; start of function
 568                             		; outgoing: 2 bytes
 569                             		; uses ES register
 570 0000 20 02                   		subw	sp, #2
 571                             	.LCFI0:
 188:../DGC_A230_Functions/DGC_A230_Motor_Functions.c **** 	if(CFG_parameter.Courtery_Light_Mode == 1)	// PULSE 1500ms
 572                             		.loc 1 188 0
 573 0002 8F 00 00                		mov	a, !_CFG_parameter+54
 574 0005 9D F0                   		mov	r8, a
 575 0007 4A F0 01                		cmp	r8, #1
 576 000a 61 E8                   		 skz
 577 000c EC 4B 00 00             		 br	!!.L26
 578                             	.LBB2:
 189:../DGC_A230_Functions/DGC_A230_Motor_Functions.c **** 	{
 190:../DGC_A230_Functions/DGC_A230_Motor_Functions.c **** 		COURTESY = 1;
 579                             		.loc 1 190 0
 580 0010 C9 F0 02 FF             		movw	r8, #-254
 581 0014 AD F0                   		movw	ax, r8
 582 0016 BD F4                   		movw	r12, ax
 583 0018 FA F4                   		movw	hl, r12
 584 001a 8B                      		mov	a, [hl]
 585 001b 9D F2                   		mov	r10, a
 586 001d 6A F2 01                		or	r10, #1
 587 0020 AD F0                   		movw	ax, r8
 588 0022 EA F4                   		movw	de, r12
 589 0024 8D F2                   		mov	a, r10
 590 0026 99                      		mov	[de], a
 191:../DGC_A230_Functions/DGC_A230_Motor_Functions.c **** 		delay_ms(1500);
 591                             		.loc 1 191 0
 592 0027 30 DC 05                		movw	ax, #1500
 593 002a B8 00                   		movw	[sp], ax
 594 002c FC 00 00 00             		call	!!%code(_delay_ms)
 192:../DGC_A230_Functions/DGC_A230_Motor_Functions.c **** 		COURTESY = 0;
 595                             		.loc 1 192 0
 596 0030 C9 F0 02 FF             		movw	r8, #-254
 597 0034 AD F0                   		movw	ax, r8
 598 0036 BD F4                   		movw	r12, ax
 599 0038 FA F4                   		movw	hl, r12
 600 003a 8B                      		mov	a, [hl]
 601 003b 9D F2                   		mov	r10, a
 602 003d 5A F2 FE                		and	r10, #-2
 603 0040 AD F0                   		movw	ax, r8
 604 0042 EA F4                   		movw	de, r12
 605 0044 8D F2                   		mov	a, r10
 606 0046 99                      		mov	[de], a
 607                             	.LBE2:
 608 0047 EC 70 00 00             		br	!!.L27
 609                             	.L26:
 193:../DGC_A230_Functions/DGC_A230_Motor_Functions.c **** 	}
 194:../DGC_A230_Functions/DGC_A230_Motor_Functions.c **** 	else if (CFG_parameter.Courtery_Light_Mode >= 2)	// ACTIVE
 610                             		.loc 1 194 0
 611 004b 8F 00 00                		mov	a, !_CFG_parameter+54
 612 004e 9D F0                   		mov	r8, a
 613 0050 4A F0 01                		cmp	r8, #1
 614 0053 61 E3                   		 skh
 615 0055 EC 70 00 00             		 br	!!.L27
 195:../DGC_A230_Functions/DGC_A230_Motor_Functions.c **** 	{
 196:../DGC_A230_Functions/DGC_A230_Motor_Functions.c **** 		COURTESY = 1;
 616                             		.loc 1 196 0
 617 0059 C9 F0 02 FF             		movw	r8, #-254
 618 005d AD F0                   		movw	ax, r8
 619 005f BD F4                   		movw	r12, ax
 620 0061 FA F4                   		movw	hl, r12
 621 0063 8B                      		mov	a, [hl]
 622 0064 9D F2                   		mov	r10, a
 623 0066 6A F2 01                		or	r10, #1
 624 0069 AD F0                   		movw	ax, r8
 625 006b EA F4                   		movw	de, r12
 626 006d 8D F2                   		mov	a, r10
 627 006f 99                      		mov	[de], a
 628                             	.L27:
 197:../DGC_A230_Functions/DGC_A230_Motor_Functions.c **** 	}
 198:../DGC_A230_Functions/DGC_A230_Motor_Functions.c **** 
 199:../DGC_A230_Functions/DGC_A230_Motor_Functions.c **** 	if (CFG_parameter.Flashing_Light_Frequency == 0x00)
 629                             		.loc 1 199 0
 630 0070 8F 00 00                		mov	a, !_CFG_parameter+53
 631 0073 9D F0                   		mov	r8, a
 632 0075 D4 F0                   		cmp0	r8
 633 0077 61 E8                   		 skz
 634 0079 EC 84 00 00             		 br	!!.L28
 200:../DGC_A230_Functions/DGC_A230_Motor_Functions.c **** 		Flash_Frequency_Config = FLASH_LIGHT_FREQUENCY_EXTERNAL;
 635                             		.loc 1 200 0
 636 007d F5 00 00                		clrb	!_Flash_Frequency_Config
 637 0080 EC BB 00 00             		br	!!.L29
 638                             	.L28:
 201:../DGC_A230_Functions/DGC_A230_Motor_Functions.c **** 	else if (CFG_parameter.Flashing_Light_Frequency == 0x01)
 639                             		.loc 1 201 0
 640 0084 8F 00 00                		mov	a, !_CFG_parameter+53
 641 0087 9D F0                   		mov	r8, a
 642 0089 4A F0 01                		cmp	r8, #1
 643 008c 61 E8                   		 skz
 644 008e EC 9F 00 00             		 br	!!.L30
 202:../DGC_A230_Functions/DGC_A230_Motor_Functions.c **** 		{
 203:../DGC_A230_Functions/DGC_A230_Motor_Functions.c **** 		Flash_Frequency_Config = FLASH_LIGHT_FREQUENCY_SLOWLY;
 645                             		.loc 1 203 0
 646 0092 E5 00 00                		oneb	!_Flash_Frequency_Config
 204:../DGC_A230_Functions/DGC_A230_Motor_Functions.c **** 		Flash_Enable = 1;
 647                             		.loc 1 204 0
 648 0095 E5 00 00                		oneb	!_Flash_Enable
 205:../DGC_A230_Functions/DGC_A230_Motor_Functions.c **** 		Flash_Frequency_Count = 0;
 649                             		.loc 1 205 0
 650 0098 F5 00 00                		clrb	!_Flash_Frequency_Count
 651 009b EC BB 00 00             		br	!!.L29
 652                             	.L30:
 206:../DGC_A230_Functions/DGC_A230_Motor_Functions.c **** 		}
 207:../DGC_A230_Functions/DGC_A230_Motor_Functions.c **** 	else
 208:../DGC_A230_Functions/DGC_A230_Motor_Functions.c **** 		{
 209:../DGC_A230_Functions/DGC_A230_Motor_Functions.c **** 		if (Moving_Direction == CLOSE_MOVING_DIRECTION)
 653                             		.loc 1 209 0
 654 009f 88 06                   		mov	a, [sp+6]
 655 00a1 4C 01                   		cmp	a, #1
 656 00a3 61 E8                   		 skz
 657 00a5 EC B2 00 00             		 br	!!.L31
 210:../DGC_A230_Functions/DGC_A230_Motor_Functions.c **** 			Flash_Frequency_Config = FLASH_LIGHT_FREQUENCY_RAPIDLY;
 658                             		.loc 1 210 0
 659 00a9 51 02                   		mov	a, #2
 660 00ab 9F 00 00                		mov	!_Flash_Frequency_Config, a
 661 00ae EC B5 00 00             		br	!!.L32
 662                             	.L31:
 211:../DGC_A230_Functions/DGC_A230_Motor_Functions.c **** 		else
 212:../DGC_A230_Functions/DGC_A230_Motor_Functions.c **** 			Flash_Frequency_Config = FLASH_LIGHT_FREQUENCY_SLOWLY;
 663                             		.loc 1 212 0
 664 00b2 E5 00 00                		oneb	!_Flash_Frequency_Config
 665                             	.L32:
 213:../DGC_A230_Functions/DGC_A230_Motor_Functions.c **** 		Flash_Enable = 1;
 666                             		.loc 1 213 0
 667 00b5 E5 00 00                		oneb	!_Flash_Enable
 214:../DGC_A230_Functions/DGC_A230_Motor_Functions.c **** 		Flash_Frequency_Count = 0;
 668                             		.loc 1 214 0
 669 00b8 F5 00 00                		clrb	!_Flash_Frequency_Count
 670                             	.L29:
 215:../DGC_A230_Functions/DGC_A230_Motor_Functions.c **** 		}
 216:../DGC_A230_Functions/DGC_A230_Motor_Functions.c **** 
 217:../DGC_A230_Functions/DGC_A230_Motor_Functions.c **** 	FLASH = 1;
 671                             		.loc 1 217 0
 672 00bb C9 F0 02 FF             		movw	r8, #-254
 673 00bf AD F0                   		movw	ax, r8
 674 00c1 BD F4                   		movw	r12, ax
 675 00c3 FA F4                   		movw	hl, r12
 676 00c5 8B                      		mov	a, [hl]
 677 00c6 9D F2                   		mov	r10, a
 678 00c8 6A F2 02                		or	r10, #2
 679 00cb AD F0                   		movw	ax, r8
 680 00cd EA F4                   		movw	de, r12
 681 00cf 8D F2                   		mov	a, r10
 682 00d1 99                      		mov	[de], a
 218:../DGC_A230_Functions/DGC_A230_Motor_Functions.c **** 
 219:../DGC_A230_Functions/DGC_A230_Motor_Functions.c **** 	if (Pre_flash_Time == 0x00) 	//	if (CFG_parameter.Pre_Flashing == 0x00)
 683                             		.loc 1 219 0
 684 00d2 8F 00 00                		mov	a, !_Pre_flash_Time
 685 00d5 9D F0                   		mov	r8, a
 686 00d7 D4 F0                   		cmp0	r8
 687 00d9 61 E8                   		 skz
 688 00db EC E6 00 00             		 br	!!.L33
 220:../DGC_A230_Functions/DGC_A230_Motor_Functions.c **** 	{
 221:../DGC_A230_Functions/DGC_A230_Motor_Functions.c **** 		Pre_Flash_Type = FLASH_DISABLE_TIMER;
 689                             		.loc 1 221 0
 690 00df F5 00 00                		clrb	!_Pre_Flash_Type
 691 00e2 EC 76 01 00             		br	!!.L34
 692                             	.L33:
 222:../DGC_A230_Functions/DGC_A230_Motor_Functions.c **** 	}
 223:../DGC_A230_Functions/DGC_A230_Motor_Functions.c **** 	else if (Pre_flash_Time < 10)
 693                             		.loc 1 223 0
 694 00e6 8F 00 00                		mov	a, !_Pre_flash_Time
 695 00e9 9D F0                   		mov	r8, a
 696 00eb 4A F0 09                		cmp	r8, #9
 697 00ee 61 F3                   		 sknh
 698 00f0 EC 3D 01 00             		 br	!!.L35
 224:../DGC_A230_Functions/DGC_A230_Motor_Functions.c **** 	{
 225:../DGC_A230_Functions/DGC_A230_Motor_Functions.c **** 		FLASH = 1;
 699                             		.loc 1 225 0
 700 00f4 C9 F0 02 FF             		movw	r8, #-254
 701 00f8 AD F0                   		movw	ax, r8
 702 00fa BD F4                   		movw	r12, ax
 703 00fc FA F4                   		movw	hl, r12
 704 00fe 8B                      		mov	a, [hl]
 705 00ff 9D F2                   		mov	r10, a
 706 0101 6A F2 02                		or	r10, #2
 707 0104 AD F0                   		movw	ax, r8
 708 0106 EA F4                   		movw	de, r12
 709 0108 8D F2                   		mov	a, r10
 710 010a 99                      		mov	[de], a
 226:../DGC_A230_Functions/DGC_A230_Motor_Functions.c **** 		Pre_Flash_Type = FLASH_ENABLE_TIMER;
 711                             		.loc 1 226 0
 712 010b E5 00 00                		oneb	!_Pre_Flash_Type
 227:../DGC_A230_Functions/DGC_A230_Motor_Functions.c **** 		Flash_Timer_Counter = 0;
 713                             		.loc 1 227 0
 714 010e F5 00 00                		clrb	!_Flash_Timer_Counter
 228:../DGC_A230_Functions/DGC_A230_Motor_Functions.c **** 		while (Flash_Timer_Counter < (Pre_flash_Time * 2)); 	// Flashing warning signal for 1 to 10 secon
 715                             		.loc 1 228 0
 716 0111 00                      		nop
 717                             	.L36:
 718                             		.loc 1 228 0 is_stmt 0 discriminator 1
 719 0112 8F 00 00                		mov	a, !_Flash_Timer_Counter
 720 0115 9D F0                   		mov	r8, a
 721 0117 31 8E                   		shrw	ax, 8
 722 0119 BD F2                   		movw	r10, ax
 723 011b 8F 00 00                		mov	a, !_Pre_flash_Time
 724 011e 9D F0                   		mov	r8, a
 725 0120 F4 F1                   		clrb	r9
 726 0122 AD F0                   		movw	ax, r8
 727 0124 01                      		addw	ax, ax
 728 0125 BD F0                   		movw	r8, ax
 729 0127 AD F2                   		movw	ax, r10
 730 0129 46 F0                   		cmpw	ax, r8
 731 012b 71 FF                   		 xor1	CY, a.7
 732 012d 71 77 F1                		 xor1	CY, r9.7
 733 0130 61 D8                   		 sknc
 734 0132 EC 12 01 00             		 br	!!.L36
 229:../DGC_A230_Functions/DGC_A230_Motor_Functions.c **** 		Pre_Flash_Type = FLASH_DISABLE_TIMER;
 735                             		.loc 1 229 0 is_stmt 1
 736 0136 F5 00 00                		clrb	!_Pre_Flash_Type
 737 0139 EC 76 01 00             		br	!!.L34
 738                             	.L35:
 230:../DGC_A230_Functions/DGC_A230_Motor_Functions.c **** 	}
 231:../DGC_A230_Functions/DGC_A230_Motor_Functions.c **** 	else
 232:../DGC_A230_Functions/DGC_A230_Motor_Functions.c **** 	{
 233:../DGC_A230_Functions/DGC_A230_Motor_Functions.c **** 		if (Moving_Direction == CLOSE_MOVING_DIRECTION)
 739                             		.loc 1 233 0
 740 013d 88 06                   		mov	a, [sp+6]
 741 013f 4C 01                   		cmp	a, #1
 742 0141 61 E8                   		 skz
 743 0143 EC 76 01 00             		 br	!!.L34
 234:../DGC_A230_Functions/DGC_A230_Motor_Functions.c **** 		{
 235:../DGC_A230_Functions/DGC_A230_Motor_Functions.c **** 			FLASH = 1;
 744                             		.loc 1 235 0
 745 0147 C9 F0 02 FF             		movw	r8, #-254
 746 014b AD F0                   		movw	ax, r8
 747 014d BD F4                   		movw	r12, ax
 748 014f FA F4                   		movw	hl, r12
 749 0151 8B                      		mov	a, [hl]
 750 0152 9D F2                   		mov	r10, a
 751 0154 6A F2 02                		or	r10, #2
 752 0157 AD F0                   		movw	ax, r8
 753 0159 EA F4                   		movw	de, r12
 754 015b 8D F2                   		mov	a, r10
 755 015d 99                      		mov	[de], a
 236:../DGC_A230_Functions/DGC_A230_Motor_Functions.c **** 			Pre_Flash_Type = FLASH_ENABLE_TIMER;
 756                             		.loc 1 236 0
 757 015e E5 00 00                		oneb	!_Pre_Flash_Type
 237:../DGC_A230_Functions/DGC_A230_Motor_Functions.c **** 			Flash_Timer_Counter = 0;
 758                             		.loc 1 237 0
 759 0161 F5 00 00                		clrb	!_Flash_Timer_Counter
 238:../DGC_A230_Functions/DGC_A230_Motor_Functions.c **** 			while (Flash_Timer_Counter < 10);								// Flashing warning signal 5 second prior to closing ma
 760                             		.loc 1 238 0
 761 0164 00                      		nop
 762                             	.L37:
 763                             		.loc 1 238 0 is_stmt 0 discriminator 1
 764 0165 8F 00 00                		mov	a, !_Flash_Timer_Counter
 765 0168 9D F0                   		mov	r8, a
 766 016a 4A F0 09                		cmp	r8, #9
 767 016d 61 E3                   		 skh
 768 016f EC 65 01 00             		 br	!!.L37
 239:../DGC_A230_Functions/DGC_A230_Motor_Functions.c **** 			Pre_Flash_Type = FLASH_DISABLE_TIMER;
 769                             		.loc 1 239 0 is_stmt 1
 770 0173 F5 00 00                		clrb	!_Pre_Flash_Type
 771                             	.L34:
 240:../DGC_A230_Functions/DGC_A230_Motor_Functions.c **** 		}
 241:../DGC_A230_Functions/DGC_A230_Motor_Functions.c **** 	}
 242:../DGC_A230_Functions/DGC_A230_Motor_Functions.c **** 
 243:../DGC_A230_Functions/DGC_A230_Motor_Functions.c **** 	FLASH = 1;
 772                             		.loc 1 243 0
 773 0176 C9 F0 02 FF             		movw	r8, #-254
 774 017a AD F0                   		movw	ax, r8
 775 017c BD F4                   		movw	r12, ax
 776 017e FA F4                   		movw	hl, r12
 777 0180 8B                      		mov	a, [hl]
 778 0181 9D F2                   		mov	r10, a
 779 0183 6A F2 02                		or	r10, #2
 780 0186 AD F0                   		movw	ax, r8
 781 0188 EA F4                   		movw	de, r12
 782 018a 8D F2                   		mov	a, r10
 783 018c 99                      		mov	[de], a
 244:../DGC_A230_Functions/DGC_A230_Motor_Functions.c **** }
 784                             		.loc 1 244 0
 785 018d 10 02                   		addw	sp, #2
 786 018f D7                      		ret
 787                             	.LFE9:
 789                             		.section	.text.Prepare_To_Moving_Motor1,"ax",@progbits
 790                             		.global	_Prepare_To_Moving_Motor1
 792                             	_Prepare_To_Moving_Motor1:
 793                             	.LFB10:
 245:../DGC_A230_Functions/DGC_A230_Motor_Functions.c **** 
 246:../DGC_A230_Functions/DGC_A230_Motor_Functions.c **** void Prepare_To_Moving_Motor1(uint8_t Moving_Direction)
 247:../DGC_A230_Functions/DGC_A230_Motor_Functions.c **** {
 794                             		.loc 1 247 0
 795                             		; start of function
 796                             		; locals: 2 bytes
 797                             		; outgoing: 2 bytes
 798                             		; uses ES register
 799 0000 20 04                   		subw	sp, #4
 800                             	.LCFI1:
 248:../DGC_A230_Functions/DGC_A230_Motor_Functions.c **** 	uint16_t M1_Running_Time, Temp_Time;
 249:../DGC_A230_Functions/DGC_A230_Motor_Functions.c **** 
 250:../DGC_A230_Functions/DGC_A230_Motor_Functions.c **** 	Calculate_Torque_Parameter_Motor1();
 801                             		.loc 1 250 0
 802 0002 FC 00 00 00             		call	!!%code(_Calculate_Torque_Parameter_Motor1)
 251:../DGC_A230_Functions/DGC_A230_Motor_Functions.c **** 
 252:../DGC_A230_Functions/DGC_A230_Motor_Functions.c **** 	if (Moving_Direction == OPEN_MOVING_DIRECTION)
 803                             		.loc 1 252 0
 804 0006 88 08                   		mov	a, [sp+8]
 805 0008 D1                      		cmp0	a
 806 0009 61 E8                   		 skz
 807 000b EC 23 00 00             		 br	!!.L39
 253:../DGC_A230_Functions/DGC_A230_Motor_Functions.c **** 	{
 254:../DGC_A230_Functions/DGC_A230_Motor_Functions.c **** 		M1_Running_Time = CFG_parameter.M1_Total_Space - M1_Time_Position;
 808                             		.loc 1 254 0
 809 000f AF 00 00                		movw	ax, !_CFG_parameter+24
 810 0012 BD F2                   		movw	r10, ax
 811 0014 AF 00 00                		movw	ax, !_M1_Time_Position
 812 0017 BD F0                   		movw	r8, ax
 813 0019 AD F2                   		movw	ax, r10
 814 001b 26 F0                   		subw	ax, r8
 815 001d B8 02                   		movw	[sp+2], ax
 816 001f EC 2A 00 00             		br	!!.L40
 817                             	.L39:
 255:../DGC_A230_Functions/DGC_A230_Motor_Functions.c **** 
 256:../DGC_A230_Functions/DGC_A230_Motor_Functions.c **** 	}
 257:../DGC_A230_Functions/DGC_A230_Motor_Functions.c **** 	else
 258:../DGC_A230_Functions/DGC_A230_Motor_Functions.c **** 	{
 259:../DGC_A230_Functions/DGC_A230_Motor_Functions.c **** 		M1_Running_Time = M1_Time_Position;
 818                             		.loc 1 259 0
 819 0023 AF 00 00                		movw	ax, !_M1_Time_Position
 820 0026 BD F0                   		movw	r8, ax
 821 0028 B8 02                   		movw	[sp+2], ax
 822                             	.L40:
 260:../DGC_A230_Functions/DGC_A230_Motor_Functions.c **** 	}
 261:../DGC_A230_Functions/DGC_A230_Motor_Functions.c **** 
 262:../DGC_A230_Functions/DGC_A230_Motor_Functions.c **** 	/* Calculate Time point for time stamp*/
 263:../DGC_A230_Functions/DGC_A230_Motor_Functions.c **** 
 264:../DGC_A230_Functions/DGC_A230_Motor_Functions.c **** 	if (M1_Running_Time > CFG_parameter.M1_Deceleration_Space)
 823                             		.loc 1 264 0
 824 002a AF 00 00                		movw	ax, !_CFG_parameter+30
 825 002d BD F2                   		movw	r10, ax
 826 002f A8 02                   		movw	ax, [sp+2]
 827 0031 BD F0                   		movw	r8, ax
 828 0033 AD F2                   		movw	ax, r10
 829 0035 46 F0                   		cmpw	ax, r8
 830 0037 61 C8                   		 skc
 831 0039 EC EA 00 00             		 br	!!.L41
 265:../DGC_A230_Functions/DGC_A230_Motor_Functions.c **** 	{
 266:../DGC_A230_Functions/DGC_A230_Motor_Functions.c **** 		M1_Time_T1 = CFG_parameter.Motor_Start_Time;
 832                             		.loc 1 266 0
 833 003d AF 00 00                		movw	ax, !_CFG_parameter+4
 834 0040 BD F0                   		movw	r8, ax
 835 0042 BF 00 00                		movw	!_M1_Time_T1, ax
 267:../DGC_A230_Functions/DGC_A230_Motor_Functions.c **** 
 268:../DGC_A230_Functions/DGC_A230_Motor_Functions.c **** 		M1_Running_Time -= CFG_parameter.M1_Deceleration_Space;
 836                             		.loc 1 268 0
 837 0045 AF 00 00                		movw	ax, !_CFG_parameter+30
 838 0048 BD F0                   		movw	r8, ax
 839 004a A8 02                   		movw	ax, [sp+2]
 840 004c 26 F0                   		subw	ax, r8
 841 004e B8 02                   		movw	[sp+2], ax
 269:../DGC_A230_Functions/DGC_A230_Motor_Functions.c **** 		if (M1_Running_Time > CFG_parameter.M1_Maneuver_Space)
 842                             		.loc 1 269 0
 843 0050 AF 00 00                		movw	ax, !_CFG_parameter+34
 844 0053 BD F2                   		movw	r10, ax
 845 0055 A8 02                   		movw	ax, [sp+2]
 846 0057 BD F0                   		movw	r8, ax
 847 0059 AD F2                   		movw	ax, r10
 848 005b 46 F0                   		cmpw	ax, r8
 849 005d 61 C8                   		 skc
 850 005f EC C8 00 00             		 br	!!.L42
 270:../DGC_A230_Functions/DGC_A230_Motor_Functions.c **** 		{
 271:../DGC_A230_Functions/DGC_A230_Motor_Functions.c **** 			M1_Running_Time -= CFG_parameter.M1_Maneuver_Space;
 851                             		.loc 1 271 0
 852 0063 AF 00 00                		movw	ax, !_CFG_parameter+34
 853 0066 BD F0                   		movw	r8, ax
 854 0068 A8 02                   		movw	ax, [sp+2]
 855 006a 26 F0                   		subw	ax, r8
 856 006c B8 02                   		movw	[sp+2], ax
 272:../DGC_A230_Functions/DGC_A230_Motor_Functions.c **** 			if (M1_Running_Time > CFG_parameter.Motor_Maximum_Boost_Time*3)
 857                             		.loc 1 272 0
 858 006e AF 00 00                		movw	ax, !_CFG_parameter+6
 859 0071 BD F2                   		movw	r10, ax
 860 0073 BD F0                   		movw	r8, ax
 861 0075 01                      		addw	ax, ax
 862 0076 BD F0                   		movw	r8, ax
 863 0078 06 F2                   		addw	ax, r10
 864 007a BD F2                   		movw	r10, ax
 865 007c A8 02                   		movw	ax, [sp+2]
 866 007e BD F0                   		movw	r8, ax
 867 0080 AD F2                   		movw	ax, r10
 868 0082 46 F0                   		cmpw	ax, r8
 869 0084 61 C8                   		 skc
 870 0086 EC AA 00 00             		 br	!!.L43
 273:../DGC_A230_Functions/DGC_A230_Motor_Functions.c **** 			{
 274:../DGC_A230_Functions/DGC_A230_Motor_Functions.c **** 				M1_Time_T2 = M1_Time_T1 + CFG_parameter.Motor_Maximum_Boost_Time*3;
 871                             		.loc 1 274 0
 872 008a AF 00 00                		movw	ax, !_CFG_parameter+6
 873 008d BD F2                   		movw	r10, ax
 874 008f BD F0                   		movw	r8, ax
 875 0091 01                      		addw	ax, ax
 876 0092 BD F0                   		movw	r8, ax
 877 0094 06 F2                   		addw	ax, r10
 878 0096 BD F2                   		movw	r10, ax
 879 0098 AF 00 00                		movw	ax, !_M1_Time_T1
 880 009b BD F0                   		movw	r8, ax
 881 009d AD F2                   		movw	ax, r10
 882 009f 06 F0                   		addw	ax, r8
 883 00a1 BD F0                   		movw	r8, ax
 884 00a3 BF 00 00                		movw	!_M1_Time_T2, ax
 885 00a6 EC B1 00 00             		br	!!.L44
 886                             	.L43:
 275:../DGC_A230_Functions/DGC_A230_Motor_Functions.c **** 			}
 276:../DGC_A230_Functions/DGC_A230_Motor_Functions.c **** 			else
 277:../DGC_A230_Functions/DGC_A230_Motor_Functions.c **** 			{
 278:../DGC_A230_Functions/DGC_A230_Motor_Functions.c **** 				M1_Time_T2 = M1_Running_Time;
 887                             		.loc 1 278 0
 888 00aa A8 02                   		movw	ax, [sp+2]
 889 00ac BD F0                   		movw	r8, ax
 890 00ae BF 00 00                		movw	!_M1_Time_T2, ax
 891                             	.L44:
 279:../DGC_A230_Functions/DGC_A230_Motor_Functions.c **** 			}
 280:../DGC_A230_Functions/DGC_A230_Motor_Functions.c **** 
 281:../DGC_A230_Functions/DGC_A230_Motor_Functions.c **** 			M1_Time_T3 = M1_Time_T2 + CFG_parameter.M1_Maneuver_Space;
 892                             		.loc 1 281 0
 893 00b1 AF 00 00                		movw	ax, !_CFG_parameter+34
 894 00b4 BD F2                   		movw	r10, ax
 895 00b6 AF 00 00                		movw	ax, !_M1_Time_T2
 896 00b9 BD F0                   		movw	r8, ax
 897 00bb AD F2                   		movw	ax, r10
 898 00bd 06 F0                   		addw	ax, r8
 899 00bf BD F0                   		movw	r8, ax
 900 00c1 BF 00 00                		movw	!_M1_Time_T3, ax
 901 00c4 EC D3 00 00             		br	!!.L45
 902                             	.L42:
 282:../DGC_A230_Functions/DGC_A230_Motor_Functions.c **** 		}
 283:../DGC_A230_Functions/DGC_A230_Motor_Functions.c **** 		else
 284:../DGC_A230_Functions/DGC_A230_Motor_Functions.c **** 		{
 285:../DGC_A230_Functions/DGC_A230_Motor_Functions.c **** 			M1_Time_T2 = 0;
 903                             		.loc 1 285 0
 904 00c8 F6                      		clrw	ax
 905 00c9 BF 00 00                		movw	!_M1_Time_T2, ax
 286:../DGC_A230_Functions/DGC_A230_Motor_Functions.c **** 			M1_Time_T3 = M1_Running_Time;
 906                             		.loc 1 286 0
 907 00cc A8 02                   		movw	ax, [sp+2]
 908 00ce BD F0                   		movw	r8, ax
 909 00d0 BF 00 00                		movw	!_M1_Time_T3, ax
 910                             	.L45:
 287:../DGC_A230_Functions/DGC_A230_Motor_Functions.c **** 		}
 288:../DGC_A230_Functions/DGC_A230_Motor_Functions.c **** 
 289:../DGC_A230_Functions/DGC_A230_Motor_Functions.c **** 		M1_Time_T4 = M1_Time_T3 + CFG_parameter.M1_Deceleration_Space;
 911                             		.loc 1 289 0
 912 00d3 AF 00 00                		movw	ax, !_CFG_parameter+30
 913 00d6 BD F2                   		movw	r10, ax
 914 00d8 AF 00 00                		movw	ax, !_M1_Time_T3
 915 00db BD F0                   		movw	r8, ax
 916 00dd AD F2                   		movw	ax, r10
 917 00df 06 F0                   		addw	ax, r8
 918 00e1 BD F0                   		movw	r8, ax
 919 00e3 BF 00 00                		movw	!_M1_Time_T4, ax
 920 00e6 EC 03 01 00             		br	!!.L46
 921                             	.L41:
 290:../DGC_A230_Functions/DGC_A230_Motor_Functions.c **** //		M1_Time_T4 = CFG_parameter.M1_Deceleration_Space;
 291:../DGC_A230_Functions/DGC_A230_Motor_Functions.c **** 	}
 292:../DGC_A230_Functions/DGC_A230_Motor_Functions.c **** 	else
 293:../DGC_A230_Functions/DGC_A230_Motor_Functions.c **** 	{
 294:../DGC_A230_Functions/DGC_A230_Motor_Functions.c **** 		M1_Time_T1 = 0;
 922                             		.loc 1 294 0
 923 00ea F6                      		clrw	ax
 924 00eb BF 00 00                		movw	!_M1_Time_T1, ax
 295:../DGC_A230_Functions/DGC_A230_Motor_Functions.c **** 		M1_Time_T2 = M1_Time_T1 + 0;
 925                             		.loc 1 295 0
 926 00ee BD F0                   		movw	r8, ax
 927 00f0 BF 00 00                		movw	!_M1_Time_T2, ax
 296:../DGC_A230_Functions/DGC_A230_Motor_Functions.c **** 		M1_Time_T3 = M1_Time_T2 + 0;
 928                             		.loc 1 296 0
 929 00f3 BD F0                   		movw	r8, ax
 930 00f5 BF 00 00                		movw	!_M1_Time_T3, ax
 297:../DGC_A230_Functions/DGC_A230_Motor_Functions.c **** 		M1_Time_T4 = M1_Time_T3 + M1_Running_Time;
 931                             		.loc 1 297 0
 932 00f8 BD F0                   		movw	r8, ax
 933 00fa A8 02                   		movw	ax, [sp+2]
 934 00fc 06 F0                   		addw	ax, r8
 935 00fe BD F0                   		movw	r8, ax
 936 0100 BF 00 00                		movw	!_M1_Time_T4, ax
 937                             	.L46:
 298:../DGC_A230_Functions/DGC_A230_Motor_Functions.c **** //		M1_Time_T4 = M1_Running_Time;
 299:../DGC_A230_Functions/DGC_A230_Motor_Functions.c **** 	}
 300:../DGC_A230_Functions/DGC_A230_Motor_Functions.c **** 
 301:../DGC_A230_Functions/DGC_A230_Motor_Functions.c **** 
 302:../DGC_A230_Functions/DGC_A230_Motor_Functions.c **** 
 303:../DGC_A230_Functions/DGC_A230_Motor_Functions.c **** 	if (Moving_Direction == OPEN_MOVING_DIRECTION)
 938                             		.loc 1 303 0
 939 0103 88 08                   		mov	a, [sp+8]
 940 0105 D1                      		cmp0	a
 941 0106 61 E8                   		 skz
 942 0108 EC 31 01 00             		 br	!!.L47
 304:../DGC_A230_Functions/DGC_A230_Motor_Functions.c **** 	{
 305:../DGC_A230_Functions/DGC_A230_Motor_Functions.c **** 		if (Leaf_No1_State == GATE_STATE_CLOSING_PAUSE)
 943                             		.loc 1 305 0
 944 010c 8F 00 00                		mov	a, !_Leaf_No1_State
 945 010f 9D F0                   		mov	r8, a
 946 0111 4A F0 07                		cmp	r8, #7
 947 0114 61 E8                   		 skz
 948 0116 EC 52 01 00             		 br	!!.L49
 306:../DGC_A230_Functions/DGC_A230_Motor_Functions.c **** 		{
 307:../DGC_A230_Functions/DGC_A230_Motor_Functions.c **** 			M1_Time_T4 += CFG_parameter.Addition_Time_After_INV;
 949                             		.loc 1 307 0
 950 011a AF 00 00                		movw	ax, !_CFG_parameter+44
 951 011d BD F2                   		movw	r10, ax
 952 011f AF 00 00                		movw	ax, !_M1_Time_T4
 953 0122 BD F0                   		movw	r8, ax
 954 0124 AD F2                   		movw	ax, r10
 955 0126 06 F0                   		addw	ax, r8
 956 0128 BD F0                   		movw	r8, ax
 957 012a BF 00 00                		movw	!_M1_Time_T4, ax
 958 012d EC 52 01 00             		br	!!.L49
 959                             	.L47:
 308:../DGC_A230_Functions/DGC_A230_Motor_Functions.c **** 
 309:../DGC_A230_Functions/DGC_A230_Motor_Functions.c **** 		}
 310:../DGC_A230_Functions/DGC_A230_Motor_Functions.c **** 	}
 311:../DGC_A230_Functions/DGC_A230_Motor_Functions.c **** 	else
 312:../DGC_A230_Functions/DGC_A230_Motor_Functions.c **** 	{
 313:../DGC_A230_Functions/DGC_A230_Motor_Functions.c **** 		if (Leaf_No1_State == GATE_STATE_OPENING_PAUSE)
 960                             		.loc 1 313 0
 961 0131 8F 00 00                		mov	a, !_Leaf_No1_State
 962 0134 9D F0                   		mov	r8, a
 963 0136 4A F0 06                		cmp	r8, #6
 964 0139 61 E8                   		 skz
 965 013b EC 52 01 00             		 br	!!.L49
 314:../DGC_A230_Functions/DGC_A230_Motor_Functions.c **** 		{
 315:../DGC_A230_Functions/DGC_A230_Motor_Functions.c **** 			M1_Time_T4 += CFG_parameter.Addition_Time_After_INV;
 966                             		.loc 1 315 0
 967 013f AF 00 00                		movw	ax, !_CFG_parameter+44
 968 0142 BD F2                   		movw	r10, ax
 969 0144 AF 00 00                		movw	ax, !_M1_Time_T4
 970 0147 BD F0                   		movw	r8, ax
 971 0149 AD F2                   		movw	ax, r10
 972 014b 06 F0                   		addw	ax, r8
 973 014d BD F0                   		movw	r8, ax
 974 014f BF 00 00                		movw	!_M1_Time_T4, ax
 975                             	.L49:
 316:../DGC_A230_Functions/DGC_A230_Motor_Functions.c **** 		}
 317:../DGC_A230_Functions/DGC_A230_Motor_Functions.c **** 	}
 318:../DGC_A230_Functions/DGC_A230_Motor_Functions.c **** 	if(CFG_parameter.Number_Of_Motors == 0x01)
 976                             		.loc 1 318 0
 977 0152 8F 00 00                		mov	a, !_CFG_parameter+1
 978 0155 9D F0                   		mov	r8, a
 979 0157 4A F0 01                		cmp	r8, #1
 980 015a 61 E8                   		 skz
 981 015c EC 6A 01 00             		 br	!!.L38
 319:../DGC_A230_Functions/DGC_A230_Motor_Functions.c **** 	{
 320:../DGC_A230_Functions/DGC_A230_Motor_Functions.c **** 		Setting_Courtesy_Light_and_Flash_Light(Moving_Direction);
 982                             		.loc 1 320 0
 983 0160 88 08                   		mov	a, [sp+8]
 984 0162 9D F0                   		mov	r8, a
 985 0164 98 00                   		mov	[sp], a
 986 0166 FC 00 00 00             		call	!!%code(_Setting_Courtesy_Light_and_Flash_Light)
 987                             	.L38:
 321:../DGC_A230_Functions/DGC_A230_Motor_Functions.c **** 	}
 322:../DGC_A230_Functions/DGC_A230_Motor_Functions.c **** }
 988                             		.loc 1 322 0
 989 016a 10 04                   		addw	sp, #4
 990 016c D7                      		ret
 991                             	.LFE10:
 993                             		.section	.text.Prepare_To_Moving_Motor2,"ax",@progbits
 994                             		.global	_Prepare_To_Moving_Motor2
 996                             	_Prepare_To_Moving_Motor2:
 997                             	.LFB11:
 323:../DGC_A230_Functions/DGC_A230_Motor_Functions.c **** 
 324:../DGC_A230_Functions/DGC_A230_Motor_Functions.c **** 
 325:../DGC_A230_Functions/DGC_A230_Motor_Functions.c **** void Prepare_To_Moving_Motor2(uint8_t Moving_Direction)
 326:../DGC_A230_Functions/DGC_A230_Motor_Functions.c **** {
 998                             		.loc 1 326 0
 999                             		; start of function
 1000                             		; locals: 2 bytes
 1001                             		; outgoing: 2 bytes
 1002                             		; uses ES register
 1003 0000 20 04                   		subw	sp, #4
 1004                             	.LCFI2:
 327:../DGC_A230_Functions/DGC_A230_Motor_Functions.c **** 	uint16_t M2_Running_Time, Temp_Time;
 328:../DGC_A230_Functions/DGC_A230_Motor_Functions.c **** 
 329:../DGC_A230_Functions/DGC_A230_Motor_Functions.c **** 	Calculate_Torque_Parameter_Motor2();
 1005                             		.loc 1 329 0
 1006 0002 FC 00 00 00             		call	!!%code(_Calculate_Torque_Parameter_Motor2)
 330:../DGC_A230_Functions/DGC_A230_Motor_Functions.c **** 
 331:../DGC_A230_Functions/DGC_A230_Motor_Functions.c **** 	if (Moving_Direction == OPEN_MOVING_DIRECTION)
 1007                             		.loc 1 331 0
 1008 0006 88 08                   		mov	a, [sp+8]
 1009 0008 D1                      		cmp0	a
 1010 0009 61 E8                   		 skz
 1011 000b EC 23 00 00             		 br	!!.L52
 332:../DGC_A230_Functions/DGC_A230_Motor_Functions.c **** 	{
 333:../DGC_A230_Functions/DGC_A230_Motor_Functions.c **** 		M2_Running_Time = CFG_parameter.M2_Total_Space - M2_Time_Position;
 1012                             		.loc 1 333 0
 1013 000f AF 00 00                		movw	ax, !_CFG_parameter+26
 1014 0012 BD F2                   		movw	r10, ax
 1015 0014 AF 00 00                		movw	ax, !_M2_Time_Position
 1016 0017 BD F0                   		movw	r8, ax
 1017 0019 AD F2                   		movw	ax, r10
 1018 001b 26 F0                   		subw	ax, r8
 1019 001d B8 02                   		movw	[sp+2], ax
 1020 001f EC 2A 00 00             		br	!!.L53
 1021                             	.L52:
 334:../DGC_A230_Functions/DGC_A230_Motor_Functions.c **** 	}
 335:../DGC_A230_Functions/DGC_A230_Motor_Functions.c **** 	else
 336:../DGC_A230_Functions/DGC_A230_Motor_Functions.c **** 	{
 337:../DGC_A230_Functions/DGC_A230_Motor_Functions.c **** 		M2_Running_Time = M2_Time_Position;
 1022                             		.loc 1 337 0
 1023 0023 AF 00 00                		movw	ax, !_M2_Time_Position
 1024 0026 BD F0                   		movw	r8, ax
 1025 0028 B8 02                   		movw	[sp+2], ax
 1026                             	.L53:
 338:../DGC_A230_Functions/DGC_A230_Motor_Functions.c **** 	}
 339:../DGC_A230_Functions/DGC_A230_Motor_Functions.c **** 
 340:../DGC_A230_Functions/DGC_A230_Motor_Functions.c **** 	/* Calculate Time point for time stamp*/
 341:../DGC_A230_Functions/DGC_A230_Motor_Functions.c **** 
 342:../DGC_A230_Functions/DGC_A230_Motor_Functions.c **** 	if (M2_Running_Time > CFG_parameter.M2_Deceleration_Space)
 1027                             		.loc 1 342 0
 1028 002a AF 00 00                		movw	ax, !_CFG_parameter+32
 1029 002d BD F2                   		movw	r10, ax
 1030 002f A8 02                   		movw	ax, [sp+2]
 1031 0031 BD F0                   		movw	r8, ax
 1032 0033 AD F2                   		movw	ax, r10
 1033 0035 46 F0                   		cmpw	ax, r8
 1034 0037 61 C8                   		 skc
 1035 0039 EC EA 00 00             		 br	!!.L54
 343:../DGC_A230_Functions/DGC_A230_Motor_Functions.c **** 	{
 344:../DGC_A230_Functions/DGC_A230_Motor_Functions.c **** 		M2_Time_T1 = CFG_parameter.Motor_Start_Time;
 1036                             		.loc 1 344 0
 1037 003d AF 00 00                		movw	ax, !_CFG_parameter+4
 1038 0040 BD F0                   		movw	r8, ax
 1039 0042 BF 00 00                		movw	!_M2_Time_T1, ax
 345:../DGC_A230_Functions/DGC_A230_Motor_Functions.c **** 		M2_Running_Time -= CFG_parameter.M2_Deceleration_Space;
 1040                             		.loc 1 345 0
 1041 0045 AF 00 00                		movw	ax, !_CFG_parameter+32
 1042 0048 BD F0                   		movw	r8, ax
 1043 004a A8 02                   		movw	ax, [sp+2]
 1044 004c 26 F0                   		subw	ax, r8
 1045 004e B8 02                   		movw	[sp+2], ax
 346:../DGC_A230_Functions/DGC_A230_Motor_Functions.c **** 		if (M2_Running_Time > CFG_parameter.M2_Maneuver_Space)
 1046                             		.loc 1 346 0
 1047 0050 AF 00 00                		movw	ax, !_CFG_parameter+36
 1048 0053 BD F2                   		movw	r10, ax
 1049 0055 A8 02                   		movw	ax, [sp+2]
 1050 0057 BD F0                   		movw	r8, ax
 1051 0059 AD F2                   		movw	ax, r10
 1052 005b 46 F0                   		cmpw	ax, r8
 1053 005d 61 C8                   		 skc
 1054 005f EC C8 00 00             		 br	!!.L55
 347:../DGC_A230_Functions/DGC_A230_Motor_Functions.c **** 		{
 348:../DGC_A230_Functions/DGC_A230_Motor_Functions.c **** 			M2_Running_Time -= CFG_parameter.M2_Maneuver_Space;
 1055                             		.loc 1 348 0
 1056 0063 AF 00 00                		movw	ax, !_CFG_parameter+36
 1057 0066 BD F0                   		movw	r8, ax
 1058 0068 A8 02                   		movw	ax, [sp+2]
 1059 006a 26 F0                   		subw	ax, r8
 1060 006c B8 02                   		movw	[sp+2], ax
 349:../DGC_A230_Functions/DGC_A230_Motor_Functions.c **** 			if (M2_Running_Time > CFG_parameter.Motor_Maximum_Boost_Time*3)
 1061                             		.loc 1 349 0
 1062 006e AF 00 00                		movw	ax, !_CFG_parameter+6
 1063 0071 BD F2                   		movw	r10, ax
 1064 0073 BD F0                   		movw	r8, ax
 1065 0075 01                      		addw	ax, ax
 1066 0076 BD F0                   		movw	r8, ax
 1067 0078 06 F2                   		addw	ax, r10
 1068 007a BD F2                   		movw	r10, ax
 1069 007c A8 02                   		movw	ax, [sp+2]
 1070 007e BD F0                   		movw	r8, ax
 1071 0080 AD F2                   		movw	ax, r10
 1072 0082 46 F0                   		cmpw	ax, r8
 1073 0084 61 C8                   		 skc
 1074 0086 EC AA 00 00             		 br	!!.L56
 350:../DGC_A230_Functions/DGC_A230_Motor_Functions.c **** 			{
 351:../DGC_A230_Functions/DGC_A230_Motor_Functions.c **** 				M2_Time_T2 = M2_Time_T1 + CFG_parameter.Motor_Maximum_Boost_Time*3;
 1075                             		.loc 1 351 0
 1076 008a AF 00 00                		movw	ax, !_CFG_parameter+6
 1077 008d BD F2                   		movw	r10, ax
 1078 008f BD F0                   		movw	r8, ax
 1079 0091 01                      		addw	ax, ax
 1080 0092 BD F0                   		movw	r8, ax
 1081 0094 06 F2                   		addw	ax, r10
 1082 0096 BD F2                   		movw	r10, ax
 1083 0098 AF 00 00                		movw	ax, !_M2_Time_T1
 1084 009b BD F0                   		movw	r8, ax
 1085 009d AD F2                   		movw	ax, r10
 1086 009f 06 F0                   		addw	ax, r8
 1087 00a1 BD F0                   		movw	r8, ax
 1088 00a3 BF 00 00                		movw	!_M2_Time_T2, ax
 1089 00a6 EC B1 00 00             		br	!!.L57
 1090                             	.L56:
 352:../DGC_A230_Functions/DGC_A230_Motor_Functions.c **** 			}
 353:../DGC_A230_Functions/DGC_A230_Motor_Functions.c **** 			else
 354:../DGC_A230_Functions/DGC_A230_Motor_Functions.c **** 			{
 355:../DGC_A230_Functions/DGC_A230_Motor_Functions.c **** 				M2_Time_T2 = M2_Running_Time;
 1091                             		.loc 1 355 0
 1092 00aa A8 02                   		movw	ax, [sp+2]
 1093 00ac BD F0                   		movw	r8, ax
 1094 00ae BF 00 00                		movw	!_M2_Time_T2, ax
 1095                             	.L57:
 356:../DGC_A230_Functions/DGC_A230_Motor_Functions.c **** 			}
 357:../DGC_A230_Functions/DGC_A230_Motor_Functions.c **** 
 358:../DGC_A230_Functions/DGC_A230_Motor_Functions.c **** 			M2_Time_T3 = M2_Time_T2 + CFG_parameter.M2_Maneuver_Space;
 1096                             		.loc 1 358 0
 1097 00b1 AF 00 00                		movw	ax, !_CFG_parameter+36
 1098 00b4 BD F2                   		movw	r10, ax
 1099 00b6 AF 00 00                		movw	ax, !_M2_Time_T2
 1100 00b9 BD F0                   		movw	r8, ax
 1101 00bb AD F2                   		movw	ax, r10
 1102 00bd 06 F0                   		addw	ax, r8
 1103 00bf BD F0                   		movw	r8, ax
 1104 00c1 BF 00 00                		movw	!_M2_Time_T3, ax
 1105 00c4 EC D3 00 00             		br	!!.L58
 1106                             	.L55:
 359:../DGC_A230_Functions/DGC_A230_Motor_Functions.c **** 		}
 360:../DGC_A230_Functions/DGC_A230_Motor_Functions.c **** 		else
 361:../DGC_A230_Functions/DGC_A230_Motor_Functions.c **** 		{
 362:../DGC_A230_Functions/DGC_A230_Motor_Functions.c **** 			M2_Time_T2 = 0;
 1107                             		.loc 1 362 0
 1108 00c8 F6                      		clrw	ax
 1109 00c9 BF 00 00                		movw	!_M2_Time_T2, ax
 363:../DGC_A230_Functions/DGC_A230_Motor_Functions.c **** 			M2_Time_T3 = M2_Running_Time;
 1110                             		.loc 1 363 0
 1111 00cc A8 02                   		movw	ax, [sp+2]
 1112 00ce BD F0                   		movw	r8, ax
 1113 00d0 BF 00 00                		movw	!_M2_Time_T3, ax
 1114                             	.L58:
 364:../DGC_A230_Functions/DGC_A230_Motor_Functions.c **** 		}
 365:../DGC_A230_Functions/DGC_A230_Motor_Functions.c **** 
 366:../DGC_A230_Functions/DGC_A230_Motor_Functions.c **** 		M2_Time_T4 = M2_Time_T3 + CFG_parameter.M2_Deceleration_Space;
 1115                             		.loc 1 366 0
 1116 00d3 AF 00 00                		movw	ax, !_CFG_parameter+32
 1117 00d6 BD F2                   		movw	r10, ax
 1118 00d8 AF 00 00                		movw	ax, !_M2_Time_T3
 1119 00db BD F0                   		movw	r8, ax
 1120 00dd AD F2                   		movw	ax, r10
 1121 00df 06 F0                   		addw	ax, r8
 1122 00e1 BD F0                   		movw	r8, ax
 1123 00e3 BF 00 00                		movw	!_M2_Time_T4, ax
 1124 00e6 EC 03 01 00             		br	!!.L59
 1125                             	.L54:
 367:../DGC_A230_Functions/DGC_A230_Motor_Functions.c **** 	}
 368:../DGC_A230_Functions/DGC_A230_Motor_Functions.c **** 	else
 369:../DGC_A230_Functions/DGC_A230_Motor_Functions.c **** 	{
 370:../DGC_A230_Functions/DGC_A230_Motor_Functions.c **** 		M2_Time_T1 = 0;
 1126                             		.loc 1 370 0
 1127 00ea F6                      		clrw	ax
 1128 00eb BF 00 00                		movw	!_M2_Time_T1, ax
 371:../DGC_A230_Functions/DGC_A230_Motor_Functions.c **** 		M2_Time_T2 = M2_Time_T1 + 0;
 1129                             		.loc 1 371 0
 1130 00ee BD F0                   		movw	r8, ax
 1131 00f0 BF 00 00                		movw	!_M2_Time_T2, ax
 372:../DGC_A230_Functions/DGC_A230_Motor_Functions.c **** 		M2_Time_T3 = M2_Time_T2 + 0;
 1132                             		.loc 1 372 0
 1133 00f3 BD F0                   		movw	r8, ax
 1134 00f5 BF 00 00                		movw	!_M2_Time_T3, ax
 373:../DGC_A230_Functions/DGC_A230_Motor_Functions.c **** 		M2_Time_T4 = M2_Time_T3 + M2_Running_Time;
 1135                             		.loc 1 373 0
 1136 00f8 BD F0                   		movw	r8, ax
 1137 00fa A8 02                   		movw	ax, [sp+2]
 1138 00fc 06 F0                   		addw	ax, r8
 1139 00fe BD F0                   		movw	r8, ax
 1140 0100 BF 00 00                		movw	!_M2_Time_T4, ax
 1141                             	.L59:
 374:../DGC_A230_Functions/DGC_A230_Motor_Functions.c **** 	}
 375:../DGC_A230_Functions/DGC_A230_Motor_Functions.c **** 
 376:../DGC_A230_Functions/DGC_A230_Motor_Functions.c **** 	if (Moving_Direction == OPEN_MOVING_DIRECTION)
 1142                             		.loc 1 376 0
 1143 0103 88 08                   		mov	a, [sp+8]
 1144 0105 D1                      		cmp0	a
 1145 0106 61 E8                   		 skz
 1146 0108 EC 31 01 00             		 br	!!.L60
 377:../DGC_A230_Functions/DGC_A230_Motor_Functions.c **** 	{
 378:../DGC_A230_Functions/DGC_A230_Motor_Functions.c **** 		if (Leaf_No2_State == GATE_STATE_CLOSING_PAUSE)
 1147                             		.loc 1 378 0
 1148 010c 8F 00 00                		mov	a, !_Leaf_No2_State
 1149 010f 9D F0                   		mov	r8, a
 1150 0111 4A F0 07                		cmp	r8, #7
 1151 0114 61 E8                   		 skz
 1152 0116 EC 52 01 00             		 br	!!.L62
 379:../DGC_A230_Functions/DGC_A230_Motor_Functions.c **** 		{
 380:../DGC_A230_Functions/DGC_A230_Motor_Functions.c **** 			M2_Time_T4 += CFG_parameter.Addition_Time_After_INV;
 1153                             		.loc 1 380 0
 1154 011a AF 00 00                		movw	ax, !_CFG_parameter+44
 1155 011d BD F2                   		movw	r10, ax
 1156 011f AF 00 00                		movw	ax, !_M2_Time_T4
 1157 0122 BD F0                   		movw	r8, ax
 1158 0124 AD F2                   		movw	ax, r10
 1159 0126 06 F0                   		addw	ax, r8
 1160 0128 BD F0                   		movw	r8, ax
 1161 012a BF 00 00                		movw	!_M2_Time_T4, ax
 1162 012d EC 52 01 00             		br	!!.L62
 1163                             	.L60:
 381:../DGC_A230_Functions/DGC_A230_Motor_Functions.c **** 		}
 382:../DGC_A230_Functions/DGC_A230_Motor_Functions.c **** 	}
 383:../DGC_A230_Functions/DGC_A230_Motor_Functions.c **** 	else
 384:../DGC_A230_Functions/DGC_A230_Motor_Functions.c **** 	{
 385:../DGC_A230_Functions/DGC_A230_Motor_Functions.c **** 		if (Leaf_No2_State == GATE_STATE_OPENING_PAUSE)
 1164                             		.loc 1 385 0
 1165 0131 8F 00 00                		mov	a, !_Leaf_No2_State
 1166 0134 9D F0                   		mov	r8, a
 1167 0136 4A F0 06                		cmp	r8, #6
 1168 0139 61 E8                   		 skz
 1169 013b EC 52 01 00             		 br	!!.L62
 386:../DGC_A230_Functions/DGC_A230_Motor_Functions.c **** 		{
 387:../DGC_A230_Functions/DGC_A230_Motor_Functions.c **** 			M2_Time_T4 += CFG_parameter.Addition_Time_After_INV;
 1170                             		.loc 1 387 0
 1171 013f AF 00 00                		movw	ax, !_CFG_parameter+44
 1172 0142 BD F2                   		movw	r10, ax
 1173 0144 AF 00 00                		movw	ax, !_M2_Time_T4
 1174 0147 BD F0                   		movw	r8, ax
 1175 0149 AD F2                   		movw	ax, r10
 1176 014b 06 F0                   		addw	ax, r8
 1177 014d BD F0                   		movw	r8, ax
 1178 014f BF 00 00                		movw	!_M2_Time_T4, ax
 1179                             	.L62:
 388:../DGC_A230_Functions/DGC_A230_Motor_Functions.c **** 		}
 389:../DGC_A230_Functions/DGC_A230_Motor_Functions.c **** 	}
 390:../DGC_A230_Functions/DGC_A230_Motor_Functions.c **** 	if(CFG_parameter.Number_Of_Motors == 0x02)
 1180                             		.loc 1 390 0
 1181 0152 8F 00 00                		mov	a, !_CFG_parameter+1
 1182 0155 9D F0                   		mov	r8, a
 1183 0157 4A F0 02                		cmp	r8, #2
 1184 015a 61 E8                   		 skz
 1185 015c EC 6A 01 00             		 br	!!.L51
 391:../DGC_A230_Functions/DGC_A230_Motor_Functions.c **** 	{
 392:../DGC_A230_Functions/DGC_A230_Motor_Functions.c **** 		Setting_Courtesy_Light_and_Flash_Light(Moving_Direction);
 1186                             		.loc 1 392 0
 1187 0160 88 08                   		mov	a, [sp+8]
 1188 0162 9D F0                   		mov	r8, a
 1189 0164 98 00                   		mov	[sp], a
 1190 0166 FC 00 00 00             		call	!!%code(_Setting_Courtesy_Light_and_Flash_Light)
 1191                             	.L51:
 393:../DGC_A230_Functions/DGC_A230_Motor_Functions.c **** 	}
 394:../DGC_A230_Functions/DGC_A230_Motor_Functions.c **** }
 1192                             		.loc 1 394 0
 1193 016a 10 04                   		addw	sp, #4
 1194 016c D7                      		ret
 1195                             	.LFE11:
 1197                             		.section	.text.Prepare_To_Moving,"ax",@progbits
 1198                             		.global	_Prepare_To_Moving
 1200                             	_Prepare_To_Moving:
 1201                             	.LFB12:
 395:../DGC_A230_Functions/DGC_A230_Motor_Functions.c **** 
 396:../DGC_A230_Functions/DGC_A230_Motor_Functions.c **** 
 397:../DGC_A230_Functions/DGC_A230_Motor_Functions.c **** void Prepare_To_Moving(uint8_t Moving_Direction)
 398:../DGC_A230_Functions/DGC_A230_Motor_Functions.c **** {
 1202                             		.loc 1 398 0
 1203                             		; start of function
 1204                             		; locals: 4 bytes
 1205                             		; outgoing: 2 bytes
 1206                             		; uses ES register
 1207 0000 20 06                   		subw	sp, #6
 1208                             	.LCFI3:
 399:../DGC_A230_Functions/DGC_A230_Motor_Functions.c **** 	uint16_t M1_Running_Time, M2_Running_Time, Temp_Time;
 400:../DGC_A230_Functions/DGC_A230_Motor_Functions.c **** 
 401:../DGC_A230_Functions/DGC_A230_Motor_Functions.c **** 	Calculate_Torque_Parameter();
 1209                             		.loc 1 401 0
 1210 0002 FC 00 00 00             		call	!!%code(_Calculate_Torque_Parameter)
 402:../DGC_A230_Functions/DGC_A230_Motor_Functions.c **** 
 403:../DGC_A230_Functions/DGC_A230_Motor_Functions.c **** 	if (Moving_Direction == OPEN_MOVING_DIRECTION)
 1211                             		.loc 1 403 0
 1212 0006 88 0A                   		mov	a, [sp+10]
 1213 0008 D1                      		cmp0	a
 1214 0009 61 E8                   		 skz
 1215 000b EC 33 00 00             		 br	!!.L65
 404:../DGC_A230_Functions/DGC_A230_Motor_Functions.c **** 	{
 405:../DGC_A230_Functions/DGC_A230_Motor_Functions.c **** 		M1_Running_Time = CFG_parameter.M1_Total_Space - M1_Time_Position;
 1216                             		.loc 1 405 0
 1217 000f AF 00 00                		movw	ax, !_CFG_parameter+24
 1218 0012 BD F2                   		movw	r10, ax
 1219 0014 AF 00 00                		movw	ax, !_M1_Time_Position
 1220 0017 BD F0                   		movw	r8, ax
 1221 0019 AD F2                   		movw	ax, r10
 1222 001b 26 F0                   		subw	ax, r8
 1223 001d B8 04                   		movw	[sp+4], ax
 406:../DGC_A230_Functions/DGC_A230_Motor_Functions.c **** 		M2_Running_Time = CFG_parameter.M2_Total_Space - M2_Time_Position;
 1224                             		.loc 1 406 0
 1225 001f AF 00 00                		movw	ax, !_CFG_parameter+26
 1226 0022 BD F2                   		movw	r10, ax
 1227 0024 AF 00 00                		movw	ax, !_M2_Time_Position
 1228 0027 BD F0                   		movw	r8, ax
 1229 0029 AD F2                   		movw	ax, r10
 1230 002b 26 F0                   		subw	ax, r8
 1231 002d B8 02                   		movw	[sp+2], ax
 1232 002f EC 41 00 00             		br	!!.L66
 1233                             	.L65:
 407:../DGC_A230_Functions/DGC_A230_Motor_Functions.c **** 
 408:../DGC_A230_Functions/DGC_A230_Motor_Functions.c **** 	}
 409:../DGC_A230_Functions/DGC_A230_Motor_Functions.c **** 	else
 410:../DGC_A230_Functions/DGC_A230_Motor_Functions.c **** 	{
 411:../DGC_A230_Functions/DGC_A230_Motor_Functions.c **** 		M1_Running_Time = M1_Time_Position;
 1234                             		.loc 1 411 0
 1235 0033 AF 00 00                		movw	ax, !_M1_Time_Position
 1236 0036 BD F0                   		movw	r8, ax
 1237 0038 B8 04                   		movw	[sp+4], ax
 412:../DGC_A230_Functions/DGC_A230_Motor_Functions.c **** 		M2_Running_Time = M2_Time_Position;
 1238                             		.loc 1 412 0
 1239 003a AF 00 00                		movw	ax, !_M2_Time_Position
 1240 003d BD F0                   		movw	r8, ax
 1241 003f B8 02                   		movw	[sp+2], ax
 1242                             	.L66:
 413:../DGC_A230_Functions/DGC_A230_Motor_Functions.c **** 	}
 414:../DGC_A230_Functions/DGC_A230_Motor_Functions.c **** 
 415:../DGC_A230_Functions/DGC_A230_Motor_Functions.c **** 	/* Calculate Time point for time stamp*/
 416:../DGC_A230_Functions/DGC_A230_Motor_Functions.c **** 
 417:../DGC_A230_Functions/DGC_A230_Motor_Functions.c **** 	if (M1_Running_Time > CFG_parameter.M1_Deceleration_Space)
 1243                             		.loc 1 417 0
 1244 0041 AF 00 00                		movw	ax, !_CFG_parameter+30
 1245 0044 BD F2                   		movw	r10, ax
 1246 0046 A8 04                   		movw	ax, [sp+4]
 1247 0048 BD F0                   		movw	r8, ax
 1248 004a AD F2                   		movw	ax, r10
 1249 004c 46 F0                   		cmpw	ax, r8
 1250 004e 61 C8                   		 skc
 1251 0050 EC 01 01 00             		 br	!!.L67
 418:../DGC_A230_Functions/DGC_A230_Motor_Functions.c **** 	{
 419:../DGC_A230_Functions/DGC_A230_Motor_Functions.c **** 		M1_Time_T1 = CFG_parameter.Motor_Start_Time;
 1252                             		.loc 1 419 0
 1253 0054 AF 00 00                		movw	ax, !_CFG_parameter+4
 1254 0057 BD F0                   		movw	r8, ax
 1255 0059 BF 00 00                		movw	!_M1_Time_T1, ax
 420:../DGC_A230_Functions/DGC_A230_Motor_Functions.c **** 
 421:../DGC_A230_Functions/DGC_A230_Motor_Functions.c **** 		M1_Running_Time -= CFG_parameter.M1_Deceleration_Space;
 1256                             		.loc 1 421 0
 1257 005c AF 00 00                		movw	ax, !_CFG_parameter+30
 1258 005f BD F0                   		movw	r8, ax
 1259 0061 A8 04                   		movw	ax, [sp+4]
 1260 0063 26 F0                   		subw	ax, r8
 1261 0065 B8 04                   		movw	[sp+4], ax
 422:../DGC_A230_Functions/DGC_A230_Motor_Functions.c **** 		if (M1_Running_Time > CFG_parameter.M1_Maneuver_Space)
 1262                             		.loc 1 422 0
 1263 0067 AF 00 00                		movw	ax, !_CFG_parameter+34
 1264 006a BD F2                   		movw	r10, ax
 1265 006c A8 04                   		movw	ax, [sp+4]
 1266 006e BD F0                   		movw	r8, ax
 1267 0070 AD F2                   		movw	ax, r10
 1268 0072 46 F0                   		cmpw	ax, r8
 1269 0074 61 C8                   		 skc
 1270 0076 EC DF 00 00             		 br	!!.L68
 423:../DGC_A230_Functions/DGC_A230_Motor_Functions.c **** 		{
 424:../DGC_A230_Functions/DGC_A230_Motor_Functions.c **** 			M1_Running_Time -= CFG_parameter.M1_Maneuver_Space;
 1271                             		.loc 1 424 0
 1272 007a AF 00 00                		movw	ax, !_CFG_parameter+34
 1273 007d BD F0                   		movw	r8, ax
 1274 007f A8 04                   		movw	ax, [sp+4]
 1275 0081 26 F0                   		subw	ax, r8
 1276 0083 B8 04                   		movw	[sp+4], ax
 425:../DGC_A230_Functions/DGC_A230_Motor_Functions.c **** 			if (M1_Running_Time > CFG_parameter.Motor_Maximum_Boost_Time*3)
 1277                             		.loc 1 425 0
 1278 0085 AF 00 00                		movw	ax, !_CFG_parameter+6
 1279 0088 BD F2                   		movw	r10, ax
 1280 008a BD F0                   		movw	r8, ax
 1281 008c 01                      		addw	ax, ax
 1282 008d BD F0                   		movw	r8, ax
 1283 008f 06 F2                   		addw	ax, r10
 1284 0091 BD F2                   		movw	r10, ax
 1285 0093 A8 04                   		movw	ax, [sp+4]
 1286 0095 BD F0                   		movw	r8, ax
 1287 0097 AD F2                   		movw	ax, r10
 1288 0099 46 F0                   		cmpw	ax, r8
 1289 009b 61 C8                   		 skc
 1290 009d EC C1 00 00             		 br	!!.L69
 426:../DGC_A230_Functions/DGC_A230_Motor_Functions.c **** 			{
 427:../DGC_A230_Functions/DGC_A230_Motor_Functions.c **** 				M1_Time_T2 = M1_Time_T1 + CFG_parameter.Motor_Maximum_Boost_Time*3;
 1291                             		.loc 1 427 0
 1292 00a1 AF 00 00                		movw	ax, !_CFG_parameter+6
 1293 00a4 BD F2                   		movw	r10, ax
 1294 00a6 BD F0                   		movw	r8, ax
 1295 00a8 01                      		addw	ax, ax
 1296 00a9 BD F0                   		movw	r8, ax
 1297 00ab 06 F2                   		addw	ax, r10
 1298 00ad BD F2                   		movw	r10, ax
 1299 00af AF 00 00                		movw	ax, !_M1_Time_T1
 1300 00b2 BD F0                   		movw	r8, ax
 1301 00b4 AD F2                   		movw	ax, r10
 1302 00b6 06 F0                   		addw	ax, r8
 1303 00b8 BD F0                   		movw	r8, ax
 1304 00ba BF 00 00                		movw	!_M1_Time_T2, ax
 1305 00bd EC C8 00 00             		br	!!.L70
 1306                             	.L69:
 428:../DGC_A230_Functions/DGC_A230_Motor_Functions.c **** 			}
 429:../DGC_A230_Functions/DGC_A230_Motor_Functions.c **** 			else
 430:../DGC_A230_Functions/DGC_A230_Motor_Functions.c **** 			{
 431:../DGC_A230_Functions/DGC_A230_Motor_Functions.c **** 				M1_Time_T2 = M1_Running_Time;
 1307                             		.loc 1 431 0
 1308 00c1 A8 04                   		movw	ax, [sp+4]
 1309 00c3 BD F0                   		movw	r8, ax
 1310 00c5 BF 00 00                		movw	!_M1_Time_T2, ax
 1311                             	.L70:
 432:../DGC_A230_Functions/DGC_A230_Motor_Functions.c **** 			}
 433:../DGC_A230_Functions/DGC_A230_Motor_Functions.c **** 
 434:../DGC_A230_Functions/DGC_A230_Motor_Functions.c **** 			M1_Time_T3 = M1_Time_T2 + CFG_parameter.M1_Maneuver_Space;
 1312                             		.loc 1 434 0
 1313 00c8 AF 00 00                		movw	ax, !_CFG_parameter+34
 1314 00cb BD F2                   		movw	r10, ax
 1315 00cd AF 00 00                		movw	ax, !_M1_Time_T2
 1316 00d0 BD F0                   		movw	r8, ax
 1317 00d2 AD F2                   		movw	ax, r10
 1318 00d4 06 F0                   		addw	ax, r8
 1319 00d6 BD F0                   		movw	r8, ax
 1320 00d8 BF 00 00                		movw	!_M1_Time_T3, ax
 1321 00db EC EA 00 00             		br	!!.L71
 1322                             	.L68:
 435:../DGC_A230_Functions/DGC_A230_Motor_Functions.c **** 		}
 436:../DGC_A230_Functions/DGC_A230_Motor_Functions.c **** 		else
 437:../DGC_A230_Functions/DGC_A230_Motor_Functions.c **** 		{
 438:../DGC_A230_Functions/DGC_A230_Motor_Functions.c **** 			M1_Time_T2 = 0;
 1323                             		.loc 1 438 0
 1324 00df F6                      		clrw	ax
 1325 00e0 BF 00 00                		movw	!_M1_Time_T2, ax
 439:../DGC_A230_Functions/DGC_A230_Motor_Functions.c **** 			M1_Time_T3 = M1_Running_Time;
 1326                             		.loc 1 439 0
 1327 00e3 A8 04                   		movw	ax, [sp+4]
 1328 00e5 BD F0                   		movw	r8, ax
 1329 00e7 BF 00 00                		movw	!_M1_Time_T3, ax
 1330                             	.L71:
 440:../DGC_A230_Functions/DGC_A230_Motor_Functions.c **** 		}
 441:../DGC_A230_Functions/DGC_A230_Motor_Functions.c **** 
 442:../DGC_A230_Functions/DGC_A230_Motor_Functions.c **** 		M1_Time_T4 = M1_Time_T3 + CFG_parameter.M1_Deceleration_Space;
 1331                             		.loc 1 442 0
 1332 00ea AF 00 00                		movw	ax, !_CFG_parameter+30
 1333 00ed BD F2                   		movw	r10, ax
 1334 00ef AF 00 00                		movw	ax, !_M1_Time_T3
 1335 00f2 BD F0                   		movw	r8, ax
 1336 00f4 AD F2                   		movw	ax, r10
 1337 00f6 06 F0                   		addw	ax, r8
 1338 00f8 BD F0                   		movw	r8, ax
 1339 00fa BF 00 00                		movw	!_M1_Time_T4, ax
 1340 00fd EC 1A 01 00             		br	!!.L72
 1341                             	.L67:
 443:../DGC_A230_Functions/DGC_A230_Motor_Functions.c **** 	}
 444:../DGC_A230_Functions/DGC_A230_Motor_Functions.c **** 	else
 445:../DGC_A230_Functions/DGC_A230_Motor_Functions.c **** 	{
 446:../DGC_A230_Functions/DGC_A230_Motor_Functions.c **** 		M1_Time_T1 = 0;
 1342                             		.loc 1 446 0
 1343 0101 F6                      		clrw	ax
 1344 0102 BF 00 00                		movw	!_M1_Time_T1, ax
 447:../DGC_A230_Functions/DGC_A230_Motor_Functions.c **** 		M1_Time_T2 = M1_Time_T1 + 0;
 1345                             		.loc 1 447 0
 1346 0105 BD F0                   		movw	r8, ax
 1347 0107 BF 00 00                		movw	!_M1_Time_T2, ax
 448:../DGC_A230_Functions/DGC_A230_Motor_Functions.c **** 		M1_Time_T3 = M1_Time_T2 + 0;
 1348                             		.loc 1 448 0
 1349 010a BD F0                   		movw	r8, ax
 1350 010c BF 00 00                		movw	!_M1_Time_T3, ax
 449:../DGC_A230_Functions/DGC_A230_Motor_Functions.c **** 		M1_Time_T4 = M1_Time_T3 + M1_Running_Time;
 1351                             		.loc 1 449 0
 1352 010f BD F0                   		movw	r8, ax
 1353 0111 A8 04                   		movw	ax, [sp+4]
 1354 0113 06 F0                   		addw	ax, r8
 1355 0115 BD F0                   		movw	r8, ax
 1356 0117 BF 00 00                		movw	!_M1_Time_T4, ax
 1357                             	.L72:
 450:../DGC_A230_Functions/DGC_A230_Motor_Functions.c **** 	}
 451:../DGC_A230_Functions/DGC_A230_Motor_Functions.c **** 
 452:../DGC_A230_Functions/DGC_A230_Motor_Functions.c **** 
 453:../DGC_A230_Functions/DGC_A230_Motor_Functions.c **** 	if (M2_Running_Time > CFG_parameter.M2_Deceleration_Space)
 1358                             		.loc 1 453 0
 1359 011a AF 00 00                		movw	ax, !_CFG_parameter+32
 1360 011d BD F2                   		movw	r10, ax
 1361 011f A8 02                   		movw	ax, [sp+2]
 1362 0121 BD F0                   		movw	r8, ax
 1363 0123 AD F2                   		movw	ax, r10
 1364 0125 46 F0                   		cmpw	ax, r8
 1365 0127 61 C8                   		 skc
 1366 0129 EC DA 01 00             		 br	!!.L73
 454:../DGC_A230_Functions/DGC_A230_Motor_Functions.c **** 	{
 455:../DGC_A230_Functions/DGC_A230_Motor_Functions.c **** 		M2_Time_T1 = CFG_parameter.Motor_Start_Time;
 1367                             		.loc 1 455 0
 1368 012d AF 00 00                		movw	ax, !_CFG_parameter+4
 1369 0130 BD F0                   		movw	r8, ax
 1370 0132 BF 00 00                		movw	!_M2_Time_T1, ax
 456:../DGC_A230_Functions/DGC_A230_Motor_Functions.c **** 		M2_Running_Time -= CFG_parameter.M2_Deceleration_Space;
 1371                             		.loc 1 456 0
 1372 0135 AF 00 00                		movw	ax, !_CFG_parameter+32
 1373 0138 BD F0                   		movw	r8, ax
 1374 013a A8 02                   		movw	ax, [sp+2]
 1375 013c 26 F0                   		subw	ax, r8
 1376 013e B8 02                   		movw	[sp+2], ax
 457:../DGC_A230_Functions/DGC_A230_Motor_Functions.c **** 		if (M2_Running_Time > CFG_parameter.M2_Maneuver_Space)
 1377                             		.loc 1 457 0
 1378 0140 AF 00 00                		movw	ax, !_CFG_parameter+36
 1379 0143 BD F2                   		movw	r10, ax
 1380 0145 A8 02                   		movw	ax, [sp+2]
 1381 0147 BD F0                   		movw	r8, ax
 1382 0149 AD F2                   		movw	ax, r10
 1383 014b 46 F0                   		cmpw	ax, r8
 1384 014d 61 C8                   		 skc
 1385 014f EC B8 01 00             		 br	!!.L74
 458:../DGC_A230_Functions/DGC_A230_Motor_Functions.c **** 		{
 459:../DGC_A230_Functions/DGC_A230_Motor_Functions.c **** 			M2_Running_Time -= CFG_parameter.M2_Maneuver_Space;
 1386                             		.loc 1 459 0
 1387 0153 AF 00 00                		movw	ax, !_CFG_parameter+36
 1388 0156 BD F0                   		movw	r8, ax
 1389 0158 A8 02                   		movw	ax, [sp+2]
 1390 015a 26 F0                   		subw	ax, r8
 1391 015c B8 02                   		movw	[sp+2], ax
 460:../DGC_A230_Functions/DGC_A230_Motor_Functions.c **** 			if (M2_Running_Time > CFG_parameter.Motor_Maximum_Boost_Time*3)
 1392                             		.loc 1 460 0
 1393 015e AF 00 00                		movw	ax, !_CFG_parameter+6
 1394 0161 BD F2                   		movw	r10, ax
 1395 0163 BD F0                   		movw	r8, ax
 1396 0165 01                      		addw	ax, ax
 1397 0166 BD F0                   		movw	r8, ax
 1398 0168 06 F2                   		addw	ax, r10
 1399 016a BD F2                   		movw	r10, ax
 1400 016c A8 02                   		movw	ax, [sp+2]
 1401 016e BD F0                   		movw	r8, ax
 1402 0170 AD F2                   		movw	ax, r10
 1403 0172 46 F0                   		cmpw	ax, r8
 1404 0174 61 C8                   		 skc
 1405 0176 EC 9A 01 00             		 br	!!.L75
 461:../DGC_A230_Functions/DGC_A230_Motor_Functions.c **** 			{
 462:../DGC_A230_Functions/DGC_A230_Motor_Functions.c **** 				M2_Time_T2 = M2_Time_T1 + CFG_parameter.Motor_Maximum_Boost_Time*3;
 1406                             		.loc 1 462 0
 1407 017a AF 00 00                		movw	ax, !_CFG_parameter+6
 1408 017d BD F2                   		movw	r10, ax
 1409 017f BD F0                   		movw	r8, ax
 1410 0181 01                      		addw	ax, ax
 1411 0182 BD F0                   		movw	r8, ax
 1412 0184 06 F2                   		addw	ax, r10
 1413 0186 BD F2                   		movw	r10, ax
 1414 0188 AF 00 00                		movw	ax, !_M2_Time_T1
 1415 018b BD F0                   		movw	r8, ax
 1416 018d AD F2                   		movw	ax, r10
 1417 018f 06 F0                   		addw	ax, r8
 1418 0191 BD F0                   		movw	r8, ax
 1419 0193 BF 00 00                		movw	!_M2_Time_T2, ax
 1420 0196 EC A1 01 00             		br	!!.L76
 1421                             	.L75:
 463:../DGC_A230_Functions/DGC_A230_Motor_Functions.c **** 			}
 464:../DGC_A230_Functions/DGC_A230_Motor_Functions.c **** 			else
 465:../DGC_A230_Functions/DGC_A230_Motor_Functions.c **** 			{
 466:../DGC_A230_Functions/DGC_A230_Motor_Functions.c **** 				M2_Time_T2 = M2_Running_Time;
 1422                             		.loc 1 466 0
 1423 019a A8 02                   		movw	ax, [sp+2]
 1424 019c BD F0                   		movw	r8, ax
 1425 019e BF 00 00                		movw	!_M2_Time_T2, ax
 1426                             	.L76:
 467:../DGC_A230_Functions/DGC_A230_Motor_Functions.c **** 			}
 468:../DGC_A230_Functions/DGC_A230_Motor_Functions.c **** 
 469:../DGC_A230_Functions/DGC_A230_Motor_Functions.c **** 			M2_Time_T3 = M2_Time_T2 + CFG_parameter.M2_Maneuver_Space;
 1427                             		.loc 1 469 0
 1428 01a1 AF 00 00                		movw	ax, !_CFG_parameter+36
 1429 01a4 BD F2                   		movw	r10, ax
 1430 01a6 AF 00 00                		movw	ax, !_M2_Time_T2
 1431 01a9 BD F0                   		movw	r8, ax
 1432 01ab AD F2                   		movw	ax, r10
 1433 01ad 06 F0                   		addw	ax, r8
 1434 01af BD F0                   		movw	r8, ax
 1435 01b1 BF 00 00                		movw	!_M2_Time_T3, ax
 1436 01b4 EC C3 01 00             		br	!!.L77
 1437                             	.L74:
 470:../DGC_A230_Functions/DGC_A230_Motor_Functions.c **** 		}
 471:../DGC_A230_Functions/DGC_A230_Motor_Functions.c **** 		else
 472:../DGC_A230_Functions/DGC_A230_Motor_Functions.c **** 		{
 473:../DGC_A230_Functions/DGC_A230_Motor_Functions.c **** 			M2_Time_T2 = 0;
 1438                             		.loc 1 473 0
 1439 01b8 F6                      		clrw	ax
 1440 01b9 BF 00 00                		movw	!_M2_Time_T2, ax
 474:../DGC_A230_Functions/DGC_A230_Motor_Functions.c **** 			M2_Time_T3 = M2_Running_Time;
 1441                             		.loc 1 474 0
 1442 01bc A8 02                   		movw	ax, [sp+2]
 1443 01be BD F0                   		movw	r8, ax
 1444 01c0 BF 00 00                		movw	!_M2_Time_T3, ax
 1445                             	.L77:
 475:../DGC_A230_Functions/DGC_A230_Motor_Functions.c **** 		}
 476:../DGC_A230_Functions/DGC_A230_Motor_Functions.c **** 
 477:../DGC_A230_Functions/DGC_A230_Motor_Functions.c **** 		M2_Time_T4 = M2_Time_T3 + CFG_parameter.M2_Deceleration_Space;
 1446                             		.loc 1 477 0
 1447 01c3 AF 00 00                		movw	ax, !_CFG_parameter+32
 1448 01c6 BD F2                   		movw	r10, ax
 1449 01c8 AF 00 00                		movw	ax, !_M2_Time_T3
 1450 01cb BD F0                   		movw	r8, ax
 1451 01cd AD F2                   		movw	ax, r10
 1452 01cf 06 F0                   		addw	ax, r8
 1453 01d1 BD F0                   		movw	r8, ax
 1454 01d3 BF 00 00                		movw	!_M2_Time_T4, ax
 1455 01d6 EC F3 01 00             		br	!!.L78
 1456                             	.L73:
 478:../DGC_A230_Functions/DGC_A230_Motor_Functions.c **** 	}
 479:../DGC_A230_Functions/DGC_A230_Motor_Functions.c **** 	else
 480:../DGC_A230_Functions/DGC_A230_Motor_Functions.c **** 	{
 481:../DGC_A230_Functions/DGC_A230_Motor_Functions.c **** 		M2_Time_T1 = 0;
 1457                             		.loc 1 481 0
 1458 01da F6                      		clrw	ax
 1459 01db BF 00 00                		movw	!_M2_Time_T1, ax
 482:../DGC_A230_Functions/DGC_A230_Motor_Functions.c **** 		M2_Time_T2 = M2_Time_T1 + 0;
 1460                             		.loc 1 482 0
 1461 01de BD F0                   		movw	r8, ax
 1462 01e0 BF 00 00                		movw	!_M2_Time_T2, ax
 483:../DGC_A230_Functions/DGC_A230_Motor_Functions.c **** 		M2_Time_T3 = M2_Time_T2 + 0;
 1463                             		.loc 1 483 0
 1464 01e3 BD F0                   		movw	r8, ax
 1465 01e5 BF 00 00                		movw	!_M2_Time_T3, ax
 484:../DGC_A230_Functions/DGC_A230_Motor_Functions.c **** 		M2_Time_T4 = M2_Time_T3 + M2_Running_Time;
 1466                             		.loc 1 484 0
 1467 01e8 BD F0                   		movw	r8, ax
 1468 01ea A8 02                   		movw	ax, [sp+2]
 1469 01ec 06 F0                   		addw	ax, r8
 1470 01ee BD F0                   		movw	r8, ax
 1471 01f0 BF 00 00                		movw	!_M2_Time_T4, ax
 1472                             	.L78:
 485:../DGC_A230_Functions/DGC_A230_Motor_Functions.c **** 	}
 486:../DGC_A230_Functions/DGC_A230_Motor_Functions.c **** 
 487:../DGC_A230_Functions/DGC_A230_Motor_Functions.c **** 	if (Moving_Direction == OPEN_MOVING_DIRECTION)
 1473                             		.loc 1 487 0
 1474 01f3 88 0A                   		mov	a, [sp+10]
 1475 01f5 D1                      		cmp0	a
 1476 01f6 61 E8                   		 skz
 1477 01f8 EC 42 02 00             		 br	!!.L79
 488:../DGC_A230_Functions/DGC_A230_Motor_Functions.c **** 	{
 489:../DGC_A230_Functions/DGC_A230_Motor_Functions.c **** 		if (Leaf_No1_State == GATE_STATE_CLOSING_PAUSE)
 1478                             		.loc 1 489 0
 1479 01fc 8F 00 00                		mov	a, !_Leaf_No1_State
 1480 01ff 9D F0                   		mov	r8, a
 1481 0201 4A F0 07                		cmp	r8, #7
 1482 0204 61 E8                   		 skz
 1483 0206 EC 1D 02 00             		 br	!!.L80
 490:../DGC_A230_Functions/DGC_A230_Motor_Functions.c **** 		{
 491:../DGC_A230_Functions/DGC_A230_Motor_Functions.c **** 			M1_Time_T4 += CFG_parameter.Addition_Time_After_INV;
 1484                             		.loc 1 491 0
 1485 020a AF 00 00                		movw	ax, !_CFG_parameter+44
 1486 020d BD F2                   		movw	r10, ax
 1487 020f AF 00 00                		movw	ax, !_M1_Time_T4
 1488 0212 BD F0                   		movw	r8, ax
 1489 0214 AD F2                   		movw	ax, r10
 1490 0216 06 F0                   		addw	ax, r8
 1491 0218 BD F0                   		movw	r8, ax
 1492 021a BF 00 00                		movw	!_M1_Time_T4, ax
 1493                             	.L80:
 492:../DGC_A230_Functions/DGC_A230_Motor_Functions.c **** 
 493:../DGC_A230_Functions/DGC_A230_Motor_Functions.c **** 		}
 494:../DGC_A230_Functions/DGC_A230_Motor_Functions.c **** 
 495:../DGC_A230_Functions/DGC_A230_Motor_Functions.c **** 		if (Leaf_No2_State == GATE_STATE_CLOSING_PAUSE)
 1494                             		.loc 1 495 0
 1495 021d 8F 00 00                		mov	a, !_Leaf_No2_State
 1496 0220 9D F0                   		mov	r8, a
 1497 0222 4A F0 07                		cmp	r8, #7
 1498 0225 61 E8                   		 skz
 1499 0227 EC 84 02 00             		 br	!!.L82
 496:../DGC_A230_Functions/DGC_A230_Motor_Functions.c **** 		{
 497:../DGC_A230_Functions/DGC_A230_Motor_Functions.c **** 			M2_Time_T4 += CFG_parameter.Addition_Time_After_INV;
 1500                             		.loc 1 497 0
 1501 022b AF 00 00                		movw	ax, !_CFG_parameter+44
 1502 022e BD F2                   		movw	r10, ax
 1503 0230 AF 00 00                		movw	ax, !_M2_Time_T4
 1504 0233 BD F0                   		movw	r8, ax
 1505 0235 AD F2                   		movw	ax, r10
 1506 0237 06 F0                   		addw	ax, r8
 1507 0239 BD F0                   		movw	r8, ax
 1508 023b BF 00 00                		movw	!_M2_Time_T4, ax
 1509 023e EC 84 02 00             		br	!!.L82
 1510                             	.L79:
 498:../DGC_A230_Functions/DGC_A230_Motor_Functions.c **** 		}
 499:../DGC_A230_Functions/DGC_A230_Motor_Functions.c **** 	}
 500:../DGC_A230_Functions/DGC_A230_Motor_Functions.c **** 	else
 501:../DGC_A230_Functions/DGC_A230_Motor_Functions.c **** 	{
 502:../DGC_A230_Functions/DGC_A230_Motor_Functions.c **** 		if (Leaf_No1_State == GATE_STATE_OPENING_PAUSE)
 1511                             		.loc 1 502 0
 1512 0242 8F 00 00                		mov	a, !_Leaf_No1_State
 1513 0245 9D F0                   		mov	r8, a
 1514 0247 4A F0 06                		cmp	r8, #6
 1515 024a 61 E8                   		 skz
 1516 024c EC 63 02 00             		 br	!!.L83
 503:../DGC_A230_Functions/DGC_A230_Motor_Functions.c **** 		{
 504:../DGC_A230_Functions/DGC_A230_Motor_Functions.c **** 			M1_Time_T4 += CFG_parameter.Addition_Time_After_INV;
 1517                             		.loc 1 504 0
 1518 0250 AF 00 00                		movw	ax, !_CFG_parameter+44
 1519 0253 BD F2                   		movw	r10, ax
 1520 0255 AF 00 00                		movw	ax, !_M1_Time_T4
 1521 0258 BD F0                   		movw	r8, ax
 1522 025a AD F2                   		movw	ax, r10
 1523 025c 06 F0                   		addw	ax, r8
 1524 025e BD F0                   		movw	r8, ax
 1525 0260 BF 00 00                		movw	!_M1_Time_T4, ax
 1526                             	.L83:
 505:../DGC_A230_Functions/DGC_A230_Motor_Functions.c **** 		}
 506:../DGC_A230_Functions/DGC_A230_Motor_Functions.c **** 
 507:../DGC_A230_Functions/DGC_A230_Motor_Functions.c **** 		if (Leaf_No2_State == GATE_STATE_OPENING_PAUSE)
 1527                             		.loc 1 507 0
 1528 0263 8F 00 00                		mov	a, !_Leaf_No2_State
 1529 0266 9D F0                   		mov	r8, a
 1530 0268 4A F0 06                		cmp	r8, #6
 1531 026b 61 E8                   		 skz
 1532 026d EC 84 02 00             		 br	!!.L82
 508:../DGC_A230_Functions/DGC_A230_Motor_Functions.c **** 		{
 509:../DGC_A230_Functions/DGC_A230_Motor_Functions.c **** 			M2_Time_T4 += CFG_parameter.Addition_Time_After_INV;
 1533                             		.loc 1 509 0
 1534 0271 AF 00 00                		movw	ax, !_CFG_parameter+44
 1535 0274 BD F2                   		movw	r10, ax
 1536 0276 AF 00 00                		movw	ax, !_M2_Time_T4
 1537 0279 BD F0                   		movw	r8, ax
 1538 027b AD F2                   		movw	ax, r10
 1539 027d 06 F0                   		addw	ax, r8
 1540 027f BD F0                   		movw	r8, ax
 1541 0281 BF 00 00                		movw	!_M2_Time_T4, ax
 1542                             	.L82:
 510:../DGC_A230_Functions/DGC_A230_Motor_Functions.c **** 		}
 511:../DGC_A230_Functions/DGC_A230_Motor_Functions.c **** 	}
 512:../DGC_A230_Functions/DGC_A230_Motor_Functions.c **** 
 513:../DGC_A230_Functions/DGC_A230_Motor_Functions.c **** //	M2_Time_T1 = CFG_parameter.Motor_Start_Time;
 514:../DGC_A230_Functions/DGC_A230_Motor_Functions.c **** //	M2_Time_T2 = M2_Time_T1 + CFG_parameter.Motor_Maximum_Boost_Time;
 515:../DGC_A230_Functions/DGC_A230_Motor_Functions.c **** //	M2_Time_T3 = M2_Time_T2 + (M2_Running_Time / 100) * (100 - CFG_parameter.M2_Deceleration_Space);
 516:../DGC_A230_Functions/DGC_A230_Motor_Functions.c **** //	M2_Time_T4 = M2_Time_T3 + (M2_Running_Time / 100) * CFG_parameter.M2_Deceleration_Space;
 517:../DGC_A230_Functions/DGC_A230_Motor_Functions.c **** 
 518:../DGC_A230_Functions/DGC_A230_Motor_Functions.c **** 	Setting_Courtesy_Light_and_Flash_Light(Moving_Direction);
 1543                             		.loc 1 518 0
 1544 0284 88 0A                   		mov	a, [sp+10]
 1545 0286 9D F0                   		mov	r8, a
 1546 0288 98 00                   		mov	[sp], a
 1547 028a FC 00 00 00             		call	!!%code(_Setting_Courtesy_Light_and_Flash_Light)
 519:../DGC_A230_Functions/DGC_A230_Motor_Functions.c **** }
 1548                             		.loc 1 519 0
 1549 028e 10 06                   		addw	sp, #6
 1550 0290 D7                      		ret
 1551                             	.LFE12:
 1553                             		.section	.text.Prepare_To_Partial_Moving,"ax",@progbits
 1554                             		.global	_Prepare_To_Partial_Moving
 1556                             	_Prepare_To_Partial_Moving:
 1557                             	.LFB13:
 520:../DGC_A230_Functions/DGC_A230_Motor_Functions.c **** 
 521:../DGC_A230_Functions/DGC_A230_Motor_Functions.c **** void Prepare_To_Partial_Moving(uint8_t Moving_Direction)
 522:../DGC_A230_Functions/DGC_A230_Motor_Functions.c **** {
 1558                             		.loc 1 522 0
 1559                             		; start of function
 1560                             		; locals: 2 bytes
 1561                             		; outgoing: 2 bytes
 1562                             		; uses ES register
 1563 0000 20 04                   		subw	sp, #4
 1564                             	.LCFI4:
 523:../DGC_A230_Functions/DGC_A230_Motor_Functions.c **** 	uint16_t M1_Running_Time, Temp_Time;
 524:../DGC_A230_Functions/DGC_A230_Motor_Functions.c **** 
 525:../DGC_A230_Functions/DGC_A230_Motor_Functions.c **** 	Calculate_Torque_Parameter_Motor1();
 1565                             		.loc 1 525 0
 1566 0002 FC 00 00 00             		call	!!%code(_Calculate_Torque_Parameter_Motor1)
 526:../DGC_A230_Functions/DGC_A230_Motor_Functions.c **** 
 527:../DGC_A230_Functions/DGC_A230_Motor_Functions.c **** 	if (CFG_parameter.Number_Of_Motors == 0x02)
 1567                             		.loc 1 527 0
 1568 0006 8F 00 00                		mov	a, !_CFG_parameter+1
 1569 0009 9D F0                   		mov	r8, a
 1570 000b 4A F0 02                		cmp	r8, #2
 1571 000e 61 E8                   		 skz
 1572 0010 EC 64 01 00             		 br	!!.L85
 528:../DGC_A230_Functions/DGC_A230_Motor_Functions.c **** 	{
 529:../DGC_A230_Functions/DGC_A230_Motor_Functions.c **** 		/* Calculate Time point for time stamp*/
 530:../DGC_A230_Functions/DGC_A230_Motor_Functions.c **** 		if (Moving_Direction == OPEN_MOVING_DIRECTION)
 1573                             		.loc 1 530 0
 1574 0014 88 08                   		mov	a, [sp+8]
 1575 0016 D1                      		cmp0	a
 1576 0017 61 E8                   		 skz
 1577 0019 EC 31 00 00             		 br	!!.L86
 531:../DGC_A230_Functions/DGC_A230_Motor_Functions.c **** 		{
 532:../DGC_A230_Functions/DGC_A230_Motor_Functions.c **** 			M1_Running_Time = CFG_parameter.M1_Partial_Space - M1_Time_Position;
 1578                             		.loc 1 532 0
 1579 001d AF 00 00                		movw	ax, !_CFG_parameter+28
 1580 0020 BD F2                   		movw	r10, ax
 1581 0022 AF 00 00                		movw	ax, !_M1_Time_Position
 1582 0025 BD F0                   		movw	r8, ax
 1583 0027 AD F2                   		movw	ax, r10
 1584 0029 26 F0                   		subw	ax, r8
 1585 002b B8 02                   		movw	[sp+2], ax
 1586 002d EC 38 00 00             		br	!!.L87
 1587                             	.L86:
 533:../DGC_A230_Functions/DGC_A230_Motor_Functions.c **** 		}
 534:../DGC_A230_Functions/DGC_A230_Motor_Functions.c **** 		else
 535:../DGC_A230_Functions/DGC_A230_Motor_Functions.c **** 		{
 536:../DGC_A230_Functions/DGC_A230_Motor_Functions.c **** 			M1_Running_Time = M1_Time_Position;
 1588                             		.loc 1 536 0
 1589 0031 AF 00 00                		movw	ax, !_M1_Time_Position
 1590 0034 BD F0                   		movw	r8, ax
 1591 0036 B8 02                   		movw	[sp+2], ax
 1592                             	.L87:
 537:../DGC_A230_Functions/DGC_A230_Motor_Functions.c **** 		}
 538:../DGC_A230_Functions/DGC_A230_Motor_Functions.c **** 
 539:../DGC_A230_Functions/DGC_A230_Motor_Functions.c **** 		if (M1_Running_Time > CFG_parameter.M1_Deceleration_Space)
 1593                             		.loc 1 539 0
 1594 0038 AF 00 00                		movw	ax, !_CFG_parameter+30
 1595 003b BD F2                   		movw	r10, ax
 1596 003d A8 02                   		movw	ax, [sp+2]
 1597 003f BD F0                   		movw	r8, ax
 1598 0041 AD F2                   		movw	ax, r10
 1599 0043 46 F0                   		cmpw	ax, r8
 1600 0045 61 C8                   		 skc
 1601 0047 EC F8 00 00             		 br	!!.L88
 540:../DGC_A230_Functions/DGC_A230_Motor_Functions.c **** 		{
 541:../DGC_A230_Functions/DGC_A230_Motor_Functions.c **** 			M1_Time_T1 = CFG_parameter.Motor_Start_Time;
 1602                             		.loc 1 541 0
 1603 004b AF 00 00                		movw	ax, !_CFG_parameter+4
 1604 004e BD F0                   		movw	r8, ax
 1605 0050 BF 00 00                		movw	!_M1_Time_T1, ax
 542:../DGC_A230_Functions/DGC_A230_Motor_Functions.c **** 			M1_Running_Time -= CFG_parameter.M1_Deceleration_Space;
 1606                             		.loc 1 542 0
 1607 0053 AF 00 00                		movw	ax, !_CFG_parameter+30
 1608 0056 BD F0                   		movw	r8, ax
 1609 0058 A8 02                   		movw	ax, [sp+2]
 1610 005a 26 F0                   		subw	ax, r8
 1611 005c B8 02                   		movw	[sp+2], ax
 543:../DGC_A230_Functions/DGC_A230_Motor_Functions.c **** 			if (M1_Running_Time > CFG_parameter.M1_Maneuver_Space)
 1612                             		.loc 1 543 0
 1613 005e AF 00 00                		movw	ax, !_CFG_parameter+34
 1614 0061 BD F2                   		movw	r10, ax
 1615 0063 A8 02                   		movw	ax, [sp+2]
 1616 0065 BD F0                   		movw	r8, ax
 1617 0067 AD F2                   		movw	ax, r10
 1618 0069 46 F0                   		cmpw	ax, r8
 1619 006b 61 C8                   		 skc
 1620 006d EC D6 00 00             		 br	!!.L89
 544:../DGC_A230_Functions/DGC_A230_Motor_Functions.c **** 			{
 545:../DGC_A230_Functions/DGC_A230_Motor_Functions.c **** 				M1_Running_Time -= CFG_parameter.M1_Maneuver_Space;
 1621                             		.loc 1 545 0
 1622 0071 AF 00 00                		movw	ax, !_CFG_parameter+34
 1623 0074 BD F0                   		movw	r8, ax
 1624 0076 A8 02                   		movw	ax, [sp+2]
 1625 0078 26 F0                   		subw	ax, r8
 1626 007a B8 02                   		movw	[sp+2], ax
 546:../DGC_A230_Functions/DGC_A230_Motor_Functions.c **** 				if (M1_Running_Time > CFG_parameter.Motor_Maximum_Boost_Time*3)
 1627                             		.loc 1 546 0
 1628 007c AF 00 00                		movw	ax, !_CFG_parameter+6
 1629 007f BD F2                   		movw	r10, ax
 1630 0081 BD F0                   		movw	r8, ax
 1631 0083 01                      		addw	ax, ax
 1632 0084 BD F0                   		movw	r8, ax
 1633 0086 06 F2                   		addw	ax, r10
 1634 0088 BD F2                   		movw	r10, ax
 1635 008a A8 02                   		movw	ax, [sp+2]
 1636 008c BD F0                   		movw	r8, ax
 1637 008e AD F2                   		movw	ax, r10
 1638 0090 46 F0                   		cmpw	ax, r8
 1639 0092 61 C8                   		 skc
 1640 0094 EC B8 00 00             		 br	!!.L90
 547:../DGC_A230_Functions/DGC_A230_Motor_Functions.c **** 				{
 548:../DGC_A230_Functions/DGC_A230_Motor_Functions.c **** 					M1_Time_T2 = M1_Time_T1 + CFG_parameter.Motor_Maximum_Boost_Time*3;
 1641                             		.loc 1 548 0
 1642 0098 AF 00 00                		movw	ax, !_CFG_parameter+6
 1643 009b BD F2                   		movw	r10, ax
 1644 009d BD F0                   		movw	r8, ax
 1645 009f 01                      		addw	ax, ax
 1646 00a0 BD F0                   		movw	r8, ax
 1647 00a2 06 F2                   		addw	ax, r10
 1648 00a4 BD F2                   		movw	r10, ax
 1649 00a6 AF 00 00                		movw	ax, !_M1_Time_T1
 1650 00a9 BD F0                   		movw	r8, ax
 1651 00ab AD F2                   		movw	ax, r10
 1652 00ad 06 F0                   		addw	ax, r8
 1653 00af BD F0                   		movw	r8, ax
 1654 00b1 BF 00 00                		movw	!_M1_Time_T2, ax
 1655 00b4 EC BF 00 00             		br	!!.L91
 1656                             	.L90:
 549:../DGC_A230_Functions/DGC_A230_Motor_Functions.c **** 				}
 550:../DGC_A230_Functions/DGC_A230_Motor_Functions.c **** 				else
 551:../DGC_A230_Functions/DGC_A230_Motor_Functions.c **** 				{
 552:../DGC_A230_Functions/DGC_A230_Motor_Functions.c **** 					M1_Time_T2 = M1_Running_Time;
 1657                             		.loc 1 552 0
 1658 00b8 A8 02                   		movw	ax, [sp+2]
 1659 00ba BD F0                   		movw	r8, ax
 1660 00bc BF 00 00                		movw	!_M1_Time_T2, ax
 1661                             	.L91:
 553:../DGC_A230_Functions/DGC_A230_Motor_Functions.c **** 				}
 554:../DGC_A230_Functions/DGC_A230_Motor_Functions.c **** 
 555:../DGC_A230_Functions/DGC_A230_Motor_Functions.c **** 				M1_Time_T3 = M1_Time_T2 + CFG_parameter.M1_Maneuver_Space;
 1662                             		.loc 1 555 0
 1663 00bf AF 00 00                		movw	ax, !_CFG_parameter+34
 1664 00c2 BD F2                   		movw	r10, ax
 1665 00c4 AF 00 00                		movw	ax, !_M1_Time_T2
 1666 00c7 BD F0                   		movw	r8, ax
 1667 00c9 AD F2                   		movw	ax, r10
 1668 00cb 06 F0                   		addw	ax, r8
 1669 00cd BD F0                   		movw	r8, ax
 1670 00cf BF 00 00                		movw	!_M1_Time_T3, ax
 1671 00d2 EC E1 00 00             		br	!!.L92
 1672                             	.L89:
 556:../DGC_A230_Functions/DGC_A230_Motor_Functions.c **** 			}
 557:../DGC_A230_Functions/DGC_A230_Motor_Functions.c **** 			else
 558:../DGC_A230_Functions/DGC_A230_Motor_Functions.c **** 			{
 559:../DGC_A230_Functions/DGC_A230_Motor_Functions.c **** 				M1_Time_T2 = 0;
 1673                             		.loc 1 559 0
 1674 00d6 F6                      		clrw	ax
 1675 00d7 BF 00 00                		movw	!_M1_Time_T2, ax
 560:../DGC_A230_Functions/DGC_A230_Motor_Functions.c **** 				M1_Time_T3 = M1_Running_Time;
 1676                             		.loc 1 560 0
 1677 00da A8 02                   		movw	ax, [sp+2]
 1678 00dc BD F0                   		movw	r8, ax
 1679 00de BF 00 00                		movw	!_M1_Time_T3, ax
 1680                             	.L92:
 561:../DGC_A230_Functions/DGC_A230_Motor_Functions.c **** 			}
 562:../DGC_A230_Functions/DGC_A230_Motor_Functions.c **** 
 563:../DGC_A230_Functions/DGC_A230_Motor_Functions.c **** 			M1_Time_T4 = M1_Time_T3 + CFG_parameter.M1_Deceleration_Space;
 1681                             		.loc 1 563 0
 1682 00e1 AF 00 00                		movw	ax, !_CFG_parameter+30
 1683 00e4 BD F2                   		movw	r10, ax
 1684 00e6 AF 00 00                		movw	ax, !_M1_Time_T3
 1685 00e9 BD F0                   		movw	r8, ax
 1686 00eb AD F2                   		movw	ax, r10
 1687 00ed 06 F0                   		addw	ax, r8
 1688 00ef BD F0                   		movw	r8, ax
 1689 00f1 BF 00 00                		movw	!_M1_Time_T4, ax
 1690 00f4 EC 11 01 00             		br	!!.L93
 1691                             	.L88:
 564:../DGC_A230_Functions/DGC_A230_Motor_Functions.c **** 		}
 565:../DGC_A230_Functions/DGC_A230_Motor_Functions.c **** 		else
 566:../DGC_A230_Functions/DGC_A230_Motor_Functions.c **** 		{
 567:../DGC_A230_Functions/DGC_A230_Motor_Functions.c **** 			M1_Time_T1 = 0;
 1692                             		.loc 1 567 0
 1693 00f8 F6                      		clrw	ax
 1694 00f9 BF 00 00                		movw	!_M1_Time_T1, ax
 568:../DGC_A230_Functions/DGC_A230_Motor_Functions.c **** 			M1_Time_T2 = M1_Time_T1 + 0;
 1695                             		.loc 1 568 0
 1696 00fc BD F0                   		movw	r8, ax
 1697 00fe BF 00 00                		movw	!_M1_Time_T2, ax
 569:../DGC_A230_Functions/DGC_A230_Motor_Functions.c **** 			M1_Time_T3 = M1_Time_T2 + 0;
 1698                             		.loc 1 569 0
 1699 0101 BD F0                   		movw	r8, ax
 1700 0103 BF 00 00                		movw	!_M1_Time_T3, ax
 570:../DGC_A230_Functions/DGC_A230_Motor_Functions.c **** 			M1_Time_T4 = M1_Time_T3 + M1_Running_Time;
 1701                             		.loc 1 570 0
 1702 0106 BD F0                   		movw	r8, ax
 1703 0108 A8 02                   		movw	ax, [sp+2]
 1704 010a 06 F0                   		addw	ax, r8
 1705 010c BD F0                   		movw	r8, ax
 1706 010e BF 00 00                		movw	!_M1_Time_T4, ax
 1707                             	.L93:
 571:../DGC_A230_Functions/DGC_A230_Motor_Functions.c **** 		}
 572:../DGC_A230_Functions/DGC_A230_Motor_Functions.c **** 
 573:../DGC_A230_Functions/DGC_A230_Motor_Functions.c **** 		if (Moving_Direction == OPEN_MOVING_DIRECTION)
 1708                             		.loc 1 573 0
 1709 0111 88 08                   		mov	a, [sp+8]
 1710 0113 D1                      		cmp0	a
 1711 0114 61 E8                   		 skz
 1712 0116 EC 3F 01 00             		 br	!!.L94
 574:../DGC_A230_Functions/DGC_A230_Motor_Functions.c **** 		{
 575:../DGC_A230_Functions/DGC_A230_Motor_Functions.c **** 			if (Leaf_No1_State == GATE_STATE_CLOSING_PAUSE)
 1713                             		.loc 1 575 0
 1714 011a 8F 00 00                		mov	a, !_Leaf_No1_State
 1715 011d 9D F0                   		mov	r8, a
 1716 011f 4A F0 07                		cmp	r8, #7
 1717 0122 61 E8                   		 skz
 1718 0124 EC B6 02 00             		 br	!!.L97
 576:../DGC_A230_Functions/DGC_A230_Motor_Functions.c **** 			{
 577:../DGC_A230_Functions/DGC_A230_Motor_Functions.c **** 				M1_Time_T4 += CFG_parameter.Addition_Time_After_INV;
 1719                             		.loc 1 577 0
 1720 0128 AF 00 00                		movw	ax, !_CFG_parameter+44
 1721 012b BD F2                   		movw	r10, ax
 1722 012d AF 00 00                		movw	ax, !_M1_Time_T4
 1723 0130 BD F0                   		movw	r8, ax
 1724 0132 AD F2                   		movw	ax, r10
 1725 0134 06 F0                   		addw	ax, r8
 1726 0136 BD F0                   		movw	r8, ax
 1727 0138 BF 00 00                		movw	!_M1_Time_T4, ax
 1728 013b EC B6 02 00             		br	!!.L97
 1729                             	.L94:
 578:../DGC_A230_Functions/DGC_A230_Motor_Functions.c **** 
 579:../DGC_A230_Functions/DGC_A230_Motor_Functions.c **** 			}
 580:../DGC_A230_Functions/DGC_A230_Motor_Functions.c **** 		}
 581:../DGC_A230_Functions/DGC_A230_Motor_Functions.c **** 		else
 582:../DGC_A230_Functions/DGC_A230_Motor_Functions.c **** 		{
 583:../DGC_A230_Functions/DGC_A230_Motor_Functions.c **** 			if (Leaf_No1_State == GATE_STATE_PATIAL_OPENING_PAUSE)
 1730                             		.loc 1 583 0
 1731 013f 8F 00 00                		mov	a, !_Leaf_No1_State
 1732 0142 9D F0                   		mov	r8, a
 1733 0144 4A F0 08                		cmp	r8, #8
 1734 0147 61 E8                   		 skz
 1735 0149 EC B6 02 00             		 br	!!.L97
 584:../DGC_A230_Functions/DGC_A230_Motor_Functions.c **** 			{
 585:../DGC_A230_Functions/DGC_A230_Motor_Functions.c **** 				M1_Time_T4 += CFG_parameter.Addition_Time_After_INV;
 1736                             		.loc 1 585 0
 1737 014d AF 00 00                		movw	ax, !_CFG_parameter+44
 1738 0150 BD F2                   		movw	r10, ax
 1739 0152 AF 00 00                		movw	ax, !_M1_Time_T4
 1740 0155 BD F0                   		movw	r8, ax
 1741 0157 AD F2                   		movw	ax, r10
 1742 0159 06 F0                   		addw	ax, r8
 1743 015b BD F0                   		movw	r8, ax
 1744 015d BF 00 00                		movw	!_M1_Time_T4, ax
 1745 0160 EC B6 02 00             		br	!!.L97
 1746                             	.L85:
 586:../DGC_A230_Functions/DGC_A230_Motor_Functions.c **** 			}
 587:../DGC_A230_Functions/DGC_A230_Motor_Functions.c **** 		}
 588:../DGC_A230_Functions/DGC_A230_Motor_Functions.c **** 	}
 589:../DGC_A230_Functions/DGC_A230_Motor_Functions.c **** 	else
 590:../DGC_A230_Functions/DGC_A230_Motor_Functions.c **** 	{
 591:../DGC_A230_Functions/DGC_A230_Motor_Functions.c **** 		if (Moving_Direction == OPEN_MOVING_DIRECTION)
 1747                             		.loc 1 591 0
 1748 0164 88 08                   		mov	a, [sp+8]
 1749 0166 D1                      		cmp0	a
 1750 0167 61 E8                   		 skz
 1751 0169 EC B5 01 00             		 br	!!.L98
 592:../DGC_A230_Functions/DGC_A230_Motor_Functions.c **** 		{
 593:../DGC_A230_Functions/DGC_A230_Motor_Functions.c **** 			if (CFG_parameter.M1_Partial_Space > M1_Time_Position)
 1752                             		.loc 1 593 0
 1753 016d AF 00 00                		movw	ax, !_CFG_parameter+28
 1754 0170 BD F2                   		movw	r10, ax
 1755 0172 AF 00 00                		movw	ax, !_M1_Time_Position
 1756 0175 BD F0                   		movw	r8, ax
 1757 0177 AD F2                   		movw	ax, r10
 1758 0179 46 F0                   		cmpw	ax, r8
 1759 017b 61 E3                   		 skh
 1760 017d EC 95 01 00             		 br	!!.L99
 594:../DGC_A230_Functions/DGC_A230_Motor_Functions.c **** 			{
 595:../DGC_A230_Functions/DGC_A230_Motor_Functions.c **** 				M1_Running_Time = CFG_parameter.M1_Partial_Space - M1_Time_Position;
 1761                             		.loc 1 595 0
 1762 0181 AF 00 00                		movw	ax, !_CFG_parameter+28
 1763 0184 BD F2                   		movw	r10, ax
 1764 0186 AF 00 00                		movw	ax, !_M1_Time_Position
 1765 0189 BD F0                   		movw	r8, ax
 1766 018b AD F2                   		movw	ax, r10
 1767 018d 26 F0                   		subw	ax, r8
 1768 018f B8 02                   		movw	[sp+2], ax
 1769 0191 EC 98 01 00             		br	!!.L100
 1770                             	.L99:
 596:../DGC_A230_Functions/DGC_A230_Motor_Functions.c **** 			}
 597:../DGC_A230_Functions/DGC_A230_Motor_Functions.c **** 			else
 598:../DGC_A230_Functions/DGC_A230_Motor_Functions.c **** 			{
 599:../DGC_A230_Functions/DGC_A230_Motor_Functions.c **** 				M1_Running_Time = 0;
 1771                             		.loc 1 599 0
 1772 0195 F6                      		clrw	ax
 1773 0196 B8 02                   		movw	[sp+2], ax
 1774                             	.L100:
 600:../DGC_A230_Functions/DGC_A230_Motor_Functions.c **** 			}
 601:../DGC_A230_Functions/DGC_A230_Motor_Functions.c **** 			M1_Time_T1 = 0;
 1775                             		.loc 1 601 0
 1776 0198 F6                      		clrw	ax
 1777 0199 BF 00 00                		movw	!_M1_Time_T1, ax
 602:../DGC_A230_Functions/DGC_A230_Motor_Functions.c **** 			M1_Time_T2 = M1_Time_T1 + 0;
 1778                             		.loc 1 602 0
 1779 019c BD F0                   		movw	r8, ax
 1780 019e BF 00 00                		movw	!_M1_Time_T2, ax
 603:../DGC_A230_Functions/DGC_A230_Motor_Functions.c **** 			M1_Time_T3 = M1_Time_T2 + M1_Running_Time;
 1781                             		.loc 1 603 0
 1782 01a1 BD F0                   		movw	r8, ax
 1783 01a3 A8 02                   		movw	ax, [sp+2]
 1784 01a5 06 F0                   		addw	ax, r8
 1785 01a7 BD F0                   		movw	r8, ax
 1786 01a9 BF 00 00                		movw	!_M1_Time_T3, ax
 604:../DGC_A230_Functions/DGC_A230_Motor_Functions.c **** 			M1_Time_T4 = M1_Time_T3 + 0;
 1787                             		.loc 1 604 0
 1788 01ac BD F0                   		movw	r8, ax
 1789 01ae BF 00 00                		movw	!_M1_Time_T4, ax
 1790 01b1 EC B6 02 00             		br	!!.L97
 1791                             	.L98:
 605:../DGC_A230_Functions/DGC_A230_Motor_Functions.c **** 		}
 606:../DGC_A230_Functions/DGC_A230_Motor_Functions.c **** 		else
 607:../DGC_A230_Functions/DGC_A230_Motor_Functions.c **** 		{
 608:../DGC_A230_Functions/DGC_A230_Motor_Functions.c **** 			M1_Running_Time = M1_Time_Position;
 1792                             		.loc 1 608 0
 1793 01b5 AF 00 00                		movw	ax, !_M1_Time_Position
 1794 01b8 BD F0                   		movw	r8, ax
 1795 01ba B8 02                   		movw	[sp+2], ax
 609:../DGC_A230_Functions/DGC_A230_Motor_Functions.c **** 			if (M1_Running_Time > CFG_parameter.M1_Deceleration_Space)
 1796                             		.loc 1 609 0
 1797 01bc AF 00 00                		movw	ax, !_CFG_parameter+30
 1798 01bf BD F2                   		movw	r10, ax
 1799 01c1 A8 02                   		movw	ax, [sp+2]
 1800 01c3 BD F0                   		movw	r8, ax
 1801 01c5 AD F2                   		movw	ax, r10
 1802 01c7 46 F0                   		cmpw	ax, r8
 1803 01c9 61 C8                   		 skc
 1804 01cb EC 7C 02 00             		 br	!!.L101
 610:../DGC_A230_Functions/DGC_A230_Motor_Functions.c **** 			{
 611:../DGC_A230_Functions/DGC_A230_Motor_Functions.c **** 				M1_Time_T1 = CFG_parameter.Motor_Start_Time;
 1805                             		.loc 1 611 0
 1806 01cf AF 00 00                		movw	ax, !_CFG_parameter+4
 1807 01d2 BD F0                   		movw	r8, ax
 1808 01d4 BF 00 00                		movw	!_M1_Time_T1, ax
 612:../DGC_A230_Functions/DGC_A230_Motor_Functions.c **** 				M1_Running_Time -= CFG_parameter.M1_Deceleration_Space;
 1809                             		.loc 1 612 0
 1810 01d7 AF 00 00                		movw	ax, !_CFG_parameter+30
 1811 01da BD F0                   		movw	r8, ax
 1812 01dc A8 02                   		movw	ax, [sp+2]
 1813 01de 26 F0                   		subw	ax, r8
 1814 01e0 B8 02                   		movw	[sp+2], ax
 613:../DGC_A230_Functions/DGC_A230_Motor_Functions.c **** 				if (M1_Running_Time > CFG_parameter.M1_Maneuver_Space)
 1815                             		.loc 1 613 0
 1816 01e2 AF 00 00                		movw	ax, !_CFG_parameter+34
 1817 01e5 BD F2                   		movw	r10, ax
 1818 01e7 A8 02                   		movw	ax, [sp+2]
 1819 01e9 BD F0                   		movw	r8, ax
 1820 01eb AD F2                   		movw	ax, r10
 1821 01ed 46 F0                   		cmpw	ax, r8
 1822 01ef 61 C8                   		 skc
 1823 01f1 EC 5A 02 00             		 br	!!.L102
 614:../DGC_A230_Functions/DGC_A230_Motor_Functions.c **** 				{
 615:../DGC_A230_Functions/DGC_A230_Motor_Functions.c **** 					M1_Running_Time -= CFG_parameter.M1_Maneuver_Space;
 1824                             		.loc 1 615 0
 1825 01f5 AF 00 00                		movw	ax, !_CFG_parameter+34
 1826 01f8 BD F0                   		movw	r8, ax
 1827 01fa A8 02                   		movw	ax, [sp+2]
 1828 01fc 26 F0                   		subw	ax, r8
 1829 01fe B8 02                   		movw	[sp+2], ax
 616:../DGC_A230_Functions/DGC_A230_Motor_Functions.c **** 					if (M1_Running_Time > CFG_parameter.Motor_Maximum_Boost_Time*3)
 1830                             		.loc 1 616 0
 1831 0200 AF 00 00                		movw	ax, !_CFG_parameter+6
 1832 0203 BD F2                   		movw	r10, ax
 1833 0205 BD F0                   		movw	r8, ax
 1834 0207 01                      		addw	ax, ax
 1835 0208 BD F0                   		movw	r8, ax
 1836 020a 06 F2                   		addw	ax, r10
 1837 020c BD F2                   		movw	r10, ax
 1838 020e A8 02                   		movw	ax, [sp+2]
 1839 0210 BD F0                   		movw	r8, ax
 1840 0212 AD F2                   		movw	ax, r10
 1841 0214 46 F0                   		cmpw	ax, r8
 1842 0216 61 C8                   		 skc
 1843 0218 EC 3C 02 00             		 br	!!.L103
 617:../DGC_A230_Functions/DGC_A230_Motor_Functions.c **** 					{
 618:../DGC_A230_Functions/DGC_A230_Motor_Functions.c **** 						M1_Time_T2 = M1_Time_T1 + CFG_parameter.Motor_Maximum_Boost_Time*3;
 1844                             		.loc 1 618 0
 1845 021c AF 00 00                		movw	ax, !_CFG_parameter+6
 1846 021f BD F2                   		movw	r10, ax
 1847 0221 BD F0                   		movw	r8, ax
 1848 0223 01                      		addw	ax, ax
 1849 0224 BD F0                   		movw	r8, ax
 1850 0226 06 F2                   		addw	ax, r10
 1851 0228 BD F2                   		movw	r10, ax
 1852 022a AF 00 00                		movw	ax, !_M1_Time_T1
 1853 022d BD F0                   		movw	r8, ax
 1854 022f AD F2                   		movw	ax, r10
 1855 0231 06 F0                   		addw	ax, r8
 1856 0233 BD F0                   		movw	r8, ax
 1857 0235 BF 00 00                		movw	!_M1_Time_T2, ax
 1858 0238 EC 43 02 00             		br	!!.L104
 1859                             	.L103:
 619:../DGC_A230_Functions/DGC_A230_Motor_Functions.c **** 					}
 620:../DGC_A230_Functions/DGC_A230_Motor_Functions.c **** 					else
 621:../DGC_A230_Functions/DGC_A230_Motor_Functions.c **** 					{
 622:../DGC_A230_Functions/DGC_A230_Motor_Functions.c **** 						M1_Time_T2 = M1_Running_Time;
 1860                             		.loc 1 622 0
 1861 023c A8 02                   		movw	ax, [sp+2]
 1862 023e BD F0                   		movw	r8, ax
 1863 0240 BF 00 00                		movw	!_M1_Time_T2, ax
 1864                             	.L104:
 623:../DGC_A230_Functions/DGC_A230_Motor_Functions.c **** 					}
 624:../DGC_A230_Functions/DGC_A230_Motor_Functions.c **** 
 625:../DGC_A230_Functions/DGC_A230_Motor_Functions.c **** 					M1_Time_T3 = M1_Time_T2 + CFG_parameter.M1_Maneuver_Space;
 1865                             		.loc 1 625 0
 1866 0243 AF 00 00                		movw	ax, !_CFG_parameter+34
 1867 0246 BD F2                   		movw	r10, ax
 1868 0248 AF 00 00                		movw	ax, !_M1_Time_T2
 1869 024b BD F0                   		movw	r8, ax
 1870 024d AD F2                   		movw	ax, r10
 1871 024f 06 F0                   		addw	ax, r8
 1872 0251 BD F0                   		movw	r8, ax
 1873 0253 BF 00 00                		movw	!_M1_Time_T3, ax
 1874 0256 EC 65 02 00             		br	!!.L105
 1875                             	.L102:
 626:../DGC_A230_Functions/DGC_A230_Motor_Functions.c **** 				}
 627:../DGC_A230_Functions/DGC_A230_Motor_Functions.c **** 				else
 628:../DGC_A230_Functions/DGC_A230_Motor_Functions.c **** 				{
 629:../DGC_A230_Functions/DGC_A230_Motor_Functions.c **** 					M1_Time_T2 = 0;
 1876                             		.loc 1 629 0
 1877 025a F6                      		clrw	ax
 1878 025b BF 00 00                		movw	!_M1_Time_T2, ax
 630:../DGC_A230_Functions/DGC_A230_Motor_Functions.c **** 					M1_Time_T3 = M1_Running_Time;
 1879                             		.loc 1 630 0
 1880 025e A8 02                   		movw	ax, [sp+2]
 1881 0260 BD F0                   		movw	r8, ax
 1882 0262 BF 00 00                		movw	!_M1_Time_T3, ax
 1883                             	.L105:
 631:../DGC_A230_Functions/DGC_A230_Motor_Functions.c **** 				}
 632:../DGC_A230_Functions/DGC_A230_Motor_Functions.c **** 
 633:../DGC_A230_Functions/DGC_A230_Motor_Functions.c **** 				M1_Time_T4 = M1_Time_T3 + CFG_parameter.M1_Deceleration_Space;
 1884                             		.loc 1 633 0
 1885 0265 AF 00 00                		movw	ax, !_CFG_parameter+30
 1886 0268 BD F2                   		movw	r10, ax
 1887 026a AF 00 00                		movw	ax, !_M1_Time_T3
 1888 026d BD F0                   		movw	r8, ax
 1889 026f AD F2                   		movw	ax, r10
 1890 0271 06 F0                   		addw	ax, r8
 1891 0273 BD F0                   		movw	r8, ax
 1892 0275 BF 00 00                		movw	!_M1_Time_T4, ax
 1893 0278 EC 95 02 00             		br	!!.L106
 1894                             	.L101:
 634:../DGC_A230_Functions/DGC_A230_Motor_Functions.c **** 			}
 635:../DGC_A230_Functions/DGC_A230_Motor_Functions.c **** 			else
 636:../DGC_A230_Functions/DGC_A230_Motor_Functions.c **** 			{
 637:../DGC_A230_Functions/DGC_A230_Motor_Functions.c **** 				M1_Time_T1 = 0;
 1895                             		.loc 1 637 0
 1896 027c F6                      		clrw	ax
 1897 027d BF 00 00                		movw	!_M1_Time_T1, ax
 638:../DGC_A230_Functions/DGC_A230_Motor_Functions.c **** 				M1_Time_T2 = M1_Time_T1 + 0;
 1898                             		.loc 1 638 0
 1899 0280 BD F0                   		movw	r8, ax
 1900 0282 BF 00 00                		movw	!_M1_Time_T2, ax
 639:../DGC_A230_Functions/DGC_A230_Motor_Functions.c **** 				M1_Time_T3 = M1_Time_T2 + 0;
 1901                             		.loc 1 639 0
 1902 0285 BD F0                   		movw	r8, ax
 1903 0287 BF 00 00                		movw	!_M1_Time_T3, ax
 640:../DGC_A230_Functions/DGC_A230_Motor_Functions.c **** 				M1_Time_T4 = M1_Time_T3 + M1_Running_Time;
 1904                             		.loc 1 640 0
 1905 028a BD F0                   		movw	r8, ax
 1906 028c A8 02                   		movw	ax, [sp+2]
 1907 028e 06 F0                   		addw	ax, r8
 1908 0290 BD F0                   		movw	r8, ax
 1909 0292 BF 00 00                		movw	!_M1_Time_T4, ax
 1910                             	.L106:
 641:../DGC_A230_Functions/DGC_A230_Motor_Functions.c **** 			}
 642:../DGC_A230_Functions/DGC_A230_Motor_Functions.c **** 
 643:../DGC_A230_Functions/DGC_A230_Motor_Functions.c **** 			if (Leaf_No1_State == GATE_STATE_PATIAL_OPENING_PAUSE)
 1911                             		.loc 1 643 0
 1912 0295 8F 00 00                		mov	a, !_Leaf_No1_State
 1913 0298 9D F0                   		mov	r8, a
 1914 029a 4A F0 08                		cmp	r8, #8
 1915 029d 61 E8                   		 skz
 1916 029f EC B6 02 00             		 br	!!.L97
 644:../DGC_A230_Functions/DGC_A230_Motor_Functions.c **** 			{
 645:../DGC_A230_Functions/DGC_A230_Motor_Functions.c **** 				M1_Time_T4 += CFG_parameter.Addition_Time_After_INV;
 1917                             		.loc 1 645 0
 1918 02a3 AF 00 00                		movw	ax, !_CFG_parameter+44
 1919 02a6 BD F2                   		movw	r10, ax
 1920 02a8 AF 00 00                		movw	ax, !_M1_Time_T4
 1921 02ab BD F0                   		movw	r8, ax
 1922 02ad AD F2                   		movw	ax, r10
 1923 02af 06 F0                   		addw	ax, r8
 1924 02b1 BD F0                   		movw	r8, ax
 1925 02b3 BF 00 00                		movw	!_M1_Time_T4, ax
 1926                             	.L97:
 646:../DGC_A230_Functions/DGC_A230_Motor_Functions.c **** 			}
 647:../DGC_A230_Functions/DGC_A230_Motor_Functions.c **** 		}
 648:../DGC_A230_Functions/DGC_A230_Motor_Functions.c **** 	}
 649:../DGC_A230_Functions/DGC_A230_Motor_Functions.c **** 	//	M1_Time_T1 = CFG_parameter.Motor_Start_Time;
 650:../DGC_A230_Functions/DGC_A230_Motor_Functions.c **** //	M1_Time_T2 = M1_Time_T1 + CFG_parameter.Motor_Maximum_Boost_Time;
 651:../DGC_A230_Functions/DGC_A230_Motor_Functions.c **** //	M1_Time_T3 = M1_Time_T2 + M1_Running_Time /100 * (100 - CFG_parameter.M1_Deceleration_Space);
 652:../DGC_A230_Functions/DGC_A230_Motor_Functions.c **** //	M1_Time_T4 = M1_Time_T3 + M1_Running_Time /100 * CFG_parameter.M1_Deceleration_Space;
 653:../DGC_A230_Functions/DGC_A230_Motor_Functions.c **** 
 654:../DGC_A230_Functions/DGC_A230_Motor_Functions.c **** 	Setting_Courtesy_Light_and_Flash_Light(Moving_Direction);
 1927                             		.loc 1 654 0
 1928 02b6 88 08                   		mov	a, [sp+8]
 1929 02b8 9D F0                   		mov	r8, a
 1930 02ba 98 00                   		mov	[sp], a
 1931 02bc FC 00 00 00             		call	!!%code(_Setting_Courtesy_Light_and_Flash_Light)
 655:../DGC_A230_Functions/DGC_A230_Motor_Functions.c **** }
 1932                             		.loc 1 655 0
 1933 02c0 10 04                   		addw	sp, #4
 1934 02c2 D7                      		ret
 1935                             	.LFE13:
 1937                             		.global	_Recovery_Done
 1938                             		.section	.bss.Recovery_Done,"aw",@nobits
 1941                             	_Recovery_Done:
 1942 0000 00                      		.zero	1
 1943                             		.global	_a1
 1944                             		.section	.bss.a1,"aw",@nobits
 1947                             	_a1:
 1948 0000 00                      		.zero	1
 1949                             		.comm	_a2,1,1
 1950                             		.comm	_a3,1,1
 1951                             		.section	.rodata
 1952                             	.LC0:
 1953 0000 72 45 00                		.string	"rE"
 1954                             	.LC1:
 1955 0003 43 6F 00                		.string	"Co"
 1956                             		.section	.text.Auto_test_start,"ax",@progbits
 1957                             		.global	_Auto_test_start
 1959                             	_Auto_test_start:
 1960                             	.LFB14:
 656:../DGC_A230_Functions/DGC_A230_Motor_Functions.c **** //
 657:../DGC_A230_Functions/DGC_A230_Motor_Functions.c **** //void Auto_Power_Failure_Recovery_Process(void)
 658:../DGC_A230_Functions/DGC_A230_Motor_Functions.c **** //{
 659:../DGC_A230_Functions/DGC_A230_Motor_Functions.c **** //	uint8_t Recovery_Done = 0;
 660:../DGC_A230_Functions/DGC_A230_Motor_Functions.c **** //
 661:../DGC_A230_Functions/DGC_A230_Motor_Functions.c **** //    memcpy(&Parameter_Name[0], "rE", sizeof("--"));
 662:../DGC_A230_Functions/DGC_A230_Motor_Functions.c **** //	memcpy(&Parameter_Value[0], "Co", sizeof("--"));
 663:../DGC_A230_Functions/DGC_A230_Motor_Functions.c **** //
 664:../DGC_A230_Functions/DGC_A230_Motor_Functions.c **** //	Display_Mode = PARA_MODE;
 665:../DGC_A230_Functions/DGC_A230_Motor_Functions.c **** //
 666:../DGC_A230_Functions/DGC_A230_Motor_Functions.c **** //	HMI_Flash_Count = 0;
 667:../DGC_A230_Functions/DGC_A230_Motor_Functions.c **** //	HMI_Flash_Enable = 1;
 668:../DGC_A230_Functions/DGC_A230_Motor_Functions.c **** //
 669:../DGC_A230_Functions/DGC_A230_Motor_Functions.c **** //	Flash_Enable = 1;
 670:../DGC_A230_Functions/DGC_A230_Motor_Functions.c **** //	FLASH = 1;
 671:../DGC_A230_Functions/DGC_A230_Motor_Functions.c **** //
 672:../DGC_A230_Functions/DGC_A230_Motor_Functions.c **** //	Pre_Flash_Type = FLASH_ENABLE_TIMER;
 673:../DGC_A230_Functions/DGC_A230_Motor_Functions.c **** //	Flash_Timer_Counter = 0;
 674:../DGC_A230_Functions/DGC_A230_Motor_Functions.c **** //	Flash_Frequency_Config = FLASH_LIGHT_FREQUENCY_RECOVERY;
 675:../DGC_A230_Functions/DGC_A230_Motor_Functions.c **** //	Flash_Frequency_Count = 0;
 676:../DGC_A230_Functions/DGC_A230_Motor_Functions.c **** //	while (Flash_Timer_Counter < 10);									// Flashing warning signal 5 second prior to recovery
 677:../DGC_A230_Functions/DGC_A230_Motor_Functions.c **** //	Pre_Flash_Type = FLASH_DISABLE_TIMER;
 678:../DGC_A230_Functions/DGC_A230_Motor_Functions.c **** //
 679:../DGC_A230_Functions/DGC_A230_Motor_Functions.c **** //	FLASH = 1;
 680:../DGC_A230_Functions/DGC_A230_Motor_Functions.c **** ////	Flash_Frequency_Config = FLASH_LIGHT_FREQUENCY_RECOVERY;
 681:../DGC_A230_Functions/DGC_A230_Motor_Functions.c **** ////	Flash_Frequency_Count = 0;
 682:../DGC_A230_Functions/DGC_A230_Motor_Functions.c **** //
 683:../DGC_A230_Functions/DGC_A230_Motor_Functions.c **** //	if (CFG_parameter.Encoder_Config == 0x00)			// Without Encoder is installed
 684:../DGC_A230_Functions/DGC_A230_Motor_Functions.c **** //	{
 685:../DGC_A230_Functions/DGC_A230_Motor_Functions.c **** //		M1_Torque_Setting = CFG_parameter.Motor_Torque_Maneuver;
 686:../DGC_A230_Functions/DGC_A230_Motor_Functions.c **** //		M2_Torque_Setting = CFG_parameter.Motor_Torque_Maneuver;
 687:../DGC_A230_Functions/DGC_A230_Motor_Functions.c **** //
 688:../DGC_A230_Functions/DGC_A230_Motor_Functions.c **** //		M1_Timestamp = UNDEFINE_TIMESTAMP;
 689:../DGC_A230_Functions/DGC_A230_Motor_Functions.c **** //		M2_Timestamp = UNDEFINE_TIMESTAMP;
 690:../DGC_A230_Functions/DGC_A230_Motor_Functions.c **** //
 691:../DGC_A230_Functions/DGC_A230_Motor_Functions.c **** //		TRIG_EN = 1;			// Enable Pulse out to control Motor
 692:../DGC_A230_Functions/DGC_A230_Motor_Functions.c **** //		R_INTC0_Start();												// Enable Sync to control, Motor 1 start opening
 693:../DGC_A230_Functions/DGC_A230_Motor_Functions.c **** //
 694:../DGC_A230_Functions/DGC_A230_Motor_Functions.c **** //		if (CFG_parameter.Number_Of_Motors == 0x02)							// when using 2 Motors
 695:../DGC_A230_Functions/DGC_A230_Motor_Functions.c **** //		{
 696:../DGC_A230_Functions/DGC_A230_Motor_Functions.c **** //			Motor2_Close_Enable();											// Enable Motor #2 Open
 697:../DGC_A230_Functions/DGC_A230_Motor_Functions.c **** //			Leaf_No2_State = GATE_STATE_CLOSING;
 698:../DGC_A230_Functions/DGC_A230_Motor_Functions.c **** //		}
 699:../DGC_A230_Functions/DGC_A230_Motor_Functions.c **** //		else
 700:../DGC_A230_Functions/DGC_A230_Motor_Functions.c **** //		{
 701:../DGC_A230_Functions/DGC_A230_Motor_Functions.c **** //			Motor1_Close_Enable();											// Enable Motor #1 Open
 702:../DGC_A230_Functions/DGC_A230_Motor_Functions.c **** //			Leaf_No1_State = GATE_STATE_CLOSING;
 703:../DGC_A230_Functions/DGC_A230_Motor_Functions.c **** //		}
 704:../DGC_A230_Functions/DGC_A230_Motor_Functions.c **** //
 705:../DGC_A230_Functions/DGC_A230_Motor_Functions.c **** //		Tick_Count = 0;													// Reset Tick count
 706:../DGC_A230_Functions/DGC_A230_Motor_Functions.c **** //		M1_Tick_Count = 0;
 707:../DGC_A230_Functions/DGC_A230_Motor_Functions.c **** //		M2_Tick_Count = 0;												// Start counter to M2
 708:../DGC_A230_Functions/DGC_A230_Motor_Functions.c **** //		Recovery_Done = 0;
 709:../DGC_A230_Functions/DGC_A230_Motor_Functions.c **** //
 710:../DGC_A230_Functions/DGC_A230_Motor_Functions.c **** //		R_TAU0_Channel1_Start();										// Start Timer channel 1
 711:../DGC_A230_Functions/DGC_A230_Motor_Functions.c **** //
 712:../DGC_A230_Functions/DGC_A230_Motor_Functions.c **** //		if (CFG_parameter.Number_Of_Motors == 0x02)				// when using 2 Motors
 713:../DGC_A230_Functions/DGC_A230_Motor_Functions.c **** //		{
 714:../DGC_A230_Functions/DGC_A230_Motor_Functions.c **** //			while (Tick_Count < CFG_parameter.Motor_No1_Close_Delay_Time);
 715:../DGC_A230_Functions/DGC_A230_Motor_Functions.c **** //			M1_Tick_Count = 0;
 716:../DGC_A230_Functions/DGC_A230_Motor_Functions.c **** ////			if (Leaf_No1_State != GATE_STATE_CLOSED)
 717:../DGC_A230_Functions/DGC_A230_Motor_Functions.c **** ////			{
 718:../DGC_A230_Functions/DGC_A230_Motor_Functions.c **** //				Motor1_Close_Enable();											// Enable Motor #2 Open
 719:../DGC_A230_Functions/DGC_A230_Motor_Functions.c **** //				Leaf_No1_State = GATE_STATE_CLOSING;
 720:../DGC_A230_Functions/DGC_A230_Motor_Functions.c **** ////			}
 721:../DGC_A230_Functions/DGC_A230_Motor_Functions.c **** //		}
 722:../DGC_A230_Functions/DGC_A230_Motor_Functions.c **** //		while (Recovery_Done == 0)				// Start Closing
 723:../DGC_A230_Functions/DGC_A230_Motor_Functions.c **** //		{
 724:../DGC_A230_Functions/DGC_A230_Motor_Functions.c **** //			if ((M1_Tick_Count >= (CFG_parameter.M1_Travel_Time)) 	// Over time
 725:../DGC_A230_Functions/DGC_A230_Motor_Functions.c **** //				|| (FCC1_IN && (CFG_parameter.Limit_Switch_Config == 0x01)))								// Open Limit switch
 726:../DGC_A230_Functions/DGC_A230_Motor_Functions.c **** //			{
 727:../DGC_A230_Functions/DGC_A230_Motor_Functions.c **** //				Motor1_Disable();
 728:../DGC_A230_Functions/DGC_A230_Motor_Functions.c **** //				Leaf_No1_State = GATE_STATE_CLOSED;
 729:../DGC_A230_Functions/DGC_A230_Motor_Functions.c **** //			}
 730:../DGC_A230_Functions/DGC_A230_Motor_Functions.c **** //
 731:../DGC_A230_Functions/DGC_A230_Motor_Functions.c **** //			if (CFG_parameter.Number_Of_Motors == 0x02)				// when using 2 Motors
 732:../DGC_A230_Functions/DGC_A230_Motor_Functions.c **** //			{
 733:../DGC_A230_Functions/DGC_A230_Motor_Functions.c **** //
 734:../DGC_A230_Functions/DGC_A230_Motor_Functions.c **** //				if ((M2_Tick_Count >= (CFG_parameter.M2_Travel_Time)) 	// Over time
 735:../DGC_A230_Functions/DGC_A230_Motor_Functions.c **** //					|| (FCC2_IN && (CFG_parameter.Limit_Switch_Config == 0x01)))								// Open Limit switch
 736:../DGC_A230_Functions/DGC_A230_Motor_Functions.c **** //				{
 737:../DGC_A230_Functions/DGC_A230_Motor_Functions.c **** //					Motor2_Disable();
 738:../DGC_A230_Functions/DGC_A230_Motor_Functions.c **** //					Leaf_No2_State = GATE_STATE_CLOSED;
 739:../DGC_A230_Functions/DGC_A230_Motor_Functions.c **** //				}
 740:../DGC_A230_Functions/DGC_A230_Motor_Functions.c **** //			}
 741:../DGC_A230_Functions/DGC_A230_Motor_Functions.c **** //
 742:../DGC_A230_Functions/DGC_A230_Motor_Functions.c **** //			if (CFG_parameter.Number_Of_Motors == 0x02)				// when using 2 Motors
 743:../DGC_A230_Functions/DGC_A230_Motor_Functions.c **** //			{
 744:../DGC_A230_Functions/DGC_A230_Motor_Functions.c **** //				if ((Leaf_No1_State == GATE_STATE_CLOSED) && (Leaf_No2_State == GATE_STATE_CLOSED))
 745:../DGC_A230_Functions/DGC_A230_Motor_Functions.c **** //				{
 746:../DGC_A230_Functions/DGC_A230_Motor_Functions.c **** //					Recovery_Done = 1;
 747:../DGC_A230_Functions/DGC_A230_Motor_Functions.c **** //				}
 748:../DGC_A230_Functions/DGC_A230_Motor_Functions.c **** //			}
 749:../DGC_A230_Functions/DGC_A230_Motor_Functions.c **** //			else
 750:../DGC_A230_Functions/DGC_A230_Motor_Functions.c **** //			{
 751:../DGC_A230_Functions/DGC_A230_Motor_Functions.c **** //				if (Leaf_No1_State == GATE_STATE_CLOSED)
 752:../DGC_A230_Functions/DGC_A230_Motor_Functions.c **** //				{
 753:../DGC_A230_Functions/DGC_A230_Motor_Functions.c **** //					Recovery_Done = 1;
 754:../DGC_A230_Functions/DGC_A230_Motor_Functions.c **** //				}
 755:../DGC_A230_Functions/DGC_A230_Motor_Functions.c **** //			}
 756:../DGC_A230_Functions/DGC_A230_Motor_Functions.c **** //		}
 757:../DGC_A230_Functions/DGC_A230_Motor_Functions.c **** //
 758:../DGC_A230_Functions/DGC_A230_Motor_Functions.c **** //		R_TAU0_Channel1_Stop();											// Stop Timer channel 1
 759:../DGC_A230_Functions/DGC_A230_Motor_Functions.c **** //		R_INTC0_Stop();													// Disable Sync to control
 760:../DGC_A230_Functions/DGC_A230_Motor_Functions.c **** //		TRIG_EN = 0;			// Enable Pulse out to control Motor
 761:../DGC_A230_Functions/DGC_A230_Motor_Functions.c **** //		M1_PWM = 1;					// Clear Trigger Pulse Output
 762:../DGC_A230_Functions/DGC_A230_Motor_Functions.c **** //		M2_PWM = 1;					// Clear M2 PWM Pulse Output
 763:../DGC_A230_Functions/DGC_A230_Motor_Functions.c **** //
 764:../DGC_A230_Functions/DGC_A230_Motor_Functions.c **** //		M1_Time_Position = 0;
 765:../DGC_A230_Functions/DGC_A230_Motor_Functions.c **** //		M1_Last_Time_Position = 0;
 766:../DGC_A230_Functions/DGC_A230_Motor_Functions.c **** //		M2_Time_Position = 0;
 767:../DGC_A230_Functions/DGC_A230_Motor_Functions.c **** //		M2_Last_Time_Position = 0;
 768:../DGC_A230_Functions/DGC_A230_Motor_Functions.c **** //
 769:../DGC_A230_Functions/DGC_A230_Motor_Functions.c **** //		Power_failure = POWER_GOOD_STATE;
 770:../DGC_A230_Functions/DGC_A230_Motor_Functions.c **** //	}
 771:../DGC_A230_Functions/DGC_A230_Motor_Functions.c **** //	else												// With Encoder is installed
 772:../DGC_A230_Functions/DGC_A230_Motor_Functions.c **** //	{
 773:../DGC_A230_Functions/DGC_A230_Motor_Functions.c **** //
 774:../DGC_A230_Functions/DGC_A230_Motor_Functions.c **** //	}
 775:../DGC_A230_Functions/DGC_A230_Motor_Functions.c **** //
 776:../DGC_A230_Functions/DGC_A230_Motor_Functions.c **** //	Flash_Enable = 0;
 777:../DGC_A230_Functions/DGC_A230_Motor_Functions.c **** //	FLASH = 0;
 778:../DGC_A230_Functions/DGC_A230_Motor_Functions.c **** //
 779:../DGC_A230_Functions/DGC_A230_Motor_Functions.c **** //	HMI_Flash_Enable = 0;
 780:../DGC_A230_Functions/DGC_A230_Motor_Functions.c **** //	Mask = 0xff;
 781:../DGC_A230_Functions/DGC_A230_Motor_Functions.c **** //
 782:../DGC_A230_Functions/DGC_A230_Motor_Functions.c **** //	Display_Mode = NORMAL_MODE;
 783:../DGC_A230_Functions/DGC_A230_Motor_Functions.c **** //}
 784:../DGC_A230_Functions/DGC_A230_Motor_Functions.c **** 
 785:../DGC_A230_Functions/DGC_A230_Motor_Functions.c **** //int check()
 786:../DGC_A230_Functions/DGC_A230_Motor_Functions.c **** //{
 787:../DGC_A230_Functions/DGC_A230_Motor_Functions.c **** //
 788:../DGC_A230_Functions/DGC_A230_Motor_Functions.c **** //	//code
 789:../DGC_A230_Functions/DGC_A230_Motor_Functions.c **** //
 790:../DGC_A230_Functions/DGC_A230_Motor_Functions.c **** //	if (FCA1_IN && (CFG_parameter.Limit_Switch_Config != 0x00))
 791:../DGC_A230_Functions/DGC_A230_Motor_Functions.c **** //	{
 792:../DGC_A230_Functions/DGC_A230_Motor_Functions.c **** //		Open_Limit_Switch_No1_Process();
 793:../DGC_A230_Functions/DGC_A230_Motor_Functions.c **** //		return 0;
 794:../DGC_A230_Functions/DGC_A230_Motor_Functions.c **** //	}
 795:../DGC_A230_Functions/DGC_A230_Motor_Functions.c **** //
 796:../DGC_A230_Functions/DGC_A230_Motor_Functions.c **** //	if (FCA2_IN && (CFG_parameter.Limit_Switch_Config != 0x00))
 797:../DGC_A230_Functions/DGC_A230_Motor_Functions.c **** //	{
 798:../DGC_A230_Functions/DGC_A230_Motor_Functions.c **** //		Open_Limit_Switch_No2_Process();
 799:../DGC_A230_Functions/DGC_A230_Motor_Functions.c **** //		return 0;
 800:../DGC_A230_Functions/DGC_A230_Motor_Functions.c **** //	}
 801:../DGC_A230_Functions/DGC_A230_Motor_Functions.c **** //
 802:../DGC_A230_Functions/DGC_A230_Motor_Functions.c **** //	if (FCC1_IN && (CFG_parameter.Limit_Switch_Config == 0x01))
 803:../DGC_A230_Functions/DGC_A230_Motor_Functions.c **** //	{
 804:../DGC_A230_Functions/DGC_A230_Motor_Functions.c **** //		Close_Limit_Switch_No1_Process();
 805:../DGC_A230_Functions/DGC_A230_Motor_Functions.c **** //		return 0;
 806:../DGC_A230_Functions/DGC_A230_Motor_Functions.c **** //	}
 807:../DGC_A230_Functions/DGC_A230_Motor_Functions.c **** //
 808:../DGC_A230_Functions/DGC_A230_Motor_Functions.c **** //	if (FCC2_IN && (CFG_parameter.Limit_Switch_Config == 0x01))
 809:../DGC_A230_Functions/DGC_A230_Motor_Functions.c **** //	{
 810:../DGC_A230_Functions/DGC_A230_Motor_Functions.c **** //		Close_Limit_Switch_No2_Process();
 811:../DGC_A230_Functions/DGC_A230_Motor_Functions.c **** //		return 0;
 812:../DGC_A230_Functions/DGC_A230_Motor_Functions.c **** //	}
 813:../DGC_A230_Functions/DGC_A230_Motor_Functions.c **** //	if (Auto_Close_Gate_Command == AUTO_CLOSE_GATE_COMMAND_ON)
 814:../DGC_A230_Functions/DGC_A230_Motor_Functions.c **** //	{
 815:../DGC_A230_Functions/DGC_A230_Motor_Functions.c **** //		Auto_Close_Gate_Command_Process();
 816:../DGC_A230_Functions/DGC_A230_Motor_Functions.c **** //		return 0;
 817:../DGC_A230_Functions/DGC_A230_Motor_Functions.c **** //	}
 818:../DGC_A230_Functions/DGC_A230_Motor_Functions.c **** //	//  Emergency Stop
 819:../DGC_A230_Functions/DGC_A230_Motor_Functions.c **** //	if (E_STOP)
 820:../DGC_A230_Functions/DGC_A230_Motor_Functions.c **** //	{
 821:../DGC_A230_Functions/DGC_A230_Motor_Functions.c **** //		Emergency_Stop_Process();
 822:../DGC_A230_Functions/DGC_A230_Motor_Functions.c **** //		return 0;
 823:../DGC_A230_Functions/DGC_A230_Motor_Functions.c **** //	}
 824:../DGC_A230_Functions/DGC_A230_Motor_Functions.c **** //
 825:../DGC_A230_Functions/DGC_A230_Motor_Functions.c **** //	if (FT1)
 826:../DGC_A230_Functions/DGC_A230_Motor_Functions.c **** //	{
 827:../DGC_A230_Functions/DGC_A230_Motor_Functions.c **** //		Photocell_FT1_Process();
 828:../DGC_A230_Functions/DGC_A230_Motor_Functions.c **** //		return 0;
 829:../DGC_A230_Functions/DGC_A230_Motor_Functions.c **** //	}
 830:../DGC_A230_Functions/DGC_A230_Motor_Functions.c **** //
 831:../DGC_A230_Functions/DGC_A230_Motor_Functions.c **** //	if (FT2)
 832:../DGC_A230_Functions/DGC_A230_Motor_Functions.c **** //	{
 833:../DGC_A230_Functions/DGC_A230_Motor_Functions.c **** //		Photocell_FT2_Process();
 834:../DGC_A230_Functions/DGC_A230_Motor_Functions.c **** //		return 0;
 835:../DGC_A230_Functions/DGC_A230_Motor_Functions.c **** //	}
 836:../DGC_A230_Functions/DGC_A230_Motor_Functions.c **** //
 837:../DGC_A230_Functions/DGC_A230_Motor_Functions.c **** //	if ((COS1) && (Last_Sensing_Edge_COS1_status == SENSING_EDGE_STATUS_INACTIVE))
 838:../DGC_A230_Functions/DGC_A230_Motor_Functions.c **** //	{
 839:../DGC_A230_Functions/DGC_A230_Motor_Functions.c **** //		Last_Sensing_Edge_COS1_status = SENSING_EDGE_STATUS_ACTIVE;
 840:../DGC_A230_Functions/DGC_A230_Motor_Functions.c **** //		Sensing_Edge_COS1_Process();
 841:../DGC_A230_Functions/DGC_A230_Motor_Functions.c **** //		return 0;
 842:../DGC_A230_Functions/DGC_A230_Motor_Functions.c **** //	}
 843:../DGC_A230_Functions/DGC_A230_Motor_Functions.c **** //
 844:../DGC_A230_Functions/DGC_A230_Motor_Functions.c **** //	if ((COS2) && (Last_Sensing_Edge_COS2_status == SENSING_EDGE_STATUS_INACTIVE))
 845:../DGC_A230_Functions/DGC_A230_Motor_Functions.c **** //	{
 846:../DGC_A230_Functions/DGC_A230_Motor_Functions.c **** //		Last_Sensing_Edge_COS2_status = SENSING_EDGE_STATUS_ACTIVE;
 847:../DGC_A230_Functions/DGC_A230_Motor_Functions.c **** //		Sensing_Edge_COS2_Process();
 848:../DGC_A230_Functions/DGC_A230_Motor_Functions.c **** //		return 0;
 849:../DGC_A230_Functions/DGC_A230_Motor_Functions.c **** //	}
 850:../DGC_A230_Functions/DGC_A230_Motor_Functions.c **** //
 851:../DGC_A230_Functions/DGC_A230_Motor_Functions.c **** //	if ((!COS1) && (Last_Sensing_Edge_COS1_status == SENSING_EDGE_STATUS_ACTIVE))
 852:../DGC_A230_Functions/DGC_A230_Motor_Functions.c **** //	{
 853:../DGC_A230_Functions/DGC_A230_Motor_Functions.c **** //		Last_Sensing_Edge_COS1_status = SENSING_EDGE_STATUS_INACTIVE;
 854:../DGC_A230_Functions/DGC_A230_Motor_Functions.c **** //		return 0;
 855:../DGC_A230_Functions/DGC_A230_Motor_Functions.c **** //	}
 856:../DGC_A230_Functions/DGC_A230_Motor_Functions.c **** //
 857:../DGC_A230_Functions/DGC_A230_Motor_Functions.c **** //	if ((!COS2) && (Last_Sensing_Edge_COS2_status == SENSING_EDGE_STATUS_ACTIVE))
 858:../DGC_A230_Functions/DGC_A230_Motor_Functions.c **** //	{
 859:../DGC_A230_Functions/DGC_A230_Motor_Functions.c **** //		Last_Sensing_Edge_COS2_status = SENSING_EDGE_STATUS_INACTIVE;
 860:../DGC_A230_Functions/DGC_A230_Motor_Functions.c **** //		return 0;
 861:../DGC_A230_Functions/DGC_A230_Motor_Functions.c **** //	}
 862:../DGC_A230_Functions/DGC_A230_Motor_Functions.c **** //
 863:../DGC_A230_Functions/DGC_A230_Motor_Functions.c **** //	if ((!PED_IN)						// Partial Command is activated
 864:../DGC_A230_Functions/DGC_A230_Motor_Functions.c **** //		&& (!((!ORO_IN) && (CFG_parameter.Clock_Contact_Mode == 0x00))))
 865:../DGC_A230_Functions/DGC_A230_Motor_Functions.c **** //	{
 866:../DGC_A230_Functions/DGC_A230_Motor_Functions.c **** //		if((CFG_parameter.Manual_Function == 0x00) && (Power_failure == POWER_GOOD_STATE))
 867:../DGC_A230_Functions/DGC_A230_Motor_Functions.c **** //		{
 868:../DGC_A230_Functions/DGC_A230_Motor_Functions.c **** //			Partial_Command_Process();		// Partial Command Procedure
 869:../DGC_A230_Functions/DGC_A230_Motor_Functions.c **** //		}
 870:../DGC_A230_Functions/DGC_A230_Motor_Functions.c **** //		return 0;
 871:../DGC_A230_Functions/DGC_A230_Motor_Functions.c **** //		while(!PED_IN);
 872:../DGC_A230_Functions/DGC_A230_Motor_Functions.c **** //	}
 873:../DGC_A230_Functions/DGC_A230_Motor_Functions.c **** //
 874:../DGC_A230_Functions/DGC_A230_Motor_Functions.c **** //	if ((!PP_IN)							// Step Command is activated
 875:../DGC_A230_Functions/DGC_A230_Motor_Functions.c **** //		&& (!((!ORO_IN) && (CFG_parameter.Clock_Contact_Mode == 0x00))))
 876:../DGC_A230_Functions/DGC_A230_Motor_Functions.c **** //	{
 877:../DGC_A230_Functions/DGC_A230_Motor_Functions.c **** //
 878:../DGC_A230_Functions/DGC_A230_Motor_Functions.c **** //		if (Power_failure == POWER_FAILURE_STATE)
 879:../DGC_A230_Functions/DGC_A230_Motor_Functions.c **** //		{
 880:../DGC_A230_Functions/DGC_A230_Motor_Functions.c **** ////				Manual_Power_Failure_Recovery_Process();
 881:../DGC_A230_Functions/DGC_A230_Motor_Functions.c **** ////				Manual_Power_Failure_Recovery_Process_Test();
 882:../DGC_A230_Functions/DGC_A230_Motor_Functions.c **** //			Step_Command_Process_Mode_5();
 883:../DGC_A230_Functions/DGC_A230_Motor_Functions.c **** //		}
 884:../DGC_A230_Functions/DGC_A230_Motor_Functions.c **** //		else
 885:../DGC_A230_Functions/DGC_A230_Motor_Functions.c **** //		{
 886:../DGC_A230_Functions/DGC_A230_Motor_Functions.c **** //			if(CFG_parameter.Manual_Function == 0x00)
 887:../DGC_A230_Functions/DGC_A230_Motor_Functions.c **** //			{
 888:../DGC_A230_Functions/DGC_A230_Motor_Functions.c **** //				Step_Command_Process();			// Step Command Procedure
 889:../DGC_A230_Functions/DGC_A230_Motor_Functions.c **** //			}
 890:../DGC_A230_Functions/DGC_A230_Motor_Functions.c **** //		}
 891:../DGC_A230_Functions/DGC_A230_Motor_Functions.c **** //		return 0;
 892:../DGC_A230_Functions/DGC_A230_Motor_Functions.c **** //		while(!PP_IN);
 893:../DGC_A230_Functions/DGC_A230_Motor_Functions.c **** //	}
 894:../DGC_A230_Functions/DGC_A230_Motor_Functions.c **** //
 895:../DGC_A230_Functions/DGC_A230_Motor_Functions.c **** //	if ((!CH_IN)							// Close Command is activated
 896:../DGC_A230_Functions/DGC_A230_Motor_Functions.c **** //		&& (!((!ORO_IN) && (CFG_parameter.Clock_Contact_Mode == 0x00))))
 897:../DGC_A230_Functions/DGC_A230_Motor_Functions.c **** //	{
 898:../DGC_A230_Functions/DGC_A230_Motor_Functions.c **** //		Close_Command_Process();		// Close Command Procedure
 899:../DGC_A230_Functions/DGC_A230_Motor_Functions.c **** //		return 0;
 900:../DGC_A230_Functions/DGC_A230_Motor_Functions.c **** //	}
 901:../DGC_A230_Functions/DGC_A230_Motor_Functions.c **** //
 902:../DGC_A230_Functions/DGC_A230_Motor_Functions.c **** //	if (((CH_IN)
 903:../DGC_A230_Functions/DGC_A230_Motor_Functions.c **** //		&& (Last_Close_Command_State == COMMAND_PRESSED_STATE)
 904:../DGC_A230_Functions/DGC_A230_Motor_Functions.c **** //		&& (CFG_parameter.Manual_Function == 0x01))
 905:../DGC_A230_Functions/DGC_A230_Motor_Functions.c **** //		&& (!((!ORO_IN) && (CFG_parameter.Clock_Contact_Mode == 0x00))))
 906:../DGC_A230_Functions/DGC_A230_Motor_Functions.c **** //	{
 907:../DGC_A230_Functions/DGC_A230_Motor_Functions.c **** //		if (Machine_State == MACHINE_STATE_NORMAL_CLOSING)
 908:../DGC_A230_Functions/DGC_A230_Motor_Functions.c **** //		{
 909:../DGC_A230_Functions/DGC_A230_Motor_Functions.c **** //			Leaf_No1_State = GATE_STATE_CLOSING_PAUSE;
 910:../DGC_A230_Functions/DGC_A230_Motor_Functions.c **** //			Leaf_No2_State = GATE_STATE_CLOSING_PAUSE;
 911:../DGC_A230_Functions/DGC_A230_Motor_Functions.c **** //			__Do_Stop_Gate_Motor1(CLOSE_MOVING_DIRECTION);
 912:../DGC_A230_Functions/DGC_A230_Motor_Functions.c **** //			__Do_Stop_Gate_Motor2(CLOSE_MOVING_DIRECTION);
 913:../DGC_A230_Functions/DGC_A230_Motor_Functions.c **** //		}
 914:../DGC_A230_Functions/DGC_A230_Motor_Functions.c **** //		else if (Machine_State == MACHINE_STATE_PARTIAL_CLOSING)
 915:../DGC_A230_Functions/DGC_A230_Motor_Functions.c **** //		{
 916:../DGC_A230_Functions/DGC_A230_Motor_Functions.c **** //			Leaf_No1_State = GATE_STATE_CLOSING_PAUSE;
 917:../DGC_A230_Functions/DGC_A230_Motor_Functions.c **** //			__Do_Partial_Stop_Gate(CLOSE_MOVING_DIRECTION);
 918:../DGC_A230_Functions/DGC_A230_Motor_Functions.c **** //		}
 919:../DGC_A230_Functions/DGC_A230_Motor_Functions.c **** //		Last_Close_Command_State = COMMAND_RELEASE_STATE;
 920:../DGC_A230_Functions/DGC_A230_Motor_Functions.c **** //		return 0;
 921:../DGC_A230_Functions/DGC_A230_Motor_Functions.c **** //	}
 922:../DGC_A230_Functions/DGC_A230_Motor_Functions.c **** //
 923:../DGC_A230_Functions/DGC_A230_Motor_Functions.c **** //	if 	((!AP_IN)
 924:../DGC_A230_Functions/DGC_A230_Motor_Functions.c **** //		&& (!((!ORO_IN) && (CFG_parameter.Clock_Contact_Mode == 0x00))))
 925:../DGC_A230_Functions/DGC_A230_Motor_Functions.c **** //	{
 926:../DGC_A230_Functions/DGC_A230_Motor_Functions.c **** //		Open_Command_Process();		// Open Command Procedure
 927:../DGC_A230_Functions/DGC_A230_Motor_Functions.c **** //		return 0;
 928:../DGC_A230_Functions/DGC_A230_Motor_Functions.c **** //	}
 929:../DGC_A230_Functions/DGC_A230_Motor_Functions.c **** //
 930:../DGC_A230_Functions/DGC_A230_Motor_Functions.c **** //	if (((AP_IN)
 931:../DGC_A230_Functions/DGC_A230_Motor_Functions.c **** //		&& (Last_Open_Command_State == COMMAND_PRESSED_STATE)
 932:../DGC_A230_Functions/DGC_A230_Motor_Functions.c **** //		&& (CFG_parameter.Manual_Function == 0x01))
 933:../DGC_A230_Functions/DGC_A230_Motor_Functions.c **** //		&& (!((!ORO_IN) && (CFG_parameter.Clock_Contact_Mode == 0x00))))
 934:../DGC_A230_Functions/DGC_A230_Motor_Functions.c **** //	{
 935:../DGC_A230_Functions/DGC_A230_Motor_Functions.c **** //		if (Machine_State == MACHINE_STATE_NORMAL_OPENING)
 936:../DGC_A230_Functions/DGC_A230_Motor_Functions.c **** //			{
 937:../DGC_A230_Functions/DGC_A230_Motor_Functions.c **** //			Leaf_No1_State = GATE_STATE_OPENING_PAUSE;
 938:../DGC_A230_Functions/DGC_A230_Motor_Functions.c **** //			Leaf_No2_State = GATE_STATE_OPENING_PAUSE;
 939:../DGC_A230_Functions/DGC_A230_Motor_Functions.c **** //			__Do_Stop_Gate_Motor1(OPEN_MOVING_DIRECTION);
 940:../DGC_A230_Functions/DGC_A230_Motor_Functions.c **** //			__Do_Stop_Gate_Motor2(OPEN_MOVING_DIRECTION);
 941:../DGC_A230_Functions/DGC_A230_Motor_Functions.c **** //			}
 942:../DGC_A230_Functions/DGC_A230_Motor_Functions.c **** //		Last_Open_Command_State = COMMAND_RELEASE_STATE;
 943:../DGC_A230_Functions/DGC_A230_Motor_Functions.c **** //		return 0;
 944:../DGC_A230_Functions/DGC_A230_Motor_Functions.c **** //	}
 945:../DGC_A230_Functions/DGC_A230_Motor_Functions.c **** //	return 1;
 946:../DGC_A230_Functions/DGC_A230_Motor_Functions.c **** //	//code
 947:../DGC_A230_Functions/DGC_A230_Motor_Functions.c **** //}
 948:../DGC_A230_Functions/DGC_A230_Motor_Functions.c **** 
 949:../DGC_A230_Functions/DGC_A230_Motor_Functions.c **** uint8_t Recovery_Done = 0;
 950:../DGC_A230_Functions/DGC_A230_Motor_Functions.c **** uint8_t a1 = 0;
 951:../DGC_A230_Functions/DGC_A230_Motor_Functions.c **** uint8_t a2;
 952:../DGC_A230_Functions/DGC_A230_Motor_Functions.c **** uint8_t a3;
 953:../DGC_A230_Functions/DGC_A230_Motor_Functions.c **** void Auto_test_start()
 954:../DGC_A230_Functions/DGC_A230_Motor_Functions.c **** {
 1961                             		.loc 1 954 0
 1962                             		; start of function
 1963                             		; outgoing: 6 bytes
 1964                             		; uses ES register
 1965 0000 20 06                   		subw	sp, #6
 1966                             	.LCFI5:
 955:../DGC_A230_Functions/DGC_A230_Motor_Functions.c **** 	if(a1 == 0)
 1967                             		.loc 1 955 0
 1968 0002 8F 00 00                		mov	a, !_a1
 1969 0005 9D F0                   		mov	r8, a
 1970 0007 D4 F0                   		cmp0	r8
 1971 0009 61 E8                   		 skz
 1972 000b EC 6B 00 00             		 br	!!.L108
 956:../DGC_A230_Functions/DGC_A230_Motor_Functions.c **** 	{
 957:../DGC_A230_Functions/DGC_A230_Motor_Functions.c **** 		a1 = 1;
 1973                             		.loc 1 957 0
 1974 000f E5 00 00                		oneb	!_a1
 958:../DGC_A230_Functions/DGC_A230_Motor_Functions.c **** 
 959:../DGC_A230_Functions/DGC_A230_Motor_Functions.c **** 	    memcpy(&Parameter_Name[0], "rE", sizeof("--"));
 1975                             		.loc 1 959 0
 1976 0012 30 00 00                		movw	ax, #_Parameter_Name
 1977 0015 B8 00                   		movw	[sp], ax
 1978 0017 30 00 00                		movw	ax, #.LC0
 1979 001a B8 02                   		movw	[sp+2], ax
 1980 001c 30 03 00                		movw	ax, #3
 1981 001f B8 04                   		movw	[sp+4], ax
 1982 0021 FC 00 00 00             		call	!!%code(_memcpy)
 960:../DGC_A230_Functions/DGC_A230_Motor_Functions.c **** 		memcpy(&Parameter_Value[0], "Co", sizeof("--"));
 1983                             		.loc 1 960 0
 1984 0025 30 00 00                		movw	ax, #_Parameter_Value
 1985 0028 B8 00                   		movw	[sp], ax
 1986 002a 30 03 00                		movw	ax, #.LC1
 1987 002d B8 02                   		movw	[sp+2], ax
 1988 002f 30 03 00                		movw	ax, #3
 1989 0032 B8 04                   		movw	[sp+4], ax
 1990 0034 FC 00 00 00             		call	!!%code(_memcpy)
 961:../DGC_A230_Functions/DGC_A230_Motor_Functions.c **** 
 962:../DGC_A230_Functions/DGC_A230_Motor_Functions.c **** 		Display_Mode = PARA_MODE;
 1991                             		.loc 1 962 0
 1992 0038 51 03                   		mov	a, #3
 1993 003a 9F 00 00                		mov	!_Display_Mode, a
 963:../DGC_A230_Functions/DGC_A230_Motor_Functions.c **** 
 964:../DGC_A230_Functions/DGC_A230_Motor_Functions.c **** 		HMI_Flash_Count = 0;
 1994                             		.loc 1 964 0
 1995 003d F5 00 00                		clrb	!_HMI_Flash_Count
 965:../DGC_A230_Functions/DGC_A230_Motor_Functions.c **** 		HMI_Flash_Enable = 1;
 1996                             		.loc 1 965 0
 1997 0040 E5 00 00                		oneb	!_HMI_Flash_Enable
 966:../DGC_A230_Functions/DGC_A230_Motor_Functions.c **** 
 967:../DGC_A230_Functions/DGC_A230_Motor_Functions.c **** 		Flash_Enable = 1;
 1998                             		.loc 1 967 0
 1999 0043 E5 00 00                		oneb	!_Flash_Enable
 968:../DGC_A230_Functions/DGC_A230_Motor_Functions.c **** 		FLASH = 1;
 2000                             		.loc 1 968 0
 2001 0046 C9 F0 02 FF             		movw	r8, #-254
 2002 004a AD F0                   		movw	ax, r8
 2003 004c BD F4                   		movw	r12, ax
 2004 004e FA F4                   		movw	hl, r12
 2005 0050 8B                      		mov	a, [hl]
 2006 0051 9D F2                   		mov	r10, a
 2007 0053 6A F2 02                		or	r10, #2
 2008 0056 AD F0                   		movw	ax, r8
 2009 0058 EA F4                   		movw	de, r12
 2010 005a 8D F2                   		mov	a, r10
 2011 005c 99                      		mov	[de], a
 969:../DGC_A230_Functions/DGC_A230_Motor_Functions.c **** 
 970:../DGC_A230_Functions/DGC_A230_Motor_Functions.c **** 		Pre_Flash_Type = FLASH_ENABLE_TIMER;
 2012                             		.loc 1 970 0
 2013 005d E5 00 00                		oneb	!_Pre_Flash_Type
 971:../DGC_A230_Functions/DGC_A230_Motor_Functions.c **** 		Flash_Timer_Counter = 0;
 2014                             		.loc 1 971 0
 2015 0060 F5 00 00                		clrb	!_Flash_Timer_Counter
 972:../DGC_A230_Functions/DGC_A230_Motor_Functions.c **** 		Flash_Frequency_Config = FLASH_LIGHT_FREQUENCY_RECOVERY;
 2016                             		.loc 1 972 0
 2017 0063 51 03                   		mov	a, #3
 2018 0065 9F 00 00                		mov	!_Flash_Frequency_Config, a
 973:../DGC_A230_Functions/DGC_A230_Motor_Functions.c **** 		Flash_Frequency_Count = 0;
 2019                             		.loc 1 973 0
 2020 0068 F5 00 00                		clrb	!_Flash_Frequency_Count
 2021                             	.L108:
 974:../DGC_A230_Functions/DGC_A230_Motor_Functions.c **** 	}
 975:../DGC_A230_Functions/DGC_A230_Motor_Functions.c **** 	if(Flash_Timer_Counter >= 10 && a1 == 1)
 2022                             		.loc 1 975 0
 2023 006b 8F 00 00                		mov	a, !_Flash_Timer_Counter
 2024 006e 9D F0                   		mov	r8, a
 2025 0070 4A F0 09                		cmp	r8, #9
 2026 0073 61 E3                   		 skh
 2027 0075 EC 8C 00 00             		 br	!!.L109
 2028                             		.loc 1 975 0 is_stmt 0 discriminator 1
 2029 0079 8F 00 00                		mov	a, !_a1
 2030 007c 9D F0                   		mov	r8, a
 2031 007e 4A F0 01                		cmp	r8, #1
 2032 0081 61 E8                   		 skz
 2033 0083 EC 8C 00 00             		 br	!!.L109
 976:../DGC_A230_Functions/DGC_A230_Motor_Functions.c **** 	{
 977:../DGC_A230_Functions/DGC_A230_Motor_Functions.c **** 		a1 = 2;
 2034                             		.loc 1 977 0 is_stmt 1
 2035 0087 51 02                   		mov	a, #2
 2036 0089 9F 00 00                		mov	!_a1, a
 2037                             	.L109:
 978:../DGC_A230_Functions/DGC_A230_Motor_Functions.c **** 	}
 979:../DGC_A230_Functions/DGC_A230_Motor_Functions.c **** 	if(a1 == 2)
 2038                             		.loc 1 979 0
 2039 008c 8F 00 00                		mov	a, !_a1
 2040 008f 9D F0                   		mov	r8, a
 2041 0091 4A F0 02                		cmp	r8, #2
 2042 0094 61 E8                   		 skz
 2043 0096 EC 41 01 00             		 br	!!.L110
 980:../DGC_A230_Functions/DGC_A230_Motor_Functions.c **** 	{
 981:../DGC_A230_Functions/DGC_A230_Motor_Functions.c **** 		a1 = 3;
 2044                             		.loc 1 981 0
 2045 009a 51 03                   		mov	a, #3
 2046 009c 9F 00 00                		mov	!_a1, a
 982:../DGC_A230_Functions/DGC_A230_Motor_Functions.c **** 		Pre_Flash_Type = FLASH_DISABLE_TIMER;
 2047                             		.loc 1 982 0
 2048 009f F5 00 00                		clrb	!_Pre_Flash_Type
 983:../DGC_A230_Functions/DGC_A230_Motor_Functions.c **** 
 984:../DGC_A230_Functions/DGC_A230_Motor_Functions.c **** 		FLASH = 1;
 2049                             		.loc 1 984 0
 2050 00a2 C9 F0 02 FF             		movw	r8, #-254
 2051 00a6 AD F0                   		movw	ax, r8
 2052 00a8 BD F4                   		movw	r12, ax
 2053 00aa FA F4                   		movw	hl, r12
 2054 00ac 8B                      		mov	a, [hl]
 2055 00ad 9D F2                   		mov	r10, a
 2056 00af 6A F2 02                		or	r10, #2
 2057 00b2 AD F0                   		movw	ax, r8
 2058 00b4 EA F4                   		movw	de, r12
 2059 00b6 8D F2                   		mov	a, r10
 2060 00b8 99                      		mov	[de], a
 985:../DGC_A230_Functions/DGC_A230_Motor_Functions.c **** 		Recovery_Done = 0;
 2061                             		.loc 1 985 0
 2062 00b9 F5 00 00                		clrb	!_Recovery_Done
 986:../DGC_A230_Functions/DGC_A230_Motor_Functions.c **** 		if (CFG_parameter.Number_Of_Motors == 0x02)				// when using 2 Motors
 2063                             		.loc 1 986 0
 2064 00bc 8F 00 00                		mov	a, !_CFG_parameter+1
 2065 00bf 9D F0                   		mov	r8, a
 2066 00c1 4A F0 02                		cmp	r8, #2
 2067 00c4 61 E8                   		 skz
 2068 00c6 EC 05 01 00             		 br	!!.L111
 2069                             	.LBB3:
 987:../DGC_A230_Functions/DGC_A230_Motor_Functions.c **** 		{
 988:../DGC_A230_Functions/DGC_A230_Motor_Functions.c **** 
 989:../DGC_A230_Functions/DGC_A230_Motor_Functions.c **** 			M2_Torque_Setting = CFG_parameter.Motor_Torque_Maneuver;
 2070                             		.loc 1 989 0
 2071 00ca AF 00 00                		movw	ax, !_CFG_parameter+72
 2072 00cd BD F0                   		movw	r8, ax
 2073 00cf BF 00 00                		movw	!_M2_Torque_Setting, ax
 990:../DGC_A230_Functions/DGC_A230_Motor_Functions.c **** 
 991:../DGC_A230_Functions/DGC_A230_Motor_Functions.c **** 			M2_Timestamp = UNDEFINE_TIMESTAMP;
 2074                             		.loc 1 991 0
 2075 00d2 F5 00 00                		clrb	!_M2_Timestamp
 992:../DGC_A230_Functions/DGC_A230_Motor_Functions.c **** 
 993:../DGC_A230_Functions/DGC_A230_Motor_Functions.c **** 			TRIG_EN = 1;			// Enable Pulse out to control Motor
 2076                             		.loc 1 993 0
 2077 00d5 C9 F0 03 FF             		movw	r8, #-253
 2078 00d9 AD F0                   		movw	ax, r8
 2079 00db BD F4                   		movw	r12, ax
 2080 00dd FA F4                   		movw	hl, r12
 2081 00df 8B                      		mov	a, [hl]
 2082 00e0 9D F2                   		mov	r10, a
 2083 00e2 6A F2 01                		or	r10, #1
 2084 00e5 AD F0                   		movw	ax, r8
 2085 00e7 EA F4                   		movw	de, r12
 2086 00e9 8D F2                   		mov	a, r10
 2087 00eb 99                      		mov	[de], a
 994:../DGC_A230_Functions/DGC_A230_Motor_Functions.c **** 			R_INTC0_Start();												// Enable Sync to control, Motor 1 start opening
 2088                             		.loc 1 994 0
 2089 00ec FC 00 00 00             		call	!!%code(_R_INTC0_Start)
 995:../DGC_A230_Functions/DGC_A230_Motor_Functions.c **** 
 996:../DGC_A230_Functions/DGC_A230_Motor_Functions.c **** 			Motor2_Close_Enable();											// Enable Motor #2 Open
 2090                             		.loc 1 996 0
 2091 00f0 FC 00 00 00             		call	!!%code(_Motor2_Close_Enable)
 997:../DGC_A230_Functions/DGC_A230_Motor_Functions.c **** 			Leaf_No2_State = GATE_STATE_CLOSING;
 2092                             		.loc 1 997 0
 2093 00f4 51 04                   		mov	a, #4
 2094 00f6 9F 00 00                		mov	!_Leaf_No2_State, a
 998:../DGC_A230_Functions/DGC_A230_Motor_Functions.c **** 
 999:../DGC_A230_Functions/DGC_A230_Motor_Functions.c **** 
1000:../DGC_A230_Functions/DGC_A230_Motor_Functions.c **** 			Tick_Count = 0;													// Reset Tick count
 2095                             		.loc 1 1000 0
 2096 00f9 F6                      		clrw	ax
 2097 00fa BF 00 00                		movw	!_Tick_Count, ax
1001:../DGC_A230_Functions/DGC_A230_Motor_Functions.c **** 			M2_Tick_Count = 0;												// Start counter to M2
 2098                             		.loc 1 1001 0
 2099 00fd F6                      		clrw	ax
 2100 00fe BF 00 00                		movw	!_M2_Tick_Count, ax
1002:../DGC_A230_Functions/DGC_A230_Motor_Functions.c **** 
1003:../DGC_A230_Functions/DGC_A230_Motor_Functions.c **** 			R_TAU0_Channel1_Start();										// Start Timer channel 1
 2101                             		.loc 1 1003 0
 2102 0101 FC 00 00 00             		call	!!%code(_R_TAU0_Channel1_Start)
 2103                             	.L111:
 2104                             	.LBE3:
1004:../DGC_A230_Functions/DGC_A230_Motor_Functions.c **** 		}
1005:../DGC_A230_Functions/DGC_A230_Motor_Functions.c **** 
1006:../DGC_A230_Functions/DGC_A230_Motor_Functions.c **** 		M1_Torque_Setting = CFG_parameter.Motor_Torque_Maneuver;
 2105                             		.loc 1 1006 0
 2106 0105 AF 00 00                		movw	ax, !_CFG_parameter+72
 2107 0108 BD F0                   		movw	r8, ax
 2108 010a BF 00 00                		movw	!_M1_Torque_Setting, ax
1007:../DGC_A230_Functions/DGC_A230_Motor_Functions.c **** 
1008:../DGC_A230_Functions/DGC_A230_Motor_Functions.c **** 		M1_Timestamp = UNDEFINE_TIMESTAMP;
 2109                             		.loc 1 1008 0
 2110 010d F5 00 00                		clrb	!_M1_Timestamp
1009:../DGC_A230_Functions/DGC_A230_Motor_Functions.c **** 
1010:../DGC_A230_Functions/DGC_A230_Motor_Functions.c **** 
1011:../DGC_A230_Functions/DGC_A230_Motor_Functions.c **** 		if (CFG_parameter.Number_Of_Motors == 0x01)				// when using 1 Motors
 2111                             		.loc 1 1011 0
 2112 0110 8F 00 00                		mov	a, !_CFG_parameter+1
 2113 0113 9D F0                   		mov	r8, a
 2114 0115 4A F0 01                		cmp	r8, #1
 2115 0118 61 E8                   		 skz
 2116 011a EC 41 01 00             		 br	!!.L110
 2117                             	.LBB4:
1012:../DGC_A230_Functions/DGC_A230_Motor_Functions.c **** 		{
1013:../DGC_A230_Functions/DGC_A230_Motor_Functions.c **** 			TRIG_EN = 1;			// Enable Pulse out to control Motor
 2118                             		.loc 1 1013 0
 2119 011e C9 F0 03 FF             		movw	r8, #-253
 2120 0122 AD F0                   		movw	ax, r8
 2121 0124 BD F4                   		movw	r12, ax
 2122 0126 FA F4                   		movw	hl, r12
 2123 0128 8B                      		mov	a, [hl]
 2124 0129 9D F2                   		mov	r10, a
 2125 012b 6A F2 01                		or	r10, #1
 2126 012e AD F0                   		movw	ax, r8
 2127 0130 EA F4                   		movw	de, r12
 2128 0132 8D F2                   		mov	a, r10
 2129 0134 99                      		mov	[de], a
1014:../DGC_A230_Functions/DGC_A230_Motor_Functions.c **** 			R_INTC0_Start();												// Enable Sync to control, Motor 1 start opening
 2130                             		.loc 1 1014 0
 2131 0135 FC 00 00 00             		call	!!%code(_R_INTC0_Start)
1015:../DGC_A230_Functions/DGC_A230_Motor_Functions.c **** 
1016:../DGC_A230_Functions/DGC_A230_Motor_Functions.c **** 			Tick_Count = 0;													// Reset Tick count
 2132                             		.loc 1 1016 0
 2133 0139 F6                      		clrw	ax
 2134 013a BF 00 00                		movw	!_Tick_Count, ax
1017:../DGC_A230_Functions/DGC_A230_Motor_Functions.c **** 			R_TAU0_Channel1_Start();										// Start Timer channel 1
 2135                             		.loc 1 1017 0
 2136 013d FC 00 00 00             		call	!!%code(_R_TAU0_Channel1_Start)
 2137                             	.L110:
 2138                             	.LBE4:
1018:../DGC_A230_Functions/DGC_A230_Motor_Functions.c **** 
1019:../DGC_A230_Functions/DGC_A230_Motor_Functions.c **** 		}
1020:../DGC_A230_Functions/DGC_A230_Motor_Functions.c **** 		else
1021:../DGC_A230_Functions/DGC_A230_Motor_Functions.c **** 		{
1022:../DGC_A230_Functions/DGC_A230_Motor_Functions.c **** 
1023:../DGC_A230_Functions/DGC_A230_Motor_Functions.c **** //						while (Tick_Count < CFG_parameter.Motor_No1_Close_Delay_Time);
1024:../DGC_A230_Functions/DGC_A230_Motor_Functions.c **** 
1025:../DGC_A230_Functions/DGC_A230_Motor_Functions.c **** 		}
1026:../DGC_A230_Functions/DGC_A230_Motor_Functions.c **** 	}
1027:../DGC_A230_Functions/DGC_A230_Motor_Functions.c **** 
1028:../DGC_A230_Functions/DGC_A230_Motor_Functions.c **** 	if((Tick_Count > CFG_parameter.Motor_No1_Close_Delay_Time) && a1 == 3)
 2139                             		.loc 1 1028 0
 2140 0141 AF 00 00                		movw	ax, !_CFG_parameter+42
 2141 0144 BD F2                   		movw	r10, ax
 2142 0146 AF 00 00                		movw	ax, !_Tick_Count
 2143 0149 BD F0                   		movw	r8, ax
 2144 014b AD F2                   		movw	ax, r10
 2145 014d 46 F0                   		cmpw	ax, r8
 2146 014f 61 C8                   		 skc
 2147 0151 EC 75 01 00             		 br	!!.L107
 2148                             		.loc 1 1028 0 is_stmt 0 discriminator 1
 2149 0155 8F 00 00                		mov	a, !_a1
 2150 0158 9D F0                   		mov	r8, a
 2151 015a 4A F0 03                		cmp	r8, #3
 2152 015d 61 E8                   		 skz
 2153 015f EC 75 01 00             		 br	!!.L107
1029:../DGC_A230_Functions/DGC_A230_Motor_Functions.c **** 	{
1030:../DGC_A230_Functions/DGC_A230_Motor_Functions.c **** 		a1 = 4;
 2154                             		.loc 1 1030 0 is_stmt 1
 2155 0163 51 04                   		mov	a, #4
 2156 0165 9F 00 00                		mov	!_a1, a
1031:../DGC_A230_Functions/DGC_A230_Motor_Functions.c **** 		M1_Tick_Count = 0;
 2157                             		.loc 1 1031 0
 2158 0168 F6                      		clrw	ax
 2159 0169 BF 00 00                		movw	!_M1_Tick_Count, ax
1032:../DGC_A230_Functions/DGC_A230_Motor_Functions.c **** 	//			if (Leaf_No1_State != GATE_STATE_CLOSED)
1033:../DGC_A230_Functions/DGC_A230_Motor_Functions.c **** 	//			{
1034:../DGC_A230_Functions/DGC_A230_Motor_Functions.c **** 			Motor1_Close_Enable();											// Enable Motor #2 Open
 2160                             		.loc 1 1034 0
 2161 016c FC 00 00 00             		call	!!%code(_Motor1_Close_Enable)
1035:../DGC_A230_Functions/DGC_A230_Motor_Functions.c **** 			Leaf_No1_State = GATE_STATE_CLOSING;
 2162                             		.loc 1 1035 0
 2163 0170 51 04                   		mov	a, #4
 2164 0172 9F 00 00                		mov	!_Leaf_No1_State, a
 2165                             	.L107:
1036:../DGC_A230_Functions/DGC_A230_Motor_Functions.c **** 	//			}
1037:../DGC_A230_Functions/DGC_A230_Motor_Functions.c **** 	}
1038:../DGC_A230_Functions/DGC_A230_Motor_Functions.c **** //		while (Flash_Timer_Counter < 10);									// Flashing warning signal 5 second prior to recovery
1039:../DGC_A230_Functions/DGC_A230_Motor_Functions.c **** 
1040:../DGC_A230_Functions/DGC_A230_Motor_Functions.c **** }
 2166                             		.loc 1 1040 0
 2167 0175 10 06                   		addw	sp, #6
 2168 0177 D7                      		ret
 2169                             	.LFE14:
 2171                             		.section	.text.Auto_test_end,"ax",@progbits
 2172                             		.global	_Auto_test_end
 2174                             	_Auto_test_end:
 2175                             	.LFB15:
1041:../DGC_A230_Functions/DGC_A230_Motor_Functions.c **** void Auto_test_end()
1042:../DGC_A230_Functions/DGC_A230_Motor_Functions.c **** {
 2176                             		.loc 1 1042 0
1043:../DGC_A230_Functions/DGC_A230_Motor_Functions.c **** 	if (CFG_parameter.Encoder_Config == 0x00)			// Without Encoder is installed
 2177                             		.loc 1 1043 0
 2178 0000 8F 00 00                		mov	a, !_CFG_parameter+97
 2179 0003 9D F0                   		mov	r8, a
 2180 0005 D4 F0                   		cmp0	r8
 2181 0007 61 E8                   		 skz
 2182 0009 EC 8F 01 00             		 br	!!.L114
1044:../DGC_A230_Functions/DGC_A230_Motor_Functions.c **** 	{
1045:../DGC_A230_Functions/DGC_A230_Motor_Functions.c **** 		if (Recovery_Done == 0)				// Start Closing
 2183                             		.loc 1 1045 0
 2184 000d 8F 00 00                		mov	a, !_Recovery_Done
 2185 0010 9D F0                   		mov	r8, a
 2186 0012 D4 F0                   		cmp0	r8
 2187 0014 61 E8                   		 skz
 2188 0016 EC 17 01 00             		 br	!!.L115
1046:../DGC_A230_Functions/DGC_A230_Motor_Functions.c **** 		{
1047:../DGC_A230_Functions/DGC_A230_Motor_Functions.c **** 
1048:../DGC_A230_Functions/DGC_A230_Motor_Functions.c **** //			if ((M1_Tick_Count >= (CFG_parameter.M1_Travel_Time)) 	// Over time
1049:../DGC_A230_Functions/DGC_A230_Motor_Functions.c **** //				|| (FCC1_IN && (CFG_parameter.Limit_Switch_Config == 0x01)))								// Open Limit switch
1050:../DGC_A230_Functions/DGC_A230_Motor_Functions.c **** //			{
1051:../DGC_A230_Functions/DGC_A230_Motor_Functions.c **** //				Motor1_Disable();
1052:../DGC_A230_Functions/DGC_A230_Motor_Functions.c **** //				Leaf_No1_State = GATE_STATE_CLOSED;
1053:../DGC_A230_Functions/DGC_A230_Motor_Functions.c **** //			}
1054:../DGC_A230_Functions/DGC_A230_Motor_Functions.c **** //
1055:../DGC_A230_Functions/DGC_A230_Motor_Functions.c **** //			if (CFG_parameter.Number_Of_Motors == 0x02)				// when using 2 Motors
1056:../DGC_A230_Functions/DGC_A230_Motor_Functions.c **** //			{
1057:../DGC_A230_Functions/DGC_A230_Motor_Functions.c **** //
1058:../DGC_A230_Functions/DGC_A230_Motor_Functions.c **** //				if ((M2_Tick_Count >= (CFG_parameter.M2_Travel_Time)) 	// Over time
1059:../DGC_A230_Functions/DGC_A230_Motor_Functions.c **** //					|| (FCC2_IN && (CFG_parameter.Limit_Switch_Config == 0x01)))								// Open Limit switch
1060:../DGC_A230_Functions/DGC_A230_Motor_Functions.c **** //				{
1061:../DGC_A230_Functions/DGC_A230_Motor_Functions.c **** //					Motor2_Disable();
1062:../DGC_A230_Functions/DGC_A230_Motor_Functions.c **** //					Leaf_No2_State = GATE_STATE_CLOSED;
1063:../DGC_A230_Functions/DGC_A230_Motor_Functions.c **** //				}
1064:../DGC_A230_Functions/DGC_A230_Motor_Functions.c **** //			}
1065:../DGC_A230_Functions/DGC_A230_Motor_Functions.c **** //			Auto_Wait_Recorery_Motor2();
1066:../DGC_A230_Functions/DGC_A230_Motor_Functions.c **** //			Auto_Wait_Recorery_Motor1();
1067:../DGC_A230_Functions/DGC_A230_Motor_Functions.c **** 			if(a1 == 4)
 2189                             		.loc 1 1067 0
 2190 001a 8F 00 00                		mov	a, !_a1
 2191 001d 9D F0                   		mov	r8, a
 2192 001f 4A F0 04                		cmp	r8, #4
 2193 0022 61 E8                   		 skz
 2194 0024 EC 2D 00 00             		 br	!!.L116
1068:../DGC_A230_Functions/DGC_A230_Motor_Functions.c **** 			{
1069:../DGC_A230_Functions/DGC_A230_Motor_Functions.c **** 				a1 = 5;
 2195                             		.loc 1 1069 0
 2196 0028 51 05                   		mov	a, #5
 2197 002a 9F 00 00                		mov	!_a1, a
 2198                             	.L116:
1070:../DGC_A230_Functions/DGC_A230_Motor_Functions.c **** 
1071:../DGC_A230_Functions/DGC_A230_Motor_Functions.c **** 			}
1072:../DGC_A230_Functions/DGC_A230_Motor_Functions.c **** 			if(a1 == 5)
 2199                             		.loc 1 1072 0
 2200 002d 8F 00 00                		mov	a, !_a1
 2201 0030 9D F0                   		mov	r8, a
 2202 0032 4A F0 05                		cmp	r8, #5
 2203 0035 61 E8                   		 skz
 2204 0037 EC 40 00 00             		 br	!!.L117
1073:../DGC_A230_Functions/DGC_A230_Motor_Functions.c **** 			{
1074:../DGC_A230_Functions/DGC_A230_Motor_Functions.c **** 				a1 = 6;
 2205                             		.loc 1 1074 0
 2206 003b 51 06                   		mov	a, #6
 2207 003d 9F 00 00                		mov	!_a1, a
 2208                             	.L117:
1075:../DGC_A230_Functions/DGC_A230_Motor_Functions.c **** 
1076:../DGC_A230_Functions/DGC_A230_Motor_Functions.c **** 			}
1077:../DGC_A230_Functions/DGC_A230_Motor_Functions.c **** 
1078:../DGC_A230_Functions/DGC_A230_Motor_Functions.c **** 			if (CFG_parameter.Number_Of_Motors == 0x02)				// when using 2 Motors
 2209                             		.loc 1 1078 0
 2210 0040 8F 00 00                		mov	a, !_CFG_parameter+1
 2211 0043 9D F0                   		mov	r8, a
 2212 0045 4A F0 02                		cmp	r8, #2
 2213 0048 61 E8                   		 skz
 2214 004a EC 8E 00 00             		 br	!!.L118
1079:../DGC_A230_Functions/DGC_A230_Motor_Functions.c **** 			{
1080:../DGC_A230_Functions/DGC_A230_Motor_Functions.c **** 
1081:../DGC_A230_Functions/DGC_A230_Motor_Functions.c **** 				if ((M2_Tick_Count >= (CFG_parameter.M2_Travel_Time)) 	// Over time
 2215                             		.loc 1 1081 0
 2216 004e AF 00 00                		movw	ax, !_CFG_parameter+14
 2217 0051 BD F2                   		movw	r10, ax
 2218 0053 AF 00 00                		movw	ax, !_M2_Tick_Count
 2219 0056 BD F0                   		movw	r8, ax
 2220 0058 AD F2                   		movw	ax, r10
 2221 005a 46 F0                   		cmpw	ax, r8
 2222 005c 61 E3                   		 skh
 2223 005e EC 87 00 00             		 br	!!.L119
1082:../DGC_A230_Functions/DGC_A230_Motor_Functions.c **** 					|| (FCC2_IN && (CFG_parameter.Limit_Switch_Config == 0x01)))								// Open Limit switch
 2224                             		.loc 1 1082 0
 2225 0062 C9 F0 0C FF             		movw	r8, #-244
 2226 0066 AD F0                   		movw	ax, r8
 2227 0068 BD F2                   		movw	r10, ax
 2228 006a EA F2                   		movw	de, r10
 2229 006c 89                      		mov	a, [de]
 2230 006d 5C 01                   		and	a, #1
 2231 006f 9D F0                   		mov	r8, a
 2232 0071 D4 F0                   		cmp0	r8
 2233 0073 61 F8                   		 sknz
 2234 0075 EC 8E 00 00             		 br	!!.L118
 2235                             		.loc 1 1082 0 is_stmt 0 discriminator 1
 2236 0079 8F 00 00                		mov	a, !_CFG_parameter+96
 2237 007c 9D F0                   		mov	r8, a
 2238 007e 4A F0 01                		cmp	r8, #1
 2239 0081 61 E8                   		 skz
 2240 0083 EC 8E 00 00             		 br	!!.L118
 2241                             	.L119:
1083:../DGC_A230_Functions/DGC_A230_Motor_Functions.c **** 				{
1084:../DGC_A230_Functions/DGC_A230_Motor_Functions.c **** 					Motor2_Disable();
 2242                             		.loc 1 1084 0 is_stmt 1
 2243 0087 FC 00 00 00             		call	!!%code(_Motor2_Disable)
1085:../DGC_A230_Functions/DGC_A230_Motor_Functions.c **** 					Leaf_No2_State = GATE_STATE_CLOSED;
 2244                             		.loc 1 1085 0
 2245 008b E5 00 00                		oneb	!_Leaf_No2_State
 2246                             	.L118:
1086:../DGC_A230_Functions/DGC_A230_Motor_Functions.c **** 				}
1087:../DGC_A230_Functions/DGC_A230_Motor_Functions.c **** 			}
1088:../DGC_A230_Functions/DGC_A230_Motor_Functions.c **** 			if ((M1_Tick_Count >= (CFG_parameter.M1_Travel_Time)) 	// Over time
 2247                             		.loc 1 1088 0
 2248 008e AF 00 00                		movw	ax, !_CFG_parameter+12
 2249 0091 BD F2                   		movw	r10, ax
 2250 0093 AF 00 00                		movw	ax, !_M1_Tick_Count
 2251 0096 BD F0                   		movw	r8, ax
 2252 0098 AD F2                   		movw	ax, r10
 2253 009a 46 F0                   		cmpw	ax, r8
 2254 009c 61 E3                   		 skh
 2255 009e EC CA 00 00             		 br	!!.L120
1089:../DGC_A230_Functions/DGC_A230_Motor_Functions.c **** 				|| (FCC1_IN && (CFG_parameter.Limit_Switch_Config == 0x01)))								// Open Limit switch
 2256                             		.loc 1 1089 0
 2257 00a2 C9 F0 04 FF             		movw	r8, #-252
 2258 00a6 AD F0                   		movw	ax, r8
 2259 00a8 BD F4                   		movw	r12, ax
 2260 00aa FA F4                   		movw	hl, r12
 2261 00ac 8B                      		mov	a, [hl]
 2262 00ad 9D F0                   		mov	r8, a
 2263 00af 31 2A                   		shr	a, 2
 2264 00b1 9D F0                   		mov	r8, a
 2265 00b3 5A F0 01                		and	r8, #1
 2266 00b6 61 F8                   		sknz
 2267 00b8 EC D1 00 00             		 br	!!.L121
 2268                             		 # zero-comparison eliminated
 2269                             		.loc 1 1089 0 is_stmt 0 discriminator 1
 2270 00bc 8F 00 00                		mov	a, !_CFG_parameter+96
 2271 00bf 9D F0                   		mov	r8, a
 2272 00c1 4A F0 01                		cmp	r8, #1
 2273 00c4 61 E8                   		 skz
 2274 00c6 EC D1 00 00             		 br	!!.L121
 2275                             	.L120:
1090:../DGC_A230_Functions/DGC_A230_Motor_Functions.c **** 			{
1091:../DGC_A230_Functions/DGC_A230_Motor_Functions.c **** 				Motor1_Disable();
 2276                             		.loc 1 1091 0 is_stmt 1
 2277 00ca FC 00 00 00             		call	!!%code(_Motor1_Disable)
1092:../DGC_A230_Functions/DGC_A230_Motor_Functions.c **** 				Leaf_No1_State = GATE_STATE_CLOSED;
 2278                             		.loc 1 1092 0
 2279 00ce E5 00 00                		oneb	!_Leaf_No1_State
 2280                             	.L121:
1093:../DGC_A230_Functions/DGC_A230_Motor_Functions.c **** 			}
1094:../DGC_A230_Functions/DGC_A230_Motor_Functions.c **** 			if (CFG_parameter.Number_Of_Motors == 0x02)				// when using 2 Motors
 2281                             		.loc 1 1094 0
 2282 00d1 8F 00 00                		mov	a, !_CFG_parameter+1
 2283 00d4 9D F0                   		mov	r8, a
 2284 00d6 4A F0 02                		cmp	r8, #2
 2285 00d9 61 E8                   		 skz
 2286 00db EC 02 01 00             		 br	!!.L122
1095:../DGC_A230_Functions/DGC_A230_Motor_Functions.c **** 			{
1096:../DGC_A230_Functions/DGC_A230_Motor_Functions.c **** 				if ((Leaf_No1_State == GATE_STATE_CLOSED) && (Leaf_No2_State == GATE_STATE_CLOSED))
 2287                             		.loc 1 1096 0
 2288 00df 8F 00 00                		mov	a, !_Leaf_No1_State
 2289 00e2 9D F0                   		mov	r8, a
 2290 00e4 4A F0 01                		cmp	r8, #1
 2291 00e7 61 E8                   		 skz
 2292 00e9 EC 1C 01 00             		 br	!!.L125
 2293                             		.loc 1 1096 0 is_stmt 0 discriminator 1
 2294 00ed 8F 00 00                		mov	a, !_Leaf_No2_State
 2295 00f0 9D F0                   		mov	r8, a
 2296 00f2 4A F0 01                		cmp	r8, #1
 2297 00f5 61 E8                   		 skz
 2298 00f7 EC 1C 01 00             		 br	!!.L125
1097:../DGC_A230_Functions/DGC_A230_Motor_Functions.c **** 				{
1098:../DGC_A230_Functions/DGC_A230_Motor_Functions.c **** 					Recovery_Done = 1;
 2299                             		.loc 1 1098 0 is_stmt 1
 2300 00fb E5 00 00                		oneb	!_Recovery_Done
 2301 00fe EC 1C 01 00             		br	!!.L125
 2302                             	.L122:
1099:../DGC_A230_Functions/DGC_A230_Motor_Functions.c **** 				}
1100:../DGC_A230_Functions/DGC_A230_Motor_Functions.c **** 			}
1101:../DGC_A230_Functions/DGC_A230_Motor_Functions.c **** 			else
1102:../DGC_A230_Functions/DGC_A230_Motor_Functions.c **** 			{
1103:../DGC_A230_Functions/DGC_A230_Motor_Functions.c **** 				if (Leaf_No1_State == GATE_STATE_CLOSED)
 2303                             		.loc 1 1103 0
 2304 0102 8F 00 00                		mov	a, !_Leaf_No1_State
 2305 0105 9D F0                   		mov	r8, a
 2306 0107 4A F0 01                		cmp	r8, #1
 2307 010a 61 E8                   		 skz
 2308 010c EC 1C 01 00             		 br	!!.L125
1104:../DGC_A230_Functions/DGC_A230_Motor_Functions.c **** 				{
1105:../DGC_A230_Functions/DGC_A230_Motor_Functions.c **** 					Recovery_Done = 1;
 2309                             		.loc 1 1105 0
 2310 0110 E5 00 00                		oneb	!_Recovery_Done
 2311 0113 EC 1C 01 00             		br	!!.L125
 2312                             	.L115:
1106:../DGC_A230_Functions/DGC_A230_Motor_Functions.c **** 				}
1107:../DGC_A230_Functions/DGC_A230_Motor_Functions.c **** 			}
1108:../DGC_A230_Functions/DGC_A230_Motor_Functions.c **** 		}
1109:../DGC_A230_Functions/DGC_A230_Motor_Functions.c **** 		else {a1 = 7;}
 2313                             		.loc 1 1109 0
 2314 0117 51 07                   		mov	a, #7
 2315 0119 9F 00 00                		mov	!_a1, a
 2316                             	.L125:
1110:../DGC_A230_Functions/DGC_A230_Motor_Functions.c **** 		if(a1 == 7)
 2317                             		.loc 1 1110 0
 2318 011c 8F 00 00                		mov	a, !_a1
 2319 011f 9D F0                   		mov	r8, a
 2320 0121 4A F0 07                		cmp	r8, #7
 2321 0124 61 E8                   		 skz
 2322 0126 EC 8F 01 00             		 br	!!.L114
 2323                             	.LBB5:
1111:../DGC_A230_Functions/DGC_A230_Motor_Functions.c **** 		{
1112:../DGC_A230_Functions/DGC_A230_Motor_Functions.c **** 			a1 = 8;
 2324                             		.loc 1 1112 0
 2325 012a 51 08                   		mov	a, #8
 2326 012c 9F 00 00                		mov	!_a1, a
1113:../DGC_A230_Functions/DGC_A230_Motor_Functions.c **** 			R_TAU0_Channel1_Stop();											// Stop Timer channel 1
 2327                             		.loc 1 1113 0
 2328 012f FC 00 00 00             		call	!!%code(_R_TAU0_Channel1_Stop)
1114:../DGC_A230_Functions/DGC_A230_Motor_Functions.c **** 			R_INTC0_Stop();													// Disable Sync to control
 2329                             		.loc 1 1114 0
 2330 0133 FC 00 00 00             		call	!!%code(_R_INTC0_Stop)
1115:../DGC_A230_Functions/DGC_A230_Motor_Functions.c **** 			TRIG_EN = 0;			// Enable Pulse out to control Motor
 2331                             		.loc 1 1115 0
 2332 0137 C9 F0 03 FF             		movw	r8, #-253
 2333 013b AD F0                   		movw	ax, r8
 2334 013d BD F4                   		movw	r12, ax
 2335 013f FA F4                   		movw	hl, r12
 2336 0141 8B                      		mov	a, [hl]
 2337 0142 9D F2                   		mov	r10, a
 2338 0144 5A F2 FE                		and	r10, #-2
 2339 0147 AD F0                   		movw	ax, r8
 2340 0149 EA F4                   		movw	de, r12
 2341 014b 8D F2                   		mov	a, r10
 2342 014d 99                      		mov	[de], a
1116:../DGC_A230_Functions/DGC_A230_Motor_Functions.c **** 			M1_PWM = 1;					// Clear Trigger Pulse Output
 2343                             		.loc 1 1116 0
 2344 014e C9 F0 00 FF             		movw	r8, #-256
 2345 0152 AD F0                   		movw	ax, r8
 2346 0154 BD F4                   		movw	r12, ax
 2347 0156 FA F4                   		movw	hl, r12
 2348 0158 8B                      		mov	a, [hl]
 2349 0159 9D F2                   		mov	r10, a
 2350 015b 6A F2 40                		or	r10, #64
 2351 015e AD F0                   		movw	ax, r8
 2352 0160 EA F4                   		movw	de, r12
 2353 0162 8D F2                   		mov	a, r10
 2354 0164 99                      		mov	[de], a
1117:../DGC_A230_Functions/DGC_A230_Motor_Functions.c **** 			M2_PWM = 1;					// Clear M2 PWM Pulse Output
 2355                             		.loc 1 1117 0
 2356 0165 C9 F0 00 FF             		movw	r8, #-256
 2357 0169 AD F0                   		movw	ax, r8
 2358 016b BD F4                   		movw	r12, ax
 2359 016d FA F4                   		movw	hl, r12
 2360 016f 8B                      		mov	a, [hl]
 2361 0170 9D F2                   		mov	r10, a
 2362 0172 6A F2 20                		or	r10, #32
 2363 0175 AD F0                   		movw	ax, r8
 2364 0177 EA F4                   		movw	de, r12
 2365 0179 8D F2                   		mov	a, r10
 2366 017b 99                      		mov	[de], a
1118:../DGC_A230_Functions/DGC_A230_Motor_Functions.c **** 
1119:../DGC_A230_Functions/DGC_A230_Motor_Functions.c **** 			M1_Time_Position = 0;
 2367                             		.loc 1 1119 0
 2368 017c F6                      		clrw	ax
 2369 017d BF 00 00                		movw	!_M1_Time_Position, ax
1120:../DGC_A230_Functions/DGC_A230_Motor_Functions.c **** 			M1_Last_Time_Position = 0;
 2370                             		.loc 1 1120 0
 2371 0180 F6                      		clrw	ax
 2372 0181 BF 00 00                		movw	!_M1_Last_Time_Position, ax
1121:../DGC_A230_Functions/DGC_A230_Motor_Functions.c **** 			M2_Time_Position = 0;
 2373                             		.loc 1 1121 0
 2374 0184 F6                      		clrw	ax
 2375 0185 BF 00 00                		movw	!_M2_Time_Position, ax
1122:../DGC_A230_Functions/DGC_A230_Motor_Functions.c **** 			M2_Last_Time_Position = 0;
 2376                             		.loc 1 1122 0
 2377 0188 F6                      		clrw	ax
 2378 0189 BF 00 00                		movw	!_M2_Last_Time_Position, ax
1123:../DGC_A230_Functions/DGC_A230_Motor_Functions.c **** 
1124:../DGC_A230_Functions/DGC_A230_Motor_Functions.c **** 			Power_failure = POWER_GOOD_STATE;
 2379                             		.loc 1 1124 0
 2380 018c F5 00 00                		clrb	!_Power_failure
 2381                             	.L114:
 2382                             	.LBE5:
1125:../DGC_A230_Functions/DGC_A230_Motor_Functions.c **** 		}
1126:../DGC_A230_Functions/DGC_A230_Motor_Functions.c **** 
1127:../DGC_A230_Functions/DGC_A230_Motor_Functions.c **** 	}
1128:../DGC_A230_Functions/DGC_A230_Motor_Functions.c **** 	else												// With Encoder is installed
1129:../DGC_A230_Functions/DGC_A230_Motor_Functions.c **** 	{
1130:../DGC_A230_Functions/DGC_A230_Motor_Functions.c **** 
1131:../DGC_A230_Functions/DGC_A230_Motor_Functions.c **** 	}
1132:../DGC_A230_Functions/DGC_A230_Motor_Functions.c **** 	if(a1 == 8)
 2383                             		.loc 1 1132 0
 2384 018f 8F 00 00                		mov	a, !_a1
 2385 0192 9D F0                   		mov	r8, a
 2386 0194 4A F0 08                		cmp	r8, #8
 2387 0197 61 E8                   		 skz
 2388 0199 EC C7 01 00             		 br	!!.L113
1133:../DGC_A230_Functions/DGC_A230_Motor_Functions.c **** 	{
1134:../DGC_A230_Functions/DGC_A230_Motor_Functions.c **** 		a1 = 9;
 2389                             		.loc 1 1134 0
 2390 019d 51 09                   		mov	a, #9
 2391 019f 9F 00 00                		mov	!_a1, a
1135:../DGC_A230_Functions/DGC_A230_Motor_Functions.c **** 
1136:../DGC_A230_Functions/DGC_A230_Motor_Functions.c **** 		Flash_Enable = 0;
 2392                             		.loc 1 1136 0
 2393 01a2 F5 00 00                		clrb	!_Flash_Enable
1137:../DGC_A230_Functions/DGC_A230_Motor_Functions.c **** 		FLASH = 0;
 2394                             		.loc 1 1137 0
 2395 01a5 C9 F0 02 FF             		movw	r8, #-254
 2396 01a9 AD F0                   		movw	ax, r8
 2397 01ab BD F4                   		movw	r12, ax
 2398 01ad FA F4                   		movw	hl, r12
 2399 01af 8B                      		mov	a, [hl]
 2400 01b0 9D F2                   		mov	r10, a
 2401 01b2 5A F2 FD                		and	r10, #-3
 2402 01b5 AD F0                   		movw	ax, r8
 2403 01b7 EA F4                   		movw	de, r12
 2404 01b9 8D F2                   		mov	a, r10
 2405 01bb 99                      		mov	[de], a
1138:../DGC_A230_Functions/DGC_A230_Motor_Functions.c **** 
1139:../DGC_A230_Functions/DGC_A230_Motor_Functions.c **** 		HMI_Flash_Enable = 0;
 2406                             		.loc 1 1139 0
 2407 01bc F5 00 00                		clrb	!_HMI_Flash_Enable
1140:../DGC_A230_Functions/DGC_A230_Motor_Functions.c **** 		Mask = 0xff;
 2408                             		.loc 1 1140 0
 2409 01bf 51 FF                   		mov	a, #-1
 2410 01c1 9F 00 00                		mov	!_Mask, a
1141:../DGC_A230_Functions/DGC_A230_Motor_Functions.c **** 
1142:../DGC_A230_Functions/DGC_A230_Motor_Functions.c **** 		Display_Mode = NORMAL_MODE;
 2411                             		.loc 1 1142 0
 2412 01c4 F5 00 00                		clrb	!_Display_Mode
 2413                             	.L113:
1143:../DGC_A230_Functions/DGC_A230_Motor_Functions.c **** 
1144:../DGC_A230_Functions/DGC_A230_Motor_Functions.c **** 	}
1145:../DGC_A230_Functions/DGC_A230_Motor_Functions.c **** }
 2414                             		.loc 1 1145 0
 2415 01c7 D7                      		ret
 2416                             	.LFE15:
 2418                             		.section	.text.Manual_test_start,"ax",@progbits
 2419                             		.global	_Manual_test_start
 2421                             	_Manual_test_start:
 2422                             	.LFB16:
1146:../DGC_A230_Functions/DGC_A230_Motor_Functions.c **** void Manual_test_start()
1147:../DGC_A230_Functions/DGC_A230_Motor_Functions.c **** {
 2423                             		.loc 1 1147 0
 2424                             		; start of function
 2425                             		; outgoing: 6 bytes
 2426                             		; uses ES register
 2427 0000 20 06                   		subw	sp, #6
 2428                             	.LCFI6:
1148:../DGC_A230_Functions/DGC_A230_Motor_Functions.c **** 
1149:../DGC_A230_Functions/DGC_A230_Motor_Functions.c ****     memcpy(&Parameter_Name[0], "rE", sizeof("--"));
 2429                             		.loc 1 1149 0
 2430 0002 30 00 00                		movw	ax, #_Parameter_Name
 2431 0005 B8 00                   		movw	[sp], ax
 2432 0007 30 00 00                		movw	ax, #.LC0
 2433 000a B8 02                   		movw	[sp+2], ax
 2434 000c 30 03 00                		movw	ax, #3
 2435 000f B8 04                   		movw	[sp+4], ax
 2436 0011 FC 00 00 00             		call	!!%code(_memcpy)
1150:../DGC_A230_Functions/DGC_A230_Motor_Functions.c **** 	memcpy(&Parameter_Value[0], "Co", sizeof("--"));
 2437                             		.loc 1 1150 0
 2438 0015 30 00 00                		movw	ax, #_Parameter_Value
 2439 0018 B8 00                   		movw	[sp], ax
 2440 001a 30 03 00                		movw	ax, #.LC1
 2441 001d B8 02                   		movw	[sp+2], ax
 2442 001f 30 03 00                		movw	ax, #3
 2443 0022 B8 04                   		movw	[sp+4], ax
 2444 0024 FC 00 00 00             		call	!!%code(_memcpy)
1151:../DGC_A230_Functions/DGC_A230_Motor_Functions.c **** 
1152:../DGC_A230_Functions/DGC_A230_Motor_Functions.c **** 	Display_Mode = PARA_MODE;
 2445                             		.loc 1 1152 0
 2446 0028 51 03                   		mov	a, #3
 2447 002a 9F 00 00                		mov	!_Display_Mode, a
1153:../DGC_A230_Functions/DGC_A230_Motor_Functions.c **** 
1154:../DGC_A230_Functions/DGC_A230_Motor_Functions.c **** 	HMI_Flash_Count = 0;
 2448                             		.loc 1 1154 0
 2449 002d F5 00 00                		clrb	!_HMI_Flash_Count
1155:../DGC_A230_Functions/DGC_A230_Motor_Functions.c **** 	HMI_Flash_Enable = 1;
 2450                             		.loc 1 1155 0
 2451 0030 E5 00 00                		oneb	!_HMI_Flash_Enable
1156:../DGC_A230_Functions/DGC_A230_Motor_Functions.c **** 
1157:../DGC_A230_Functions/DGC_A230_Motor_Functions.c **** 	FLASH = 1;
 2452                             		.loc 1 1157 0
 2453 0033 C9 F0 02 FF             		movw	r8, #-254
 2454 0037 AD F0                   		movw	ax, r8
 2455 0039 BD F4                   		movw	r12, ax
 2456 003b FA F4                   		movw	hl, r12
 2457 003d 8B                      		mov	a, [hl]
 2458 003e 9D F2                   		mov	r10, a
 2459 0040 6A F2 02                		or	r10, #2
 2460 0043 AD F0                   		movw	ax, r8
 2461 0045 EA F4                   		movw	de, r12
 2462 0047 8D F2                   		mov	a, r10
 2463 0049 99                      		mov	[de], a
1158:../DGC_A230_Functions/DGC_A230_Motor_Functions.c **** 	Flash_Enable = 1;
 2464                             		.loc 1 1158 0
 2465 004a E5 00 00                		oneb	!_Flash_Enable
1159:../DGC_A230_Functions/DGC_A230_Motor_Functions.c **** 
1160:../DGC_A230_Functions/DGC_A230_Motor_Functions.c **** 	Flash_Frequency_Config = FLASH_LIGHT_FREQUENCY_RECOVERY;
 2466                             		.loc 1 1160 0
 2467 004d 51 03                   		mov	a, #3
 2468 004f 9F 00 00                		mov	!_Flash_Frequency_Config, a
1161:../DGC_A230_Functions/DGC_A230_Motor_Functions.c **** 	Flash_Frequency_Count = 0;
 2469                             		.loc 1 1161 0
 2470 0052 F5 00 00                		clrb	!_Flash_Frequency_Count
1162:../DGC_A230_Functions/DGC_A230_Motor_Functions.c **** 
1163:../DGC_A230_Functions/DGC_A230_Motor_Functions.c **** }
 2471                             		.loc 1 1163 0
 2472 0055 10 06                   		addw	sp, #6
 2473 0057 D7                      		ret
 2474                             	.LFE16:
 2476                             		.section	.text.Manual_test_end,"ax",@progbits
 2477                             		.global	_Manual_test_end
 2479                             	_Manual_test_end:
 2480                             	.LFB17:
1164:../DGC_A230_Functions/DGC_A230_Motor_Functions.c **** void Manual_test_end()
1165:../DGC_A230_Functions/DGC_A230_Motor_Functions.c **** {
 2481                             		.loc 1 1165 0
1166:../DGC_A230_Functions/DGC_A230_Motor_Functions.c **** 	Tick_Count = 0;													// Reset Tick count
 2482                             		.loc 1 1166 0
 2483 0000 F6                      		clrw	ax
 2484 0001 BF 00 00                		movw	!_Tick_Count, ax
1167:../DGC_A230_Functions/DGC_A230_Motor_Functions.c **** 	while (Tick_Count < 100);										// wait for 1 second
 2485                             		.loc 1 1167 0
 2486 0004 00                      		nop
 2487                             	.L130:
 2488                             		.loc 1 1167 0 is_stmt 0 discriminator 1
 2489 0005 AF 00 00                		movw	ax, !_Tick_Count
 2490 0008 BD F0                   		movw	r8, ax
 2491 000a 44 63 00                		cmpw	ax, #99
 2492 000d 61 E3                   		 skh
 2493 000f EC 05 00 00             		 br	!!.L130
1168:../DGC_A230_Functions/DGC_A230_Motor_Functions.c **** 	R_TAU0_Channel1_Stop();											// Stop Timer channel 1
 2494                             		.loc 1 1168 0 is_stmt 1
 2495 0013 FC 00 00 00             		call	!!%code(_R_TAU0_Channel1_Stop)
1169:../DGC_A230_Functions/DGC_A230_Motor_Functions.c **** 
1170:../DGC_A230_Functions/DGC_A230_Motor_Functions.c **** 	R_INTC0_Stop();													// Disable Sync to control
 2496                             		.loc 1 1170 0
 2497 0017 FC 00 00 00             		call	!!%code(_R_INTC0_Stop)
1171:../DGC_A230_Functions/DGC_A230_Motor_Functions.c **** 	TRIG_EN = 0;			// Enable Pulse out to control Motor
 2498                             		.loc 1 1171 0
 2499 001b C9 F0 03 FF             		movw	r8, #-253
 2500 001f AD F0                   		movw	ax, r8
 2501 0021 BD F4                   		movw	r12, ax
 2502 0023 FA F4                   		movw	hl, r12
 2503 0025 8B                      		mov	a, [hl]
 2504 0026 9D F2                   		mov	r10, a
 2505 0028 5A F2 FE                		and	r10, #-2
 2506 002b AD F0                   		movw	ax, r8
 2507 002d EA F4                   		movw	de, r12
 2508 002f 8D F2                   		mov	a, r10
 2509 0031 99                      		mov	[de], a
1172:../DGC_A230_Functions/DGC_A230_Motor_Functions.c **** 	M1_PWM = 1;					// Clear Trigger Pulse Output
 2510                             		.loc 1 1172 0
 2511 0032 C9 F0 00 FF             		movw	r8, #-256
 2512 0036 AD F0                   		movw	ax, r8
 2513 0038 BD F4                   		movw	r12, ax
 2514 003a FA F4                   		movw	hl, r12
 2515 003c 8B                      		mov	a, [hl]
 2516 003d 9D F2                   		mov	r10, a
 2517 003f 6A F2 40                		or	r10, #64
 2518 0042 AD F0                   		movw	ax, r8
 2519 0044 EA F4                   		movw	de, r12
 2520 0046 8D F2                   		mov	a, r10
 2521 0048 99                      		mov	[de], a
1173:../DGC_A230_Functions/DGC_A230_Motor_Functions.c **** 	M2_PWM = 1;					// Clear M2 PWM Pulse Output
 2522                             		.loc 1 1173 0
 2523 0049 C9 F0 00 FF             		movw	r8, #-256
 2524 004d AD F0                   		movw	ax, r8
 2525 004f BD F4                   		movw	r12, ax
 2526 0051 FA F4                   		movw	hl, r12
 2527 0053 8B                      		mov	a, [hl]
 2528 0054 9D F2                   		mov	r10, a
 2529 0056 6A F2 20                		or	r10, #32
 2530 0059 AD F0                   		movw	ax, r8
 2531 005b EA F4                   		movw	de, r12
 2532 005d 8D F2                   		mov	a, r10
 2533 005f 99                      		mov	[de], a
1174:../DGC_A230_Functions/DGC_A230_Motor_Functions.c **** 
1175:../DGC_A230_Functions/DGC_A230_Motor_Functions.c **** 	M1_Time_Position = CFG_parameter.M1_Total_Space;
 2534                             		.loc 1 1175 0
 2535 0060 AF 00 00                		movw	ax, !_CFG_parameter+24
 2536 0063 BD F0                   		movw	r8, ax
 2537 0065 BF 00 00                		movw	!_M1_Time_Position, ax
1176:../DGC_A230_Functions/DGC_A230_Motor_Functions.c **** 	M1_Last_Time_Position = M1_Time_Position;
 2538                             		.loc 1 1176 0
 2539 0068 BD F0                   		movw	r8, ax
 2540 006a BF 00 00                		movw	!_M1_Last_Time_Position, ax
1177:../DGC_A230_Functions/DGC_A230_Motor_Functions.c **** 	M2_Time_Position = CFG_parameter.M1_Total_Space;
 2541                             		.loc 1 1177 0
 2542 006d AF 00 00                		movw	ax, !_CFG_parameter+24
 2543 0070 BD F0                   		movw	r8, ax
 2544 0072 BF 00 00                		movw	!_M2_Time_Position, ax
1178:../DGC_A230_Functions/DGC_A230_Motor_Functions.c **** 	M2_Last_Time_Position = M2_Time_Position;
 2545                             		.loc 1 1178 0
 2546 0075 BD F0                   		movw	r8, ax
 2547 0077 BF 00 00                		movw	!_M2_Last_Time_Position, ax
1179:../DGC_A230_Functions/DGC_A230_Motor_Functions.c **** 
1180:../DGC_A230_Functions/DGC_A230_Motor_Functions.c **** 	Power_failure = POWER_GOOD_STATE;
 2548                             		.loc 1 1180 0
 2549 007a F5 00 00                		clrb	!_Power_failure
1181:../DGC_A230_Functions/DGC_A230_Motor_Functions.c **** 
1182:../DGC_A230_Functions/DGC_A230_Motor_Functions.c **** 
1183:../DGC_A230_Functions/DGC_A230_Motor_Functions.c **** 	Flash_Enable = 0;
 2550                             		.loc 1 1183 0
 2551 007d F5 00 00                		clrb	!_Flash_Enable
1184:../DGC_A230_Functions/DGC_A230_Motor_Functions.c **** 	FLASH = 0;
 2552                             		.loc 1 1184 0
 2553 0080 C9 F0 02 FF             		movw	r8, #-254
 2554 0084 AD F0                   		movw	ax, r8
 2555 0086 BD F4                   		movw	r12, ax
 2556 0088 FA F4                   		movw	hl, r12
 2557 008a 8B                      		mov	a, [hl]
 2558 008b 9D F2                   		mov	r10, a
 2559 008d 5A F2 FD                		and	r10, #-3
 2560 0090 AD F0                   		movw	ax, r8
 2561 0092 EA F4                   		movw	de, r12
 2562 0094 8D F2                   		mov	a, r10
 2563 0096 99                      		mov	[de], a
1185:../DGC_A230_Functions/DGC_A230_Motor_Functions.c **** 
1186:../DGC_A230_Functions/DGC_A230_Motor_Functions.c **** 	HMI_Flash_Enable = 0;
 2564                             		.loc 1 1186 0
 2565 0097 F5 00 00                		clrb	!_HMI_Flash_Enable
1187:../DGC_A230_Functions/DGC_A230_Motor_Functions.c **** 	Mask = 0xff;
 2566                             		.loc 1 1187 0
 2567 009a 51 FF                   		mov	a, #-1
 2568 009c 9F 00 00                		mov	!_Mask, a
1188:../DGC_A230_Functions/DGC_A230_Motor_Functions.c **** 
1189:../DGC_A230_Functions/DGC_A230_Motor_Functions.c **** 	Display_Mode = NORMAL_MODE;
 2569                             		.loc 1 1189 0
 2570 009f F5 00 00                		clrb	!_Display_Mode
1190:../DGC_A230_Functions/DGC_A230_Motor_Functions.c **** }
 2571                             		.loc 1 1190 0
 2572 00a2 D7                      		ret
 2573                             	.LFE17:
 2575                             		.section	.text.Auto_Start_Recovery_Motor_1,"ax",@progbits
 2576                             		.global	_Auto_Start_Recovery_Motor_1
 2578                             	_Auto_Start_Recovery_Motor_1:
 2579                             	.LFB18:
1191:../DGC_A230_Functions/DGC_A230_Motor_Functions.c **** void Auto_Start_Recovery_Motor_1()
1192:../DGC_A230_Functions/DGC_A230_Motor_Functions.c **** {
 2580                             		.loc 1 1192 0
1193:../DGC_A230_Functions/DGC_A230_Motor_Functions.c **** 	M1_Torque_Setting = CFG_parameter.Motor_Torque_Maneuver;
 2581                             		.loc 1 1193 0
 2582 0000 AF 00 00                		movw	ax, !_CFG_parameter+72
 2583 0003 BD F0                   		movw	r8, ax
 2584 0005 BF 00 00                		movw	!_M1_Torque_Setting, ax
1194:../DGC_A230_Functions/DGC_A230_Motor_Functions.c **** 
1195:../DGC_A230_Functions/DGC_A230_Motor_Functions.c **** 	M1_Timestamp = UNDEFINE_TIMESTAMP;
 2585                             		.loc 1 1195 0
 2586 0008 F5 00 00                		clrb	!_M1_Timestamp
1196:../DGC_A230_Functions/DGC_A230_Motor_Functions.c **** 
1197:../DGC_A230_Functions/DGC_A230_Motor_Functions.c **** 
1198:../DGC_A230_Functions/DGC_A230_Motor_Functions.c **** 	if (CFG_parameter.Number_Of_Motors == 0x01)				// when using 1 Motors
 2587                             		.loc 1 1198 0
 2588 000b 8F 00 00                		mov	a, !_CFG_parameter+1
 2589 000e 9D F0                   		mov	r8, a
 2590 0010 4A F0 01                		cmp	r8, #1
 2591 0013 61 E8                   		 skz
 2592 0015 EC 40 00 00             		 br	!!.L132
 2593                             	.LBB6:
1199:../DGC_A230_Functions/DGC_A230_Motor_Functions.c **** 	{
1200:../DGC_A230_Functions/DGC_A230_Motor_Functions.c **** 		TRIG_EN = 1;			// Enable Pulse out to control Motor
 2594                             		.loc 1 1200 0
 2595 0019 C9 F0 03 FF             		movw	r8, #-253
 2596 001d AD F0                   		movw	ax, r8
 2597 001f BD F4                   		movw	r12, ax
 2598 0021 FA F4                   		movw	hl, r12
 2599 0023 8B                      		mov	a, [hl]
 2600 0024 9D F2                   		mov	r10, a
 2601 0026 6A F2 01                		or	r10, #1
 2602 0029 AD F0                   		movw	ax, r8
 2603 002b EA F4                   		movw	de, r12
 2604 002d 8D F2                   		mov	a, r10
 2605 002f 99                      		mov	[de], a
1201:../DGC_A230_Functions/DGC_A230_Motor_Functions.c **** 		R_INTC0_Start();												// Enable Sync to control, Motor 1 start opening
 2606                             		.loc 1 1201 0
 2607 0030 FC 00 00 00             		call	!!%code(_R_INTC0_Start)
1202:../DGC_A230_Functions/DGC_A230_Motor_Functions.c **** 
1203:../DGC_A230_Functions/DGC_A230_Motor_Functions.c **** 		Tick_Count = 0;													// Reset Tick count
 2608                             		.loc 1 1203 0
 2609 0034 F6                      		clrw	ax
 2610 0035 BF 00 00                		movw	!_Tick_Count, ax
1204:../DGC_A230_Functions/DGC_A230_Motor_Functions.c **** 		R_TAU0_Channel1_Start();										// Start Timer channel 1
 2611                             		.loc 1 1204 0
 2612 0038 FC 00 00 00             		call	!!%code(_R_TAU0_Channel1_Start)
 2613                             	.LBE6:
 2614 003c EC 55 00 00             		br	!!.L133
 2615                             	.L132:
1205:../DGC_A230_Functions/DGC_A230_Motor_Functions.c **** 
1206:../DGC_A230_Functions/DGC_A230_Motor_Functions.c **** 	}
1207:../DGC_A230_Functions/DGC_A230_Motor_Functions.c **** 	else
1208:../DGC_A230_Functions/DGC_A230_Motor_Functions.c **** 	{
1209:../DGC_A230_Functions/DGC_A230_Motor_Functions.c **** 
1210:../DGC_A230_Functions/DGC_A230_Motor_Functions.c **** 		while (Tick_Count < CFG_parameter.Motor_No1_Close_Delay_Time);
 2616                             		.loc 1 1210 0
 2617 0040 00                      		nop
 2618                             	.L134:
 2619                             		.loc 1 1210 0 is_stmt 0 discriminator 1
 2620 0041 AF 00 00                		movw	ax, !_CFG_parameter+42
 2621 0044 BD F2                   		movw	r10, ax
 2622 0046 AF 00 00                		movw	ax, !_Tick_Count
 2623 0049 BD F0                   		movw	r8, ax
 2624 004b AD F2                   		movw	ax, r10
 2625 004d 46 F0                   		cmpw	ax, r8
 2626 004f 61 F3                   		 sknh
 2627 0051 EC 41 00 00             		 br	!!.L134
 2628                             	.L133:
1211:../DGC_A230_Functions/DGC_A230_Motor_Functions.c **** 
1212:../DGC_A230_Functions/DGC_A230_Motor_Functions.c **** 	}
1213:../DGC_A230_Functions/DGC_A230_Motor_Functions.c **** 
1214:../DGC_A230_Functions/DGC_A230_Motor_Functions.c **** 	M1_Tick_Count = 0;
 2629                             		.loc 1 1214 0 is_stmt 1
 2630 0055 F6                      		clrw	ax
 2631 0056 BF 00 00                		movw	!_M1_Tick_Count, ax
1215:../DGC_A230_Functions/DGC_A230_Motor_Functions.c **** //			if (Leaf_No1_State != GATE_STATE_CLOSED)
1216:../DGC_A230_Functions/DGC_A230_Motor_Functions.c **** //			{
1217:../DGC_A230_Functions/DGC_A230_Motor_Functions.c **** 		Motor1_Close_Enable();											// Enable Motor #2 Open
 2632                             		.loc 1 1217 0
 2633 0059 FC 00 00 00             		call	!!%code(_Motor1_Close_Enable)
1218:../DGC_A230_Functions/DGC_A230_Motor_Functions.c **** 		Leaf_No1_State = GATE_STATE_CLOSING;
 2634                             		.loc 1 1218 0
 2635 005d 51 04                   		mov	a, #4
 2636 005f 9F 00 00                		mov	!_Leaf_No1_State, a
1219:../DGC_A230_Functions/DGC_A230_Motor_Functions.c **** //			}
1220:../DGC_A230_Functions/DGC_A230_Motor_Functions.c **** 
1221:../DGC_A230_Functions/DGC_A230_Motor_Functions.c **** }
 2637                             		.loc 1 1221 0
 2638 0062 D7                      		ret
 2639                             	.LFE18:
 2641                             		.section	.text.Auto_Start_Recovery_Motor_2,"ax",@progbits
 2642                             		.global	_Auto_Start_Recovery_Motor_2
 2644                             	_Auto_Start_Recovery_Motor_2:
 2645                             	.LFB19:
1222:../DGC_A230_Functions/DGC_A230_Motor_Functions.c **** void Auto_Start_Recovery_Motor_2()
1223:../DGC_A230_Functions/DGC_A230_Motor_Functions.c **** {
 2646                             		.loc 1 1223 0
1224:../DGC_A230_Functions/DGC_A230_Motor_Functions.c **** 
1225:../DGC_A230_Functions/DGC_A230_Motor_Functions.c **** 	M2_Torque_Setting = CFG_parameter.Motor_Torque_Maneuver;
 2647                             		.loc 1 1225 0
 2648 0000 AF 00 00                		movw	ax, !_CFG_parameter+72
 2649 0003 BD F0                   		movw	r8, ax
 2650 0005 BF 00 00                		movw	!_M2_Torque_Setting, ax
1226:../DGC_A230_Functions/DGC_A230_Motor_Functions.c **** 
1227:../DGC_A230_Functions/DGC_A230_Motor_Functions.c **** 	M2_Timestamp = UNDEFINE_TIMESTAMP;
 2651                             		.loc 1 1227 0
 2652 0008 F5 00 00                		clrb	!_M2_Timestamp
1228:../DGC_A230_Functions/DGC_A230_Motor_Functions.c **** 
1229:../DGC_A230_Functions/DGC_A230_Motor_Functions.c **** 	TRIG_EN = 1;			// Enable Pulse out to control Motor
 2653                             		.loc 1 1229 0
 2654 000b C9 F0 03 FF             		movw	r8, #-253
 2655 000f AD F0                   		movw	ax, r8
 2656 0011 BD F4                   		movw	r12, ax
 2657 0013 FA F4                   		movw	hl, r12
 2658 0015 8B                      		mov	a, [hl]
 2659 0016 9D F2                   		mov	r10, a
 2660 0018 6A F2 01                		or	r10, #1
 2661 001b AD F0                   		movw	ax, r8
 2662 001d EA F4                   		movw	de, r12
 2663 001f 8D F2                   		mov	a, r10
 2664 0021 99                      		mov	[de], a
1230:../DGC_A230_Functions/DGC_A230_Motor_Functions.c **** 	R_INTC0_Start();												// Enable Sync to control, Motor 1 start opening
 2665                             		.loc 1 1230 0
 2666 0022 FC 00 00 00             		call	!!%code(_R_INTC0_Start)
1231:../DGC_A230_Functions/DGC_A230_Motor_Functions.c **** 
1232:../DGC_A230_Functions/DGC_A230_Motor_Functions.c **** 	Motor2_Close_Enable();											// Enable Motor #2 Open
 2667                             		.loc 1 1232 0
 2668 0026 FC 00 00 00             		call	!!%code(_Motor2_Close_Enable)
1233:../DGC_A230_Functions/DGC_A230_Motor_Functions.c **** 	Leaf_No2_State = GATE_STATE_CLOSING;
 2669                             		.loc 1 1233 0
 2670 002a 51 04                   		mov	a, #4
 2671 002c 9F 00 00                		mov	!_Leaf_No2_State, a
1234:../DGC_A230_Functions/DGC_A230_Motor_Functions.c **** 
1235:../DGC_A230_Functions/DGC_A230_Motor_Functions.c **** 
1236:../DGC_A230_Functions/DGC_A230_Motor_Functions.c **** 	Tick_Count = 0;													// Reset Tick count
 2672                             		.loc 1 1236 0
 2673 002f F6                      		clrw	ax
 2674 0030 BF 00 00                		movw	!_Tick_Count, ax
1237:../DGC_A230_Functions/DGC_A230_Motor_Functions.c **** 	M2_Tick_Count = 0;												// Start counter to M2
 2675                             		.loc 1 1237 0
 2676 0033 F6                      		clrw	ax
 2677 0034 BF 00 00                		movw	!_M2_Tick_Count, ax
1238:../DGC_A230_Functions/DGC_A230_Motor_Functions.c **** 
1239:../DGC_A230_Functions/DGC_A230_Motor_Functions.c **** 	R_TAU0_Channel1_Start();										// Start Timer channel 1
 2678                             		.loc 1 1239 0
 2679 0037 FC 00 00 00             		call	!!%code(_R_TAU0_Channel1_Start)
1240:../DGC_A230_Functions/DGC_A230_Motor_Functions.c **** }
 2680                             		.loc 1 1240 0
 2681 003b D7                      		ret
 2682                             	.LFE19:
 2684                             		.section	.text.Auto_Wait_Recorery_Motor1,"ax",@progbits
 2685                             		.global	_Auto_Wait_Recorery_Motor1
 2687                             	_Auto_Wait_Recorery_Motor1:
 2688                             	.LFB20:
1241:../DGC_A230_Functions/DGC_A230_Motor_Functions.c **** void Auto_Wait_Recorery_Motor1(void)
1242:../DGC_A230_Functions/DGC_A230_Motor_Functions.c **** {
 2689                             		.loc 1 1242 0
1243:../DGC_A230_Functions/DGC_A230_Motor_Functions.c **** 	if ((M1_Tick_Count >= (CFG_parameter.M1_Travel_Time)) 	// Over time
 2690                             		.loc 1 1243 0
 2691 0000 AF 00 00                		movw	ax, !_CFG_parameter+12
 2692 0003 BD F2                   		movw	r10, ax
 2693 0005 AF 00 00                		movw	ax, !_M1_Tick_Count
 2694 0008 BD F0                   		movw	r8, ax
 2695 000a AD F2                   		movw	ax, r10
 2696 000c 46 F0                   		cmpw	ax, r8
 2697 000e 61 E3                   		 skh
 2698 0010 EC 3C 00 00             		 br	!!.L137
1244:../DGC_A230_Functions/DGC_A230_Motor_Functions.c **** 		|| (FCC1_IN && (CFG_parameter.Limit_Switch_Config == 0x01)))								// Open Limit switch
 2699                             		.loc 1 1244 0
 2700 0014 C9 F0 04 FF             		movw	r8, #-252
 2701 0018 AD F0                   		movw	ax, r8
 2702 001a BD F2                   		movw	r10, ax
 2703 001c FA F2                   		movw	hl, r10
 2704 001e 8B                      		mov	a, [hl]
 2705 001f 9D F0                   		mov	r8, a
 2706 0021 31 2A                   		shr	a, 2
 2707 0023 9D F0                   		mov	r8, a
 2708 0025 5A F0 01                		and	r8, #1
 2709 0028 61 F8                   		sknz
 2710 002a EC 43 00 00             		 br	!!.L136
 2711                             		 # zero-comparison eliminated
 2712                             		.loc 1 1244 0 is_stmt 0 discriminator 1
 2713 002e 8F 00 00                		mov	a, !_CFG_parameter+96
 2714 0031 9D F0                   		mov	r8, a
 2715 0033 4A F0 01                		cmp	r8, #1
 2716 0036 61 E8                   		 skz
 2717 0038 EC 43 00 00             		 br	!!.L136
 2718                             	.L137:
1245:../DGC_A230_Functions/DGC_A230_Motor_Functions.c **** 	{
1246:../DGC_A230_Functions/DGC_A230_Motor_Functions.c **** 		Motor1_Disable();
 2719                             		.loc 1 1246 0 is_stmt 1
 2720 003c FC 00 00 00             		call	!!%code(_Motor1_Disable)
1247:../DGC_A230_Functions/DGC_A230_Motor_Functions.c **** 		Leaf_No1_State = GATE_STATE_CLOSED;
 2721                             		.loc 1 1247 0
 2722 0040 E5 00 00                		oneb	!_Leaf_No1_State
 2723                             	.L136:
1248:../DGC_A230_Functions/DGC_A230_Motor_Functions.c **** 	}
1249:../DGC_A230_Functions/DGC_A230_Motor_Functions.c **** }
 2724                             		.loc 1 1249 0
 2725 0043 D7                      		ret
 2726                             	.LFE20:
 2728                             		.section	.text.Auto_Wait_Recorery_Motor2,"ax",@progbits
 2729                             		.global	_Auto_Wait_Recorery_Motor2
 2731                             	_Auto_Wait_Recorery_Motor2:
 2732                             	.LFB21:
1250:../DGC_A230_Functions/DGC_A230_Motor_Functions.c **** void Auto_Wait_Recorery_Motor2(void)
1251:../DGC_A230_Functions/DGC_A230_Motor_Functions.c **** {
 2733                             		.loc 1 1251 0
1252:../DGC_A230_Functions/DGC_A230_Motor_Functions.c **** 	if (CFG_parameter.Number_Of_Motors == 0x02)				// when using 2 Motors
 2734                             		.loc 1 1252 0
 2735 0000 8F 00 00                		mov	a, !_CFG_parameter+1
 2736 0003 9D F0                   		mov	r8, a
 2737 0005 4A F0 02                		cmp	r8, #2
 2738 0008 61 E8                   		 skz
 2739 000a EC 4E 00 00             		 br	!!.L139
1253:../DGC_A230_Functions/DGC_A230_Motor_Functions.c **** 	{
1254:../DGC_A230_Functions/DGC_A230_Motor_Functions.c **** 
1255:../DGC_A230_Functions/DGC_A230_Motor_Functions.c **** 		if ((M2_Tick_Count >= (CFG_parameter.M2_Travel_Time)) 	// Over time
 2740                             		.loc 1 1255 0
 2741 000e AF 00 00                		movw	ax, !_CFG_parameter+14
 2742 0011 BD F2                   		movw	r10, ax
 2743 0013 AF 00 00                		movw	ax, !_M2_Tick_Count
 2744 0016 BD F0                   		movw	r8, ax
 2745 0018 AD F2                   		movw	ax, r10
 2746 001a 46 F0                   		cmpw	ax, r8
 2747 001c 61 E3                   		 skh
 2748 001e EC 47 00 00             		 br	!!.L141
1256:../DGC_A230_Functions/DGC_A230_Motor_Functions.c **** 			|| (FCC2_IN && (CFG_parameter.Limit_Switch_Config == 0x01)))								// Open Limit switch
 2749                             		.loc 1 1256 0
 2750 0022 C9 F0 0C FF             		movw	r8, #-244
 2751 0026 AD F0                   		movw	ax, r8
 2752 0028 BD F2                   		movw	r10, ax
 2753 002a EA F2                   		movw	de, r10
 2754 002c 89                      		mov	a, [de]
 2755 002d 5C 01                   		and	a, #1
 2756 002f 9D F0                   		mov	r8, a
 2757 0031 D4 F0                   		cmp0	r8
 2758 0033 61 F8                   		 sknz
 2759 0035 EC 4E 00 00             		 br	!!.L139
 2760                             		.loc 1 1256 0 is_stmt 0 discriminator 1
 2761 0039 8F 00 00                		mov	a, !_CFG_parameter+96
 2762 003c 9D F0                   		mov	r8, a
 2763 003e 4A F0 01                		cmp	r8, #1
 2764 0041 61 E8                   		 skz
 2765 0043 EC 4E 00 00             		 br	!!.L139
 2766                             	.L141:
1257:../DGC_A230_Functions/DGC_A230_Motor_Functions.c **** 		{
1258:../DGC_A230_Functions/DGC_A230_Motor_Functions.c **** 			Motor2_Disable();
 2767                             		.loc 1 1258 0 is_stmt 1
 2768 0047 FC 00 00 00             		call	!!%code(_Motor2_Disable)
1259:../DGC_A230_Functions/DGC_A230_Motor_Functions.c **** 			Leaf_No2_State = GATE_STATE_CLOSED;
 2769                             		.loc 1 1259 0
 2770 004b E5 00 00                		oneb	!_Leaf_No2_State
 2771                             	.L139:
1260:../DGC_A230_Functions/DGC_A230_Motor_Functions.c **** 		}
1261:../DGC_A230_Functions/DGC_A230_Motor_Functions.c **** 	}
1262:../DGC_A230_Functions/DGC_A230_Motor_Functions.c **** }
 2772                             		.loc 1 1262 0
 2773 004e D7                      		ret
 2774                             	.LFE21:
 2776                             		.section	.text.Auto_Power_Failure_Recovery_Process_Test,"ax",@progbits
 2777                             		.global	_Auto_Power_Failure_Recovery_Process_Test
 2779                             	_Auto_Power_Failure_Recovery_Process_Test:
 2780                             	.LFB22:
1263:../DGC_A230_Functions/DGC_A230_Motor_Functions.c **** void Auto_Power_Failure_Recovery_Process_Test(void)
1264:../DGC_A230_Functions/DGC_A230_Motor_Functions.c **** {
 2781                             		.loc 1 1264 0
 2782                             		; start of function
 2783                             		; locals: 2 bytes
 2784                             		; outgoing: 6 bytes
 2785                             		; uses ES register
 2786 0000 20 08                   		subw	sp, #8
 2787                             	.LCFI7:
1265:../DGC_A230_Functions/DGC_A230_Motor_Functions.c **** 	uint8_t Recovery_Done = 0;
 2788                             		.loc 1 1265 0
 2789 0002 F1                      		clrb	a
 2790 0003 98 07                   		mov	[sp+7], a
1266:../DGC_A230_Functions/DGC_A230_Motor_Functions.c **** 
1267:../DGC_A230_Functions/DGC_A230_Motor_Functions.c ****     memcpy(&Parameter_Name[0], "rE", sizeof("--"));
 2791                             		.loc 1 1267 0
 2792 0005 30 00 00                		movw	ax, #_Parameter_Name
 2793 0008 B8 00                   		movw	[sp], ax
 2794 000a 30 00 00                		movw	ax, #.LC0
 2795 000d B8 02                   		movw	[sp+2], ax
 2796 000f 30 03 00                		movw	ax, #3
 2797 0012 B8 04                   		movw	[sp+4], ax
 2798 0014 FC 00 00 00             		call	!!%code(_memcpy)
1268:../DGC_A230_Functions/DGC_A230_Motor_Functions.c **** 	memcpy(&Parameter_Value[0], "Co", sizeof("--"));
 2799                             		.loc 1 1268 0
 2800 0018 30 00 00                		movw	ax, #_Parameter_Value
 2801 001b B8 00                   		movw	[sp], ax
 2802 001d 30 03 00                		movw	ax, #.LC1
 2803 0020 B8 02                   		movw	[sp+2], ax
 2804 0022 30 03 00                		movw	ax, #3
 2805 0025 B8 04                   		movw	[sp+4], ax
 2806 0027 FC 00 00 00             		call	!!%code(_memcpy)
1269:../DGC_A230_Functions/DGC_A230_Motor_Functions.c **** 
1270:../DGC_A230_Functions/DGC_A230_Motor_Functions.c **** 	Display_Mode = PARA_MODE;
 2807                             		.loc 1 1270 0
 2808 002b 51 03                   		mov	a, #3
 2809 002d 9F 00 00                		mov	!_Display_Mode, a
1271:../DGC_A230_Functions/DGC_A230_Motor_Functions.c **** 
1272:../DGC_A230_Functions/DGC_A230_Motor_Functions.c **** 	HMI_Flash_Count = 0;
 2810                             		.loc 1 1272 0
 2811 0030 F5 00 00                		clrb	!_HMI_Flash_Count
1273:../DGC_A230_Functions/DGC_A230_Motor_Functions.c **** 	HMI_Flash_Enable = 1;
 2812                             		.loc 1 1273 0
 2813 0033 E5 00 00                		oneb	!_HMI_Flash_Enable
1274:../DGC_A230_Functions/DGC_A230_Motor_Functions.c **** 
1275:../DGC_A230_Functions/DGC_A230_Motor_Functions.c **** 	Flash_Enable = 1;
 2814                             		.loc 1 1275 0
 2815 0036 E5 00 00                		oneb	!_Flash_Enable
1276:../DGC_A230_Functions/DGC_A230_Motor_Functions.c **** 	FLASH = 1;
 2816                             		.loc 1 1276 0
 2817 0039 C9 F0 02 FF             		movw	r8, #-254
 2818 003d AD F0                   		movw	ax, r8
 2819 003f BD F4                   		movw	r12, ax
 2820 0041 FA F4                   		movw	hl, r12
 2821 0043 8B                      		mov	a, [hl]
 2822 0044 9D F2                   		mov	r10, a
 2823 0046 6A F2 02                		or	r10, #2
 2824 0049 AD F0                   		movw	ax, r8
 2825 004b EA F4                   		movw	de, r12
 2826 004d 8D F2                   		mov	a, r10
 2827 004f 99                      		mov	[de], a
1277:../DGC_A230_Functions/DGC_A230_Motor_Functions.c **** 
1278:../DGC_A230_Functions/DGC_A230_Motor_Functions.c **** 	Pre_Flash_Type = FLASH_ENABLE_TIMER;
 2828                             		.loc 1 1278 0
 2829 0050 E5 00 00                		oneb	!_Pre_Flash_Type
1279:../DGC_A230_Functions/DGC_A230_Motor_Functions.c **** 	Flash_Timer_Counter = 0;
 2830                             		.loc 1 1279 0
 2831 0053 F5 00 00                		clrb	!_Flash_Timer_Counter
1280:../DGC_A230_Functions/DGC_A230_Motor_Functions.c **** 	Flash_Frequency_Config = FLASH_LIGHT_FREQUENCY_RECOVERY;
 2832                             		.loc 1 1280 0
 2833 0056 51 03                   		mov	a, #3
 2834 0058 9F 00 00                		mov	!_Flash_Frequency_Config, a
1281:../DGC_A230_Functions/DGC_A230_Motor_Functions.c **** 	Flash_Frequency_Count = 0;
 2835                             		.loc 1 1281 0
 2836 005b F5 00 00                		clrb	!_Flash_Frequency_Count
1282:../DGC_A230_Functions/DGC_A230_Motor_Functions.c **** 	while (Flash_Timer_Counter < 10);									// Flashing warning signal 5 second prior to recovery
 2837                             		.loc 1 1282 0
 2838 005e 00                      		nop
 2839                             	.L143:
 2840                             		.loc 1 1282 0 is_stmt 0 discriminator 1
 2841 005f 8F 00 00                		mov	a, !_Flash_Timer_Counter
 2842 0062 9D F0                   		mov	r8, a
 2843 0064 4A F0 09                		cmp	r8, #9
 2844 0067 61 E3                   		 skh
 2845 0069 EC 5F 00 00             		 br	!!.L143
1283:../DGC_A230_Functions/DGC_A230_Motor_Functions.c **** 	Pre_Flash_Type = FLASH_DISABLE_TIMER;
 2846                             		.loc 1 1283 0 is_stmt 1
 2847 006d F5 00 00                		clrb	!_Pre_Flash_Type
1284:../DGC_A230_Functions/DGC_A230_Motor_Functions.c **** 
1285:../DGC_A230_Functions/DGC_A230_Motor_Functions.c **** 	FLASH = 1;
 2848                             		.loc 1 1285 0
 2849 0070 C9 F0 02 FF             		movw	r8, #-254
 2850 0074 AD F0                   		movw	ax, r8
 2851 0076 BD F4                   		movw	r12, ax
 2852 0078 FA F4                   		movw	hl, r12
 2853 007a 8B                      		mov	a, [hl]
 2854 007b 9D F2                   		mov	r10, a
 2855 007d 6A F2 02                		or	r10, #2
 2856 0080 AD F0                   		movw	ax, r8
 2857 0082 EA F4                   		movw	de, r12
 2858 0084 8D F2                   		mov	a, r10
 2859 0086 99                      		mov	[de], a
1286:../DGC_A230_Functions/DGC_A230_Motor_Functions.c **** 	Recovery_Done = 0;
 2860                             		.loc 1 1286 0
 2861 0087 F1                      		clrb	a
 2862 0088 98 07                   		mov	[sp+7], a
1287:../DGC_A230_Functions/DGC_A230_Motor_Functions.c **** //	Flash_Frequency_Config = FLASH_LIGHT_FREQUENCY_RECOVERY;
1288:../DGC_A230_Functions/DGC_A230_Motor_Functions.c **** //	Flash_Frequency_Count = 0;
1289:../DGC_A230_Functions/DGC_A230_Motor_Functions.c **** 	if (CFG_parameter.Number_Of_Motors == 0x02)				// when using 2 Motors
 2863                             		.loc 1 1289 0
 2864 008a 8F 00 00                		mov	a, !_CFG_parameter+1
 2865 008d 9D F0                   		mov	r8, a
 2866 008f 4A F0 02                		cmp	r8, #2
 2867 0092 61 E8                   		 skz
 2868 0094 EC 9C 00 00             		 br	!!.L144
1290:../DGC_A230_Functions/DGC_A230_Motor_Functions.c **** 	{
1291:../DGC_A230_Functions/DGC_A230_Motor_Functions.c **** 		Auto_Start_Recovery_Motor_2();
 2869                             		.loc 1 1291 0
 2870 0098 FC 00 00 00             		call	!!%code(_Auto_Start_Recovery_Motor_2)
 2871                             	.L144:
1292:../DGC_A230_Functions/DGC_A230_Motor_Functions.c **** 	}
1293:../DGC_A230_Functions/DGC_A230_Motor_Functions.c **** 	Auto_Start_Recovery_Motor_1();
 2872                             		.loc 1 1293 0
 2873 009c FC 00 00 00             		call	!!%code(_Auto_Start_Recovery_Motor_1)
1294:../DGC_A230_Functions/DGC_A230_Motor_Functions.c **** 	if (CFG_parameter.Encoder_Config == 0x00)			// Without Encoder is installed
 2874                             		.loc 1 1294 0
 2875 00a0 8F 00 00                		mov	a, !_CFG_parameter+97
 2876 00a3 9D F0                   		mov	r8, a
 2877 00a5 D4 F0                   		cmp0	r8
 2878 00a7 61 E8                   		 skz
 2879 00a9 EC 64 01 00             		 br	!!.L145
 2880                             	.LBB7:
1295:../DGC_A230_Functions/DGC_A230_Motor_Functions.c **** 	{
1296:../DGC_A230_Functions/DGC_A230_Motor_Functions.c **** 		while (Recovery_Done == 0)				// Start Closing
 2881                             		.loc 1 1296 0
 2882 00ad EC FB 00 00             		br	!!.L146
 2883                             	.L149:
1297:../DGC_A230_Functions/DGC_A230_Motor_Functions.c **** 		{
1298:../DGC_A230_Functions/DGC_A230_Motor_Functions.c **** 
1299:../DGC_A230_Functions/DGC_A230_Motor_Functions.c **** //			if ((M1_Tick_Count >= (CFG_parameter.M1_Travel_Time)) 	// Over time
1300:../DGC_A230_Functions/DGC_A230_Motor_Functions.c **** //				|| (FCC1_IN && (CFG_parameter.Limit_Switch_Config == 0x01)))								// Open Limit switch
1301:../DGC_A230_Functions/DGC_A230_Motor_Functions.c **** //			{
1302:../DGC_A230_Functions/DGC_A230_Motor_Functions.c **** //				Motor1_Disable();
1303:../DGC_A230_Functions/DGC_A230_Motor_Functions.c **** //				Leaf_No1_State = GATE_STATE_CLOSED;
1304:../DGC_A230_Functions/DGC_A230_Motor_Functions.c **** //			}
1305:../DGC_A230_Functions/DGC_A230_Motor_Functions.c **** //
1306:../DGC_A230_Functions/DGC_A230_Motor_Functions.c **** //			if (CFG_parameter.Number_Of_Motors == 0x02)				// when using 2 Motors
1307:../DGC_A230_Functions/DGC_A230_Motor_Functions.c **** //			{
1308:../DGC_A230_Functions/DGC_A230_Motor_Functions.c **** //
1309:../DGC_A230_Functions/DGC_A230_Motor_Functions.c **** //				if ((M2_Tick_Count >= (CFG_parameter.M2_Travel_Time)) 	// Over time
1310:../DGC_A230_Functions/DGC_A230_Motor_Functions.c **** //					|| (FCC2_IN && (CFG_parameter.Limit_Switch_Config == 0x01)))								// Open Limit switch
1311:../DGC_A230_Functions/DGC_A230_Motor_Functions.c **** //				{
1312:../DGC_A230_Functions/DGC_A230_Motor_Functions.c **** //					Motor2_Disable();
1313:../DGC_A230_Functions/DGC_A230_Motor_Functions.c **** //					Leaf_No2_State = GATE_STATE_CLOSED;
1314:../DGC_A230_Functions/DGC_A230_Motor_Functions.c **** //				}
1315:../DGC_A230_Functions/DGC_A230_Motor_Functions.c **** //			}
1316:../DGC_A230_Functions/DGC_A230_Motor_Functions.c **** 			Auto_Wait_Recorery_Motor2();
 2884                             		.loc 1 1316 0
 2885 00b1 FC 00 00 00             		call	!!%code(_Auto_Wait_Recorery_Motor2)
1317:../DGC_A230_Functions/DGC_A230_Motor_Functions.c **** 			Auto_Wait_Recorery_Motor1();
 2886                             		.loc 1 1317 0
 2887 00b5 FC 00 00 00             		call	!!%code(_Auto_Wait_Recorery_Motor1)
1318:../DGC_A230_Functions/DGC_A230_Motor_Functions.c **** 			if (CFG_parameter.Number_Of_Motors == 0x02)				// when using 2 Motors
 2888                             		.loc 1 1318 0
 2889 00b9 8F 00 00                		mov	a, !_CFG_parameter+1
 2890 00bc 9D F0                   		mov	r8, a
 2891 00be 4A F0 02                		cmp	r8, #2
 2892 00c1 61 E8                   		 skz
 2893 00c3 EC EA 00 00             		 br	!!.L147
1319:../DGC_A230_Functions/DGC_A230_Motor_Functions.c **** 			{
1320:../DGC_A230_Functions/DGC_A230_Motor_Functions.c **** 				if ((Leaf_No1_State == GATE_STATE_CLOSED) && (Leaf_No2_State == GATE_STATE_CLOSED))
 2894                             		.loc 1 1320 0
 2895 00c7 8F 00 00                		mov	a, !_Leaf_No1_State
 2896 00ca 9D F0                   		mov	r8, a
 2897 00cc 4A F0 01                		cmp	r8, #1
 2898 00cf 61 E8                   		 skz
 2899 00d1 EC FB 00 00             		 br	!!.L146
 2900                             		.loc 1 1320 0 is_stmt 0 discriminator 1
 2901 00d5 8F 00 00                		mov	a, !_Leaf_No2_State
 2902 00d8 9D F0                   		mov	r8, a
 2903 00da 4A F0 01                		cmp	r8, #1
 2904 00dd 61 E8                   		 skz
 2905 00df EC FB 00 00             		 br	!!.L146
1321:../DGC_A230_Functions/DGC_A230_Motor_Functions.c **** 				{
1322:../DGC_A230_Functions/DGC_A230_Motor_Functions.c **** 					Recovery_Done = 1;
 2906                             		.loc 1 1322 0 is_stmt 1
 2907 00e3 E1                      		oneb	a
 2908 00e4 98 07                   		mov	[sp+7], a
 2909 00e6 EC FB 00 00             		br	!!.L146
 2910                             	.L147:
1323:../DGC_A230_Functions/DGC_A230_Motor_Functions.c **** 				}
1324:../DGC_A230_Functions/DGC_A230_Motor_Functions.c **** 			}
1325:../DGC_A230_Functions/DGC_A230_Motor_Functions.c **** 			else
1326:../DGC_A230_Functions/DGC_A230_Motor_Functions.c **** 			{
1327:../DGC_A230_Functions/DGC_A230_Motor_Functions.c **** 				if (Leaf_No1_State == GATE_STATE_CLOSED)
 2911                             		.loc 1 1327 0
 2912 00ea 8F 00 00                		mov	a, !_Leaf_No1_State
 2913 00ed 9D F0                   		mov	r8, a
 2914 00ef 4A F0 01                		cmp	r8, #1
 2915 00f2 61 E8                   		 skz
 2916 00f4 EC FB 00 00             		 br	!!.L146
1328:../DGC_A230_Functions/DGC_A230_Motor_Functions.c **** 				{
1329:../DGC_A230_Functions/DGC_A230_Motor_Functions.c **** 					Recovery_Done = 1;
 2917                             		.loc 1 1329 0
 2918 00f8 E1                      		oneb	a
 2919 00f9 98 07                   		mov	[sp+7], a
 2920                             	.L146:
1296:../DGC_A230_Functions/DGC_A230_Motor_Functions.c **** 		{
 2921                             		.loc 1 1296 0
 2922 00fb 88 07                   		mov	a, [sp+7]
 2923 00fd D1                      		cmp0	a
 2924 00fe 61 F8                   		 sknz
 2925 0100 EC B1 00 00             		 br	!!.L149
1330:../DGC_A230_Functions/DGC_A230_Motor_Functions.c **** 				}
1331:../DGC_A230_Functions/DGC_A230_Motor_Functions.c **** 			}
1332:../DGC_A230_Functions/DGC_A230_Motor_Functions.c **** 		}
1333:../DGC_A230_Functions/DGC_A230_Motor_Functions.c **** 
1334:../DGC_A230_Functions/DGC_A230_Motor_Functions.c **** 		R_TAU0_Channel1_Stop();											// Stop Timer channel 1
 2926                             		.loc 1 1334 0
 2927 0104 FC 00 00 00             		call	!!%code(_R_TAU0_Channel1_Stop)
1335:../DGC_A230_Functions/DGC_A230_Motor_Functions.c **** 		R_INTC0_Stop();													// Disable Sync to control
 2928                             		.loc 1 1335 0
 2929 0108 FC 00 00 00             		call	!!%code(_R_INTC0_Stop)
1336:../DGC_A230_Functions/DGC_A230_Motor_Functions.c **** 		TRIG_EN = 0;			// Enable Pulse out to control Motor
 2930                             		.loc 1 1336 0
 2931 010c C9 F0 03 FF             		movw	r8, #-253
 2932 0110 AD F0                   		movw	ax, r8
 2933 0112 BD F4                   		movw	r12, ax
 2934 0114 FA F4                   		movw	hl, r12
 2935 0116 8B                      		mov	a, [hl]
 2936 0117 9D F2                   		mov	r10, a
 2937 0119 5A F2 FE                		and	r10, #-2
 2938 011c AD F0                   		movw	ax, r8
 2939 011e EA F4                   		movw	de, r12
 2940 0120 8D F2                   		mov	a, r10
 2941 0122 99                      		mov	[de], a
1337:../DGC_A230_Functions/DGC_A230_Motor_Functions.c **** 		M1_PWM = 1;					// Clear Trigger Pulse Output
 2942                             		.loc 1 1337 0
 2943 0123 C9 F0 00 FF             		movw	r8, #-256
 2944 0127 AD F0                   		movw	ax, r8
 2945 0129 BD F4                   		movw	r12, ax
 2946 012b FA F4                   		movw	hl, r12
 2947 012d 8B                      		mov	a, [hl]
 2948 012e 9D F2                   		mov	r10, a
 2949 0130 6A F2 40                		or	r10, #64
 2950 0133 AD F0                   		movw	ax, r8
 2951 0135 EA F4                   		movw	de, r12
 2952 0137 8D F2                   		mov	a, r10
 2953 0139 99                      		mov	[de], a
1338:../DGC_A230_Functions/DGC_A230_Motor_Functions.c **** 		M2_PWM = 1;					// Clear M2 PWM Pulse Output
 2954                             		.loc 1 1338 0
 2955 013a C9 F0 00 FF             		movw	r8, #-256
 2956 013e AD F0                   		movw	ax, r8
 2957 0140 BD F4                   		movw	r12, ax
 2958 0142 FA F4                   		movw	hl, r12
 2959 0144 8B                      		mov	a, [hl]
 2960 0145 9D F2                   		mov	r10, a
 2961 0147 6A F2 20                		or	r10, #32
 2962 014a AD F0                   		movw	ax, r8
 2963 014c EA F4                   		movw	de, r12
 2964 014e 8D F2                   		mov	a, r10
 2965 0150 99                      		mov	[de], a
1339:../DGC_A230_Functions/DGC_A230_Motor_Functions.c **** 
1340:../DGC_A230_Functions/DGC_A230_Motor_Functions.c **** 		M1_Time_Position = 0;
 2966                             		.loc 1 1340 0
 2967 0151 F6                      		clrw	ax
 2968 0152 BF 00 00                		movw	!_M1_Time_Position, ax
1341:../DGC_A230_Functions/DGC_A230_Motor_Functions.c **** 		M1_Last_Time_Position = 0;
 2969                             		.loc 1 1341 0
 2970 0155 F6                      		clrw	ax
 2971 0156 BF 00 00                		movw	!_M1_Last_Time_Position, ax
1342:../DGC_A230_Functions/DGC_A230_Motor_Functions.c **** 		M2_Time_Position = 0;
 2972                             		.loc 1 1342 0
 2973 0159 F6                      		clrw	ax
 2974 015a BF 00 00                		movw	!_M2_Time_Position, ax
1343:../DGC_A230_Functions/DGC_A230_Motor_Functions.c **** 		M2_Last_Time_Position = 0;
 2975                             		.loc 1 1343 0
 2976 015d F6                      		clrw	ax
 2977 015e BF 00 00                		movw	!_M2_Last_Time_Position, ax
1344:../DGC_A230_Functions/DGC_A230_Motor_Functions.c **** 
1345:../DGC_A230_Functions/DGC_A230_Motor_Functions.c **** 		Power_failure = POWER_GOOD_STATE;
 2978                             		.loc 1 1345 0
 2979 0161 F5 00 00                		clrb	!_Power_failure
 2980                             	.L145:
 2981                             	.LBE7:
1346:../DGC_A230_Functions/DGC_A230_Motor_Functions.c **** 	}
1347:../DGC_A230_Functions/DGC_A230_Motor_Functions.c **** 	else												// With Encoder is installed
1348:../DGC_A230_Functions/DGC_A230_Motor_Functions.c **** 	{
1349:../DGC_A230_Functions/DGC_A230_Motor_Functions.c **** 
1350:../DGC_A230_Functions/DGC_A230_Motor_Functions.c **** 	}
1351:../DGC_A230_Functions/DGC_A230_Motor_Functions.c **** 
1352:../DGC_A230_Functions/DGC_A230_Motor_Functions.c **** 	Flash_Enable = 0;
 2982                             		.loc 1 1352 0
 2983 0164 F5 00 00                		clrb	!_Flash_Enable
1353:../DGC_A230_Functions/DGC_A230_Motor_Functions.c **** 	FLASH = 0;
 2984                             		.loc 1 1353 0
 2985 0167 C9 F0 02 FF             		movw	r8, #-254
 2986 016b AD F0                   		movw	ax, r8
 2987 016d BD F4                   		movw	r12, ax
 2988 016f FA F4                   		movw	hl, r12
 2989 0171 8B                      		mov	a, [hl]
 2990 0172 9D F2                   		mov	r10, a
 2991 0174 5A F2 FD                		and	r10, #-3
 2992 0177 AD F0                   		movw	ax, r8
 2993 0179 EA F4                   		movw	de, r12
 2994 017b 8D F2                   		mov	a, r10
 2995 017d 99                      		mov	[de], a
1354:../DGC_A230_Functions/DGC_A230_Motor_Functions.c **** 
1355:../DGC_A230_Functions/DGC_A230_Motor_Functions.c **** 	HMI_Flash_Enable = 0;
 2996                             		.loc 1 1355 0
 2997 017e F5 00 00                		clrb	!_HMI_Flash_Enable
1356:../DGC_A230_Functions/DGC_A230_Motor_Functions.c **** 	Mask = 0xff;
 2998                             		.loc 1 1356 0
 2999 0181 51 FF                   		mov	a, #-1
 3000 0183 9F 00 00                		mov	!_Mask, a
1357:../DGC_A230_Functions/DGC_A230_Motor_Functions.c **** 
1358:../DGC_A230_Functions/DGC_A230_Motor_Functions.c **** 	Display_Mode = NORMAL_MODE;
 3001                             		.loc 1 1358 0
 3002 0186 F5 00 00                		clrb	!_Display_Mode
1359:../DGC_A230_Functions/DGC_A230_Motor_Functions.c **** }
 3003                             		.loc 1 1359 0
 3004 0189 10 08                   		addw	sp, #8
 3005 018b D7                      		ret
 3006                             	.LFE22:
 3008                             		.section	.text.Manual_Start_Recovery_Motor_1,"ax",@progbits
 3009                             		.global	_Manual_Start_Recovery_Motor_1
 3011                             	_Manual_Start_Recovery_Motor_1:
 3012                             	.LFB23:
1360:../DGC_A230_Functions/DGC_A230_Motor_Functions.c **** 
1361:../DGC_A230_Functions/DGC_A230_Motor_Functions.c **** //void Manual_Power_Failure_Recovery_Process (void)
1362:../DGC_A230_Functions/DGC_A230_Motor_Functions.c **** //{
1363:../DGC_A230_Functions/DGC_A230_Motor_Functions.c **** //	uint8_t Recovery_Done = 0;
1364:../DGC_A230_Functions/DGC_A230_Motor_Functions.c **** //
1365:../DGC_A230_Functions/DGC_A230_Motor_Functions.c **** //    memcpy(&Parameter_Name[0], "rE", sizeof("--"));
1366:../DGC_A230_Functions/DGC_A230_Motor_Functions.c **** //	memcpy(&Parameter_Value[0], "Co", sizeof("--"));
1367:../DGC_A230_Functions/DGC_A230_Motor_Functions.c **** //
1368:../DGC_A230_Functions/DGC_A230_Motor_Functions.c **** //	Display_Mode = PARA_MODE;
1369:../DGC_A230_Functions/DGC_A230_Motor_Functions.c **** //
1370:../DGC_A230_Functions/DGC_A230_Motor_Functions.c **** //	HMI_Flash_Count = 0;
1371:../DGC_A230_Functions/DGC_A230_Motor_Functions.c **** //	HMI_Flash_Enable = 1;
1372:../DGC_A230_Functions/DGC_A230_Motor_Functions.c **** //
1373:../DGC_A230_Functions/DGC_A230_Motor_Functions.c **** //	FLASH = 1;
1374:../DGC_A230_Functions/DGC_A230_Motor_Functions.c **** //	Flash_Enable = 1;
1375:../DGC_A230_Functions/DGC_A230_Motor_Functions.c **** //
1376:../DGC_A230_Functions/DGC_A230_Motor_Functions.c **** //	Flash_Frequency_Config = FLASH_LIGHT_FREQUENCY_RECOVERY;
1377:../DGC_A230_Functions/DGC_A230_Motor_Functions.c **** //	Flash_Frequency_Count = 0;
1378:../DGC_A230_Functions/DGC_A230_Motor_Functions.c **** //
1379:../DGC_A230_Functions/DGC_A230_Motor_Functions.c **** //	if (CFG_parameter.Encoder_Config == 0x00)			// Without Encoder is installed
1380:../DGC_A230_Functions/DGC_A230_Motor_Functions.c **** //	{
1381:../DGC_A230_Functions/DGC_A230_Motor_Functions.c **** //		M1_Torque_Setting = CFG_parameter.Motor_Torque_Maneuver;
1382:../DGC_A230_Functions/DGC_A230_Motor_Functions.c **** //		M2_Torque_Setting = CFG_parameter.Motor_Torque_Maneuver;
1383:../DGC_A230_Functions/DGC_A230_Motor_Functions.c **** //
1384:../DGC_A230_Functions/DGC_A230_Motor_Functions.c **** //		M1_Timestamp = UNDEFINE_TIMESTAMP;
1385:../DGC_A230_Functions/DGC_A230_Motor_Functions.c **** //		M2_Timestamp = UNDEFINE_TIMESTAMP;
1386:../DGC_A230_Functions/DGC_A230_Motor_Functions.c **** //
1387:../DGC_A230_Functions/DGC_A230_Motor_Functions.c **** //		TRIG_EN = 1;			// Enable Pulse out to control Motor
1388:../DGC_A230_Functions/DGC_A230_Motor_Functions.c **** //		R_INTC0_Start();												// Enable Sync to control, Motor 1 start opening
1389:../DGC_A230_Functions/DGC_A230_Motor_Functions.c **** //
1390:../DGC_A230_Functions/DGC_A230_Motor_Functions.c **** //		Motor1_Open_Enable();											// Enable Motor #1 Open
1391:../DGC_A230_Functions/DGC_A230_Motor_Functions.c **** //		Leaf_No1_State = GATE_STATE_OPENING;
1392:../DGC_A230_Functions/DGC_A230_Motor_Functions.c **** //
1393:../DGC_A230_Functions/DGC_A230_Motor_Functions.c **** //
1394:../DGC_A230_Functions/DGC_A230_Motor_Functions.c **** //		Tick_Count = 0;													// Reset Tick count
1395:../DGC_A230_Functions/DGC_A230_Motor_Functions.c **** //		M1_Tick_Count = 0;
1396:../DGC_A230_Functions/DGC_A230_Motor_Functions.c **** //		M2_Tick_Count = 0;												// Start counter to M2
1397:../DGC_A230_Functions/DGC_A230_Motor_Functions.c **** //		Recovery_Done = 0;
1398:../DGC_A230_Functions/DGC_A230_Motor_Functions.c **** //
1399:../DGC_A230_Functions/DGC_A230_Motor_Functions.c **** //		R_TAU0_Channel1_Start();										// Start Timer channel 1
1400:../DGC_A230_Functions/DGC_A230_Motor_Functions.c **** //
1401:../DGC_A230_Functions/DGC_A230_Motor_Functions.c **** //		if (CFG_parameter.Number_Of_Motors == 0x02)				// when using 2 Motors
1402:../DGC_A230_Functions/DGC_A230_Motor_Functions.c **** //		{
1403:../DGC_A230_Functions/DGC_A230_Motor_Functions.c **** //			while (Tick_Count < CFG_parameter.Motor_No2_Open_Delay_Time);
1404:../DGC_A230_Functions/DGC_A230_Motor_Functions.c **** //			M2_Tick_Count = 0;												// Start counter to M2
1405:../DGC_A230_Functions/DGC_A230_Motor_Functions.c **** ////			if (Leaf_No2_State != GATE_STATE_OPENED)
1406:../DGC_A230_Functions/DGC_A230_Motor_Functions.c **** ////			{
1407:../DGC_A230_Functions/DGC_A230_Motor_Functions.c **** //				Motor2_Open_Enable();											// Enable Motor #2 Open
1408:../DGC_A230_Functions/DGC_A230_Motor_Functions.c **** //				Leaf_No2_State = GATE_STATE_OPENING;
1409:../DGC_A230_Functions/DGC_A230_Motor_Functions.c **** ////			}
1410:../DGC_A230_Functions/DGC_A230_Motor_Functions.c **** //		}
1411:../DGC_A230_Functions/DGC_A230_Motor_Functions.c **** //
1412:../DGC_A230_Functions/DGC_A230_Motor_Functions.c **** //		while (Recovery_Done == 0)				// Start Opening
1413:../DGC_A230_Functions/DGC_A230_Motor_Functions.c **** //		{
1414:../DGC_A230_Functions/DGC_A230_Motor_Functions.c **** //			if ((M1_Tick_Count >= (CFG_parameter.M1_Travel_Time)) 	// Over time
1415:../DGC_A230_Functions/DGC_A230_Motor_Functions.c **** //				|| (FCA1_IN && (CFG_parameter.Limit_Switch_Config != 0x00)))								// Open Limit switch
1416:../DGC_A230_Functions/DGC_A230_Motor_Functions.c **** //			{
1417:../DGC_A230_Functions/DGC_A230_Motor_Functions.c **** //				Motor1_Disable();
1418:../DGC_A230_Functions/DGC_A230_Motor_Functions.c **** //				Leaf_No1_State = GATE_STATE_OPENED;
1419:../DGC_A230_Functions/DGC_A230_Motor_Functions.c **** //			}
1420:../DGC_A230_Functions/DGC_A230_Motor_Functions.c **** //
1421:../DGC_A230_Functions/DGC_A230_Motor_Functions.c **** //			if (CFG_parameter.Number_Of_Motors == 0x02)				// when using 2 Motors
1422:../DGC_A230_Functions/DGC_A230_Motor_Functions.c **** //			{
1423:../DGC_A230_Functions/DGC_A230_Motor_Functions.c **** //
1424:../DGC_A230_Functions/DGC_A230_Motor_Functions.c **** //				if ((M2_Tick_Count >= (CFG_parameter.M2_Travel_Time)) 	// Over time
1425:../DGC_A230_Functions/DGC_A230_Motor_Functions.c **** //					|| (FCA2_IN && (CFG_parameter.Limit_Switch_Config != 0x00)))								// Open Limit switch
1426:../DGC_A230_Functions/DGC_A230_Motor_Functions.c **** //				{
1427:../DGC_A230_Functions/DGC_A230_Motor_Functions.c **** //					Motor2_Disable();
1428:../DGC_A230_Functions/DGC_A230_Motor_Functions.c **** //					Leaf_No2_State = GATE_STATE_OPENED;
1429:../DGC_A230_Functions/DGC_A230_Motor_Functions.c **** //				}
1430:../DGC_A230_Functions/DGC_A230_Motor_Functions.c **** //			}
1431:../DGC_A230_Functions/DGC_A230_Motor_Functions.c **** //
1432:../DGC_A230_Functions/DGC_A230_Motor_Functions.c **** //			if (CFG_parameter.Number_Of_Motors == 0x02)				// when using 2 Motors
1433:../DGC_A230_Functions/DGC_A230_Motor_Functions.c **** //			{
1434:../DGC_A230_Functions/DGC_A230_Motor_Functions.c **** //				if ((Leaf_No1_State == GATE_STATE_OPENED) && (Leaf_No2_State == GATE_STATE_OPENED))
1435:../DGC_A230_Functions/DGC_A230_Motor_Functions.c **** //				{
1436:../DGC_A230_Functions/DGC_A230_Motor_Functions.c **** //					Recovery_Done = 1;
1437:../DGC_A230_Functions/DGC_A230_Motor_Functions.c **** //				}
1438:../DGC_A230_Functions/DGC_A230_Motor_Functions.c **** //			}
1439:../DGC_A230_Functions/DGC_A230_Motor_Functions.c **** //			else
1440:../DGC_A230_Functions/DGC_A230_Motor_Functions.c **** //			{
1441:../DGC_A230_Functions/DGC_A230_Motor_Functions.c **** //				if (Leaf_No1_State == GATE_STATE_OPENED)
1442:../DGC_A230_Functions/DGC_A230_Motor_Functions.c **** //				{
1443:../DGC_A230_Functions/DGC_A230_Motor_Functions.c **** //					Recovery_Done = 1;
1444:../DGC_A230_Functions/DGC_A230_Motor_Functions.c **** //				}
1445:../DGC_A230_Functions/DGC_A230_Motor_Functions.c **** //			}
1446:../DGC_A230_Functions/DGC_A230_Motor_Functions.c **** //		}
1447:../DGC_A230_Functions/DGC_A230_Motor_Functions.c **** //
1448:../DGC_A230_Functions/DGC_A230_Motor_Functions.c **** //		Tick_Count = 0;													// Reset Tick count
1449:../DGC_A230_Functions/DGC_A230_Motor_Functions.c **** //		while (Tick_Count < 100);										// wait for 1 second
1450:../DGC_A230_Functions/DGC_A230_Motor_Functions.c **** //		R_TAU0_Channel1_Stop();											// Stop Timer channel 1
1451:../DGC_A230_Functions/DGC_A230_Motor_Functions.c **** //
1452:../DGC_A230_Functions/DGC_A230_Motor_Functions.c **** //		R_INTC0_Stop();													// Disable Sync to control
1453:../DGC_A230_Functions/DGC_A230_Motor_Functions.c **** //		TRIG_EN = 0;			// Enable Pulse out to control Motor
1454:../DGC_A230_Functions/DGC_A230_Motor_Functions.c **** //		M1_PWM = 1;					// Clear Trigger Pulse Output
1455:../DGC_A230_Functions/DGC_A230_Motor_Functions.c **** //		M2_PWM = 1;					// Clear M2 PWM Pulse Output
1456:../DGC_A230_Functions/DGC_A230_Motor_Functions.c **** //
1457:../DGC_A230_Functions/DGC_A230_Motor_Functions.c **** //		M1_Time_Position = CFG_parameter.M1_Total_Space;
1458:../DGC_A230_Functions/DGC_A230_Motor_Functions.c **** //		M1_Last_Time_Position = M1_Time_Position;
1459:../DGC_A230_Functions/DGC_A230_Motor_Functions.c **** //		M2_Time_Position = CFG_parameter.M1_Total_Space;
1460:../DGC_A230_Functions/DGC_A230_Motor_Functions.c **** //		M2_Last_Time_Position = M2_Time_Position;
1461:../DGC_A230_Functions/DGC_A230_Motor_Functions.c **** //
1462:../DGC_A230_Functions/DGC_A230_Motor_Functions.c **** //		Power_failure = POWER_GOOD_STATE;
1463:../DGC_A230_Functions/DGC_A230_Motor_Functions.c **** //	}
1464:../DGC_A230_Functions/DGC_A230_Motor_Functions.c **** //	else												// With Encoder is installed
1465:../DGC_A230_Functions/DGC_A230_Motor_Functions.c **** //	{
1466:../DGC_A230_Functions/DGC_A230_Motor_Functions.c **** //
1467:../DGC_A230_Functions/DGC_A230_Motor_Functions.c **** //	}
1468:../DGC_A230_Functions/DGC_A230_Motor_Functions.c **** //
1469:../DGC_A230_Functions/DGC_A230_Motor_Functions.c **** //	Flash_Enable = 0;
1470:../DGC_A230_Functions/DGC_A230_Motor_Functions.c **** //	FLASH = 0;
1471:../DGC_A230_Functions/DGC_A230_Motor_Functions.c **** //
1472:../DGC_A230_Functions/DGC_A230_Motor_Functions.c **** //	HMI_Flash_Enable = 0;
1473:../DGC_A230_Functions/DGC_A230_Motor_Functions.c **** //	Mask = 0xff;
1474:../DGC_A230_Functions/DGC_A230_Motor_Functions.c **** //
1475:../DGC_A230_Functions/DGC_A230_Motor_Functions.c **** //	Display_Mode = NORMAL_MODE;
1476:../DGC_A230_Functions/DGC_A230_Motor_Functions.c **** //}
1477:../DGC_A230_Functions/DGC_A230_Motor_Functions.c **** 
1478:../DGC_A230_Functions/DGC_A230_Motor_Functions.c **** 
1479:../DGC_A230_Functions/DGC_A230_Motor_Functions.c **** void Manual_Start_Recovery_Motor_1(void)
1480:../DGC_A230_Functions/DGC_A230_Motor_Functions.c **** {
 3013                             		.loc 1 1480 0
1481:../DGC_A230_Functions/DGC_A230_Motor_Functions.c **** 
1482:../DGC_A230_Functions/DGC_A230_Motor_Functions.c **** 	if (CFG_parameter.Encoder_Config == 0x00)			// Without Encoder is installed
 3014                             		.loc 1 1482 0
 3015 0000 8F 00 00                		mov	a, !_CFG_parameter+97
 3016 0003 9D F0                   		mov	r8, a
 3017 0005 D4 F0                   		cmp0	r8
 3018 0007 61 E8                   		 skz
 3019 0009 EC 48 00 00             		 br	!!.L150
 3020                             	.LBB8:
1483:../DGC_A230_Functions/DGC_A230_Motor_Functions.c **** 	{
1484:../DGC_A230_Functions/DGC_A230_Motor_Functions.c **** 		M1_Torque_Setting = CFG_parameter.Motor_Torque_Maneuver;
 3021                             		.loc 1 1484 0
 3022 000d AF 00 00                		movw	ax, !_CFG_parameter+72
 3023 0010 BD F0                   		movw	r8, ax
 3024 0012 BF 00 00                		movw	!_M1_Torque_Setting, ax
1485:../DGC_A230_Functions/DGC_A230_Motor_Functions.c **** 
1486:../DGC_A230_Functions/DGC_A230_Motor_Functions.c **** 		M1_Timestamp = UNDEFINE_TIMESTAMP;
 3025                             		.loc 1 1486 0
 3026 0015 F5 00 00                		clrb	!_M1_Timestamp
1487:../DGC_A230_Functions/DGC_A230_Motor_Functions.c **** 
1488:../DGC_A230_Functions/DGC_A230_Motor_Functions.c **** 		TRIG_EN = 1;			// Enable Pulse out to control Motor
 3027                             		.loc 1 1488 0
 3028 0018 C9 F0 03 FF             		movw	r8, #-253
 3029 001c AD F0                   		movw	ax, r8
 3030 001e BD F4                   		movw	r12, ax
 3031 0020 FA F4                   		movw	hl, r12
 3032 0022 8B                      		mov	a, [hl]
 3033 0023 9D F2                   		mov	r10, a
 3034 0025 6A F2 01                		or	r10, #1
 3035 0028 AD F0                   		movw	ax, r8
 3036 002a EA F4                   		movw	de, r12
 3037 002c 8D F2                   		mov	a, r10
 3038 002e 99                      		mov	[de], a
1489:../DGC_A230_Functions/DGC_A230_Motor_Functions.c **** 		R_INTC0_Start();												// Enable Sync to control, Motor 1 start opening
 3039                             		.loc 1 1489 0
 3040 002f FC 00 00 00             		call	!!%code(_R_INTC0_Start)
1490:../DGC_A230_Functions/DGC_A230_Motor_Functions.c **** 
1491:../DGC_A230_Functions/DGC_A230_Motor_Functions.c **** 		Motor1_Open_Enable();											// Enable Motor #1 Open
 3041                             		.loc 1 1491 0
 3042 0033 FC 00 00 00             		call	!!%code(_Motor1_Open_Enable)
1492:../DGC_A230_Functions/DGC_A230_Motor_Functions.c **** 		Leaf_No1_State = GATE_STATE_OPENING;
 3043                             		.loc 1 1492 0
 3044 0037 51 02                   		mov	a, #2
 3045 0039 9F 00 00                		mov	!_Leaf_No1_State, a
1493:../DGC_A230_Functions/DGC_A230_Motor_Functions.c **** 
1494:../DGC_A230_Functions/DGC_A230_Motor_Functions.c **** 
1495:../DGC_A230_Functions/DGC_A230_Motor_Functions.c **** 		Tick_Count = 0;													// Reset Tick count
 3046                             		.loc 1 1495 0
 3047 003c F6                      		clrw	ax
 3048 003d BF 00 00                		movw	!_Tick_Count, ax
1496:../DGC_A230_Functions/DGC_A230_Motor_Functions.c **** 		M1_Tick_Count = 0;											// Start counter to M2
 3049                             		.loc 1 1496 0
 3050 0040 F6                      		clrw	ax
 3051 0041 BF 00 00                		movw	!_M1_Tick_Count, ax
1497:../DGC_A230_Functions/DGC_A230_Motor_Functions.c **** 
1498:../DGC_A230_Functions/DGC_A230_Motor_Functions.c **** 		R_TAU0_Channel1_Start();										// Start Timer channel 1
 3052                             		.loc 1 1498 0
 3053 0044 FC 00 00 00             		call	!!%code(_R_TAU0_Channel1_Start)
 3054                             	.L150:
 3055                             	.LBE8:
1499:../DGC_A230_Functions/DGC_A230_Motor_Functions.c **** 
1500:../DGC_A230_Functions/DGC_A230_Motor_Functions.c **** 	}
1501:../DGC_A230_Functions/DGC_A230_Motor_Functions.c **** }
 3056                             		.loc 1 1501 0
 3057 0048 D7                      		ret
 3058                             	.LFE23:
 3060                             		.section	.text.Manual_Start_Recovery_Motor_2,"ax",@progbits
 3061                             		.global	_Manual_Start_Recovery_Motor_2
 3063                             	_Manual_Start_Recovery_Motor_2:
 3064                             	.LFB24:
1502:../DGC_A230_Functions/DGC_A230_Motor_Functions.c **** void Manual_Start_Recovery_Motor_2(void)
1503:../DGC_A230_Functions/DGC_A230_Motor_Functions.c **** {
 3065                             		.loc 1 1503 0
1504:../DGC_A230_Functions/DGC_A230_Motor_Functions.c **** 	if (CFG_parameter.Encoder_Config == 0x00)			// Without Encoder is installed
 3066                             		.loc 1 1504 0
 3067 0000 8F 00 00                		mov	a, !_CFG_parameter+97
 3068 0003 9D F0                   		mov	r8, a
 3069 0005 D4 F0                   		cmp0	r8
 3070 0007 61 E8                   		 skz
 3071 0009 EC 7D 00 00             		 br	!!.L152
1505:../DGC_A230_Functions/DGC_A230_Motor_Functions.c **** 	{
1506:../DGC_A230_Functions/DGC_A230_Motor_Functions.c **** 		M2_Torque_Setting = CFG_parameter.Motor_Torque_Maneuver;
 3072                             		.loc 1 1506 0
 3073 000d AF 00 00                		movw	ax, !_CFG_parameter+72
 3074 0010 BD F0                   		movw	r8, ax
 3075 0012 BF 00 00                		movw	!_M2_Torque_Setting, ax
1507:../DGC_A230_Functions/DGC_A230_Motor_Functions.c **** 
1508:../DGC_A230_Functions/DGC_A230_Motor_Functions.c **** 		M2_Timestamp = UNDEFINE_TIMESTAMP;
 3076                             		.loc 1 1508 0
 3077 0015 F5 00 00                		clrb	!_M2_Timestamp
1509:../DGC_A230_Functions/DGC_A230_Motor_Functions.c **** 		if (CFG_parameter.Number_Of_Motors == 0x01)				// when using 2 Motors
 3078                             		.loc 1 1509 0
 3079 0018 8F 00 00                		mov	a, !_CFG_parameter+1
 3080 001b 9D F0                   		mov	r8, a
 3081 001d 4A F0 01                		cmp	r8, #1
 3082 0020 61 E8                   		 skz
 3083 0022 EC 49 00 00             		 br	!!.L154
 3084                             	.LBB9:
1510:../DGC_A230_Functions/DGC_A230_Motor_Functions.c **** 		{
1511:../DGC_A230_Functions/DGC_A230_Motor_Functions.c **** 			TRIG_EN = 1;			// Enable Pulse out to control Motor
 3085                             		.loc 1 1511 0
 3086 0026 C9 F0 03 FF             		movw	r8, #-253
 3087 002a AD F0                   		movw	ax, r8
 3088 002c BD F4                   		movw	r12, ax
 3089 002e FA F4                   		movw	hl, r12
 3090 0030 8B                      		mov	a, [hl]
 3091 0031 9D F2                   		mov	r10, a
 3092 0033 6A F2 01                		or	r10, #1
 3093 0036 AD F0                   		movw	ax, r8
 3094 0038 EA F4                   		movw	de, r12
 3095 003a 8D F2                   		mov	a, r10
 3096 003c 99                      		mov	[de], a
1512:../DGC_A230_Functions/DGC_A230_Motor_Functions.c **** 			R_INTC0_Start();												// Enable Sync to control, Motor 1 start opening
 3097                             		.loc 1 1512 0
 3098 003d FC 00 00 00             		call	!!%code(_R_INTC0_Start)
1513:../DGC_A230_Functions/DGC_A230_Motor_Functions.c **** 
1514:../DGC_A230_Functions/DGC_A230_Motor_Functions.c **** 			Tick_Count = 0;													// Reset Tick count
 3099                             		.loc 1 1514 0
 3100 0041 F6                      		clrw	ax
 3101 0042 BF 00 00                		movw	!_Tick_Count, ax
1515:../DGC_A230_Functions/DGC_A230_Motor_Functions.c **** 			R_TAU0_Channel1_Start();										// Start Timer channel 1
 3102                             		.loc 1 1515 0
 3103 0045 FC 00 00 00             		call	!!%code(_R_TAU0_Channel1_Start)
 3104                             	.L154:
 3105                             	.LBE9:
1516:../DGC_A230_Functions/DGC_A230_Motor_Functions.c **** 		}
1517:../DGC_A230_Functions/DGC_A230_Motor_Functions.c **** 		M2_Tick_Count = 0;												// Start counter to M2
 3106                             		.loc 1 1517 0
 3107 0049 F6                      		clrw	ax
 3108 004a BF 00 00                		movw	!_M2_Tick_Count, ax
1518:../DGC_A230_Functions/DGC_A230_Motor_Functions.c **** 
1519:../DGC_A230_Functions/DGC_A230_Motor_Functions.c **** 
1520:../DGC_A230_Functions/DGC_A230_Motor_Functions.c **** 		if (CFG_parameter.Number_Of_Motors == 0x02)				// when using 2 Motors
 3109                             		.loc 1 1520 0
 3110 004d 8F 00 00                		mov	a, !_CFG_parameter+1
 3111 0050 9D F0                   		mov	r8, a
 3112 0052 4A F0 02                		cmp	r8, #2
 3113 0055 61 E8                   		 skz
 3114 0057 EC 7D 00 00             		 br	!!.L152
1521:../DGC_A230_Functions/DGC_A230_Motor_Functions.c **** 		{
1522:../DGC_A230_Functions/DGC_A230_Motor_Functions.c **** 			while (Tick_Count < CFG_parameter.Motor_No2_Open_Delay_Time);
 3115                             		.loc 1 1522 0
 3116 005b 00                      		nop
 3117                             	.L156:
 3118                             		.loc 1 1522 0 is_stmt 0 discriminator 1
 3119 005c AF 00 00                		movw	ax, !_CFG_parameter+40
 3120 005f BD F2                   		movw	r10, ax
 3121 0061 AF 00 00                		movw	ax, !_Tick_Count
 3122 0064 BD F0                   		movw	r8, ax
 3123 0066 AD F2                   		movw	ax, r10
 3124 0068 46 F0                   		cmpw	ax, r8
 3125 006a 61 F3                   		 sknh
 3126 006c EC 5C 00 00             		 br	!!.L156
1523:../DGC_A230_Functions/DGC_A230_Motor_Functions.c **** 			M2_Tick_Count = 0;												// Start counter to M2
 3127                             		.loc 1 1523 0 is_stmt 1
 3128 0070 F6                      		clrw	ax
 3129 0071 BF 00 00                		movw	!_M2_Tick_Count, ax
1524:../DGC_A230_Functions/DGC_A230_Motor_Functions.c **** //			if (Leaf_No2_State != GATE_STATE_OPENED)
1525:../DGC_A230_Functions/DGC_A230_Motor_Functions.c **** //			{
1526:../DGC_A230_Functions/DGC_A230_Motor_Functions.c **** 				Motor2_Open_Enable();											// Enable Motor #2 Open
 3130                             		.loc 1 1526 0
 3131 0074 FC 00 00 00             		call	!!%code(_Motor2_Open_Enable)
1527:../DGC_A230_Functions/DGC_A230_Motor_Functions.c **** 				Leaf_No2_State = GATE_STATE_OPENING;
 3132                             		.loc 1 1527 0
 3133 0078 51 02                   		mov	a, #2
 3134 007a 9F 00 00                		mov	!_Leaf_No2_State, a
 3135                             	.L152:
1528:../DGC_A230_Functions/DGC_A230_Motor_Functions.c **** //			}
1529:../DGC_A230_Functions/DGC_A230_Motor_Functions.c **** 		}
1530:../DGC_A230_Functions/DGC_A230_Motor_Functions.c **** 
1531:../DGC_A230_Functions/DGC_A230_Motor_Functions.c **** 	}
1532:../DGC_A230_Functions/DGC_A230_Motor_Functions.c **** 	else												// With Encoder is installed
1533:../DGC_A230_Functions/DGC_A230_Motor_Functions.c **** 	{
1534:../DGC_A230_Functions/DGC_A230_Motor_Functions.c **** 
1535:../DGC_A230_Functions/DGC_A230_Motor_Functions.c **** 	}
1536:../DGC_A230_Functions/DGC_A230_Motor_Functions.c **** }
 3136                             		.loc 1 1536 0
 3137 007d D7                      		ret
 3138                             	.LFE24:
 3140                             		.section	.text.Manual_Wait_Recorery_Motor1,"ax",@progbits
 3141                             		.global	_Manual_Wait_Recorery_Motor1
 3143                             	_Manual_Wait_Recorery_Motor1:
 3144                             	.LFB25:
1537:../DGC_A230_Functions/DGC_A230_Motor_Functions.c **** 
1538:../DGC_A230_Functions/DGC_A230_Motor_Functions.c **** void Manual_Wait_Recorery_Motor1(void)
1539:../DGC_A230_Functions/DGC_A230_Motor_Functions.c **** {
 3145                             		.loc 1 1539 0
1540:../DGC_A230_Functions/DGC_A230_Motor_Functions.c **** 
1541:../DGC_A230_Functions/DGC_A230_Motor_Functions.c **** 	if ((M1_Tick_Count >= (CFG_parameter.M1_Travel_Time)) 	// Over time
 3146                             		.loc 1 1541 0
 3147 0000 AF 00 00                		movw	ax, !_CFG_parameter+12
 3148 0003 BD F2                   		movw	r10, ax
 3149 0005 AF 00 00                		movw	ax, !_M1_Tick_Count
 3150 0008 BD F0                   		movw	r8, ax
 3151 000a AD F2                   		movw	ax, r10
 3152 000c 46 F0                   		cmpw	ax, r8
 3153 000e 61 E3                   		 skh
 3154 0010 EC 3B 00 00             		 br	!!.L158
1542:../DGC_A230_Functions/DGC_A230_Motor_Functions.c **** 		|| (FCA1_IN && (CFG_parameter.Limit_Switch_Config != 0x00)))								// Open Limit switch
 3155                             		.loc 1 1542 0
 3156 0014 C9 F0 04 FF             		movw	r8, #-252
 3157 0018 AD F0                   		movw	ax, r8
 3158 001a BD F2                   		movw	r10, ax
 3159 001c FA F2                   		movw	hl, r10
 3160 001e 8B                      		mov	a, [hl]
 3161 001f 9D F0                   		mov	r8, a
 3162 0021 31 1A                   		shr	a, 1
 3163 0023 9D F0                   		mov	r8, a
 3164 0025 5A F0 01                		and	r8, #1
 3165 0028 61 F8                   		sknz
 3166 002a EC 44 00 00             		 br	!!.L157
 3167                             		 # zero-comparison eliminated
 3168                             		.loc 1 1542 0 is_stmt 0 discriminator 1
 3169 002e 8F 00 00                		mov	a, !_CFG_parameter+96
 3170 0031 9D F0                   		mov	r8, a
 3171 0033 D4 F0                   		cmp0	r8
 3172 0035 61 F8                   		 sknz
 3173 0037 EC 44 00 00             		 br	!!.L157
 3174                             	.L158:
1543:../DGC_A230_Functions/DGC_A230_Motor_Functions.c **** 	{
1544:../DGC_A230_Functions/DGC_A230_Motor_Functions.c **** 		Motor1_Disable();
 3175                             		.loc 1 1544 0 is_stmt 1
 3176 003b FC 00 00 00             		call	!!%code(_Motor1_Disable)
1545:../DGC_A230_Functions/DGC_A230_Motor_Functions.c **** 		Leaf_No1_State = GATE_STATE_OPENED;
 3177                             		.loc 1 1545 0
 3178 003f 51 03                   		mov	a, #3
 3179 0041 9F 00 00                		mov	!_Leaf_No1_State, a
 3180                             	.L157:
1546:../DGC_A230_Functions/DGC_A230_Motor_Functions.c **** 	}
1547:../DGC_A230_Functions/DGC_A230_Motor_Functions.c **** }
 3181                             		.loc 1 1547 0
 3182 0044 D7                      		ret
 3183                             	.LFE25:
 3185                             		.section	.text.Manual_Wait_Recorery_Motor2,"ax",@progbits
 3186                             		.global	_Manual_Wait_Recorery_Motor2
 3188                             	_Manual_Wait_Recorery_Motor2:
 3189                             	.LFB26:
1548:../DGC_A230_Functions/DGC_A230_Motor_Functions.c **** void Manual_Wait_Recorery_Motor2(void)
1549:../DGC_A230_Functions/DGC_A230_Motor_Functions.c **** {
 3190                             		.loc 1 1549 0
1550:../DGC_A230_Functions/DGC_A230_Motor_Functions.c **** 	if (CFG_parameter.Number_Of_Motors == 0x02)				// when using 2 Motors
 3191                             		.loc 1 1550 0
 3192 0000 8F 00 00                		mov	a, !_CFG_parameter+1
 3193 0003 9D F0                   		mov	r8, a
 3194 0005 4A F0 02                		cmp	r8, #2
 3195 0008 61 E8                   		 skz
 3196 000a EC 52 00 00             		 br	!!.L160
1551:../DGC_A230_Functions/DGC_A230_Motor_Functions.c **** 	{
1552:../DGC_A230_Functions/DGC_A230_Motor_Functions.c **** 
1553:../DGC_A230_Functions/DGC_A230_Motor_Functions.c **** 		if ((M2_Tick_Count >= (CFG_parameter.M2_Travel_Time)) 	// Over time
 3197                             		.loc 1 1553 0
 3198 000e AF 00 00                		movw	ax, !_CFG_parameter+14
 3199 0011 BD F2                   		movw	r10, ax
 3200 0013 AF 00 00                		movw	ax, !_M2_Tick_Count
 3201 0016 BD F0                   		movw	r8, ax
 3202 0018 AD F2                   		movw	ax, r10
 3203 001a 46 F0                   		cmpw	ax, r8
 3204 001c 61 E3                   		 skh
 3205 001e EC 49 00 00             		 br	!!.L162
1554:../DGC_A230_Functions/DGC_A230_Motor_Functions.c **** 			|| (FCA2_IN && (CFG_parameter.Limit_Switch_Config != 0x00)))								// Open Limit switch
 3206                             		.loc 1 1554 0
 3207 0022 C9 F0 04 FF             		movw	r8, #-252
 3208 0026 AD F0                   		movw	ax, r8
 3209 0028 BD F2                   		movw	r10, ax
 3210 002a FA F2                   		movw	hl, r10
 3211 002c 8B                      		mov	a, [hl]
 3212 002d 9D F0                   		mov	r8, a
 3213 002f 31 3A                   		shr	a, 3
 3214 0031 9D F0                   		mov	r8, a
 3215 0033 5A F0 01                		and	r8, #1
 3216 0036 61 F8                   		sknz
 3217 0038 EC 52 00 00             		 br	!!.L160
 3218                             		 # zero-comparison eliminated
 3219                             		.loc 1 1554 0 is_stmt 0 discriminator 1
 3220 003c 8F 00 00                		mov	a, !_CFG_parameter+96
 3221 003f 9D F0                   		mov	r8, a
 3222 0041 D4 F0                   		cmp0	r8
 3223 0043 61 F8                   		 sknz
 3224 0045 EC 52 00 00             		 br	!!.L160
 3225                             	.L162:
1555:../DGC_A230_Functions/DGC_A230_Motor_Functions.c **** 		{
1556:../DGC_A230_Functions/DGC_A230_Motor_Functions.c **** 			Motor2_Disable();
 3226                             		.loc 1 1556 0 is_stmt 1
 3227 0049 FC 00 00 00             		call	!!%code(_Motor2_Disable)
1557:../DGC_A230_Functions/DGC_A230_Motor_Functions.c **** 			Leaf_No2_State = GATE_STATE_OPENED;
 3228                             		.loc 1 1557 0
 3229 004d 51 03                   		mov	a, #3
 3230 004f 9F 00 00                		mov	!_Leaf_No2_State, a
 3231                             	.L160:
1558:../DGC_A230_Functions/DGC_A230_Motor_Functions.c **** 		}
1559:../DGC_A230_Functions/DGC_A230_Motor_Functions.c **** 	}
1560:../DGC_A230_Functions/DGC_A230_Motor_Functions.c **** }
 3232                             		.loc 1 1560 0
 3233 0052 D7                      		ret
 3234                             	.LFE26:
 3236                             		.section	.text.Manual_Power_Failure_Recovery_Process_Test,"ax",@progbits
 3237                             		.global	_Manual_Power_Failure_Recovery_Process_Test
 3239                             	_Manual_Power_Failure_Recovery_Process_Test:
 3240                             	.LFB27:
1561:../DGC_A230_Functions/DGC_A230_Motor_Functions.c **** 
1562:../DGC_A230_Functions/DGC_A230_Motor_Functions.c **** void Manual_Power_Failure_Recovery_Process_Test (void)
1563:../DGC_A230_Functions/DGC_A230_Motor_Functions.c **** {
 3241                             		.loc 1 1563 0
 3242                             		; start of function
 3243                             		; locals: 2 bytes
 3244                             		; outgoing: 6 bytes
 3245                             		; uses ES register
 3246 0000 20 08                   		subw	sp, #8
 3247                             	.LCFI8:
1564:../DGC_A230_Functions/DGC_A230_Motor_Functions.c **** 	uint8_t Recovery_Done = 0;
 3248                             		.loc 1 1564 0
 3249 0002 F1                      		clrb	a
 3250 0003 98 07                   		mov	[sp+7], a
1565:../DGC_A230_Functions/DGC_A230_Motor_Functions.c **** 
1566:../DGC_A230_Functions/DGC_A230_Motor_Functions.c ****     memcpy(&Parameter_Name[0], "rE", sizeof("--"));
 3251                             		.loc 1 1566 0
 3252 0005 30 00 00                		movw	ax, #_Parameter_Name
 3253 0008 B8 00                   		movw	[sp], ax
 3254 000a 30 00 00                		movw	ax, #.LC0
 3255 000d B8 02                   		movw	[sp+2], ax
 3256 000f 30 03 00                		movw	ax, #3
 3257 0012 B8 04                   		movw	[sp+4], ax
 3258 0014 FC 00 00 00             		call	!!%code(_memcpy)
1567:../DGC_A230_Functions/DGC_A230_Motor_Functions.c **** 	memcpy(&Parameter_Value[0], "Co", sizeof("--"));
 3259                             		.loc 1 1567 0
 3260 0018 30 00 00                		movw	ax, #_Parameter_Value
 3261 001b B8 00                   		movw	[sp], ax
 3262 001d 30 03 00                		movw	ax, #.LC1
 3263 0020 B8 02                   		movw	[sp+2], ax
 3264 0022 30 03 00                		movw	ax, #3
 3265 0025 B8 04                   		movw	[sp+4], ax
 3266 0027 FC 00 00 00             		call	!!%code(_memcpy)
1568:../DGC_A230_Functions/DGC_A230_Motor_Functions.c **** 
1569:../DGC_A230_Functions/DGC_A230_Motor_Functions.c **** 	Display_Mode = PARA_MODE;
 3267                             		.loc 1 1569 0
 3268 002b 51 03                   		mov	a, #3
 3269 002d 9F 00 00                		mov	!_Display_Mode, a
1570:../DGC_A230_Functions/DGC_A230_Motor_Functions.c **** 
1571:../DGC_A230_Functions/DGC_A230_Motor_Functions.c **** 	HMI_Flash_Count = 0;
 3270                             		.loc 1 1571 0
 3271 0030 F5 00 00                		clrb	!_HMI_Flash_Count
1572:../DGC_A230_Functions/DGC_A230_Motor_Functions.c **** 	HMI_Flash_Enable = 1;
 3272                             		.loc 1 1572 0
 3273 0033 E5 00 00                		oneb	!_HMI_Flash_Enable
1573:../DGC_A230_Functions/DGC_A230_Motor_Functions.c **** 
1574:../DGC_A230_Functions/DGC_A230_Motor_Functions.c **** 	FLASH = 1;
 3274                             		.loc 1 1574 0
 3275 0036 C9 F0 02 FF             		movw	r8, #-254
 3276 003a AD F0                   		movw	ax, r8
 3277 003c BD F4                   		movw	r12, ax
 3278 003e FA F4                   		movw	hl, r12
 3279 0040 8B                      		mov	a, [hl]
 3280 0041 9D F2                   		mov	r10, a
 3281 0043 6A F2 02                		or	r10, #2
 3282 0046 AD F0                   		movw	ax, r8
 3283 0048 EA F4                   		movw	de, r12
 3284 004a 8D F2                   		mov	a, r10
 3285 004c 99                      		mov	[de], a
1575:../DGC_A230_Functions/DGC_A230_Motor_Functions.c **** 	Flash_Enable = 1;
 3286                             		.loc 1 1575 0
 3287 004d E5 00 00                		oneb	!_Flash_Enable
1576:../DGC_A230_Functions/DGC_A230_Motor_Functions.c **** 
1577:../DGC_A230_Functions/DGC_A230_Motor_Functions.c **** 	Flash_Frequency_Config = FLASH_LIGHT_FREQUENCY_RECOVERY;
 3288                             		.loc 1 1577 0
 3289 0050 51 03                   		mov	a, #3
 3290 0052 9F 00 00                		mov	!_Flash_Frequency_Config, a
1578:../DGC_A230_Functions/DGC_A230_Motor_Functions.c **** 	Flash_Frequency_Count = 0;
 3291                             		.loc 1 1578 0
 3292 0055 F5 00 00                		clrb	!_Flash_Frequency_Count
1579:../DGC_A230_Functions/DGC_A230_Motor_Functions.c **** 
1580:../DGC_A230_Functions/DGC_A230_Motor_Functions.c **** 	Recovery_Done = 0;
 3293                             		.loc 1 1580 0
 3294 0058 F1                      		clrb	a
 3295 0059 98 07                   		mov	[sp+7], a
1581:../DGC_A230_Functions/DGC_A230_Motor_Functions.c **** 	Manual_Start_Recovery_Motor_1();
 3296                             		.loc 1 1581 0
 3297 005b FC 00 00 00             		call	!!%code(_Manual_Start_Recovery_Motor_1)
1582:../DGC_A230_Functions/DGC_A230_Motor_Functions.c **** 	if (CFG_parameter.Number_Of_Motors == 0x02)				// when using 2 Motors
 3298                             		.loc 1 1582 0
 3299 005f 8F 00 00                		mov	a, !_CFG_parameter+1
 3300 0062 9D F0                   		mov	r8, a
 3301 0064 4A F0 02                		cmp	r8, #2
 3302 0067 61 E8                   		 skz
 3303 0069 EC 86 00 00             		 br	!!.L164
1583:../DGC_A230_Functions/DGC_A230_Motor_Functions.c **** 	{
1584:../DGC_A230_Functions/DGC_A230_Motor_Functions.c **** 		while (Tick_Count < CFG_parameter.Motor_No2_Open_Delay_Time);
 3304                             		.loc 1 1584 0
 3305 006d 00                      		nop
 3306                             	.L165:
 3307                             		.loc 1 1584 0 is_stmt 0 discriminator 1
 3308 006e AF 00 00                		movw	ax, !_CFG_parameter+40
 3309 0071 BD F2                   		movw	r10, ax
 3310 0073 AF 00 00                		movw	ax, !_Tick_Count
 3311 0076 BD F0                   		movw	r8, ax
 3312 0078 AD F2                   		movw	ax, r10
 3313 007a 46 F0                   		cmpw	ax, r8
 3314 007c 61 F3                   		 sknh
 3315 007e EC 6E 00 00             		 br	!!.L165
1585:../DGC_A230_Functions/DGC_A230_Motor_Functions.c **** 		Manual_Start_Recovery_Motor_2();
 3316                             		.loc 1 1585 0 is_stmt 1
 3317 0082 FC 00 00 00             		call	!!%code(_Manual_Start_Recovery_Motor_2)
 3318                             	.L164:
1586:../DGC_A230_Functions/DGC_A230_Motor_Functions.c **** 	}
1587:../DGC_A230_Functions/DGC_A230_Motor_Functions.c **** 	while (Recovery_Done == 0)				// Start Opening
 3319                             		.loc 1 1587 0
 3320 0086 EC D4 00 00             		br	!!.L166
 3321                             	.L169:
1588:../DGC_A230_Functions/DGC_A230_Motor_Functions.c **** 	{
1589:../DGC_A230_Functions/DGC_A230_Motor_Functions.c **** 		Manual_Wait_Recorery_Motor1();
 3322                             		.loc 1 1589 0
 3323 008a FC 00 00 00             		call	!!%code(_Manual_Wait_Recorery_Motor1)
1590:../DGC_A230_Functions/DGC_A230_Motor_Functions.c **** 		Manual_Wait_Recorery_Motor2();
 3324                             		.loc 1 1590 0
 3325 008e FC 00 00 00             		call	!!%code(_Manual_Wait_Recorery_Motor2)
1591:../DGC_A230_Functions/DGC_A230_Motor_Functions.c **** 		if (CFG_parameter.Number_Of_Motors == 0x02)				// when using 2 Motors
 3326                             		.loc 1 1591 0
 3327 0092 8F 00 00                		mov	a, !_CFG_parameter+1
 3328 0095 9D F0                   		mov	r8, a
 3329 0097 4A F0 02                		cmp	r8, #2
 3330 009a 61 E8                   		 skz
 3331 009c EC C3 00 00             		 br	!!.L167
1592:../DGC_A230_Functions/DGC_A230_Motor_Functions.c **** 		{
1593:../DGC_A230_Functions/DGC_A230_Motor_Functions.c **** 			if ((Leaf_No1_State == GATE_STATE_OPENED) && (Leaf_No2_State == GATE_STATE_OPENED))
 3332                             		.loc 1 1593 0
 3333 00a0 8F 00 00                		mov	a, !_Leaf_No1_State
 3334 00a3 9D F0                   		mov	r8, a
 3335 00a5 4A F0 03                		cmp	r8, #3
 3336 00a8 61 E8                   		 skz
 3337 00aa EC D4 00 00             		 br	!!.L166
 3338                             		.loc 1 1593 0 is_stmt 0 discriminator 1
 3339 00ae 8F 00 00                		mov	a, !_Leaf_No2_State
 3340 00b1 9D F0                   		mov	r8, a
 3341 00b3 4A F0 03                		cmp	r8, #3
 3342 00b6 61 E8                   		 skz
 3343 00b8 EC D4 00 00             		 br	!!.L166
1594:../DGC_A230_Functions/DGC_A230_Motor_Functions.c **** 			{
1595:../DGC_A230_Functions/DGC_A230_Motor_Functions.c **** 				Recovery_Done = 1;
 3344                             		.loc 1 1595 0 is_stmt 1
 3345 00bc E1                      		oneb	a
 3346 00bd 98 07                   		mov	[sp+7], a
 3347 00bf EC D4 00 00             		br	!!.L166
 3348                             	.L167:
1596:../DGC_A230_Functions/DGC_A230_Motor_Functions.c **** 			}
1597:../DGC_A230_Functions/DGC_A230_Motor_Functions.c **** 		}
1598:../DGC_A230_Functions/DGC_A230_Motor_Functions.c **** 		else
1599:../DGC_A230_Functions/DGC_A230_Motor_Functions.c **** 		{
1600:../DGC_A230_Functions/DGC_A230_Motor_Functions.c **** 			if (Leaf_No1_State == GATE_STATE_OPENED)
 3349                             		.loc 1 1600 0
 3350 00c3 8F 00 00                		mov	a, !_Leaf_No1_State
 3351 00c6 9D F0                   		mov	r8, a
 3352 00c8 4A F0 03                		cmp	r8, #3
 3353 00cb 61 E8                   		 skz
 3354 00cd EC D4 00 00             		 br	!!.L166
1601:../DGC_A230_Functions/DGC_A230_Motor_Functions.c **** 			{
1602:../DGC_A230_Functions/DGC_A230_Motor_Functions.c **** 				Recovery_Done = 1;
 3355                             		.loc 1 1602 0
 3356 00d1 E1                      		oneb	a
 3357 00d2 98 07                   		mov	[sp+7], a
 3358                             	.L166:
1587:../DGC_A230_Functions/DGC_A230_Motor_Functions.c **** 	{
 3359                             		.loc 1 1587 0
 3360 00d4 88 07                   		mov	a, [sp+7]
 3361 00d6 D1                      		cmp0	a
 3362 00d7 61 F8                   		 sknz
 3363 00d9 EC 8A 00 00             		 br	!!.L169
1603:../DGC_A230_Functions/DGC_A230_Motor_Functions.c **** 			}
1604:../DGC_A230_Functions/DGC_A230_Motor_Functions.c **** 		}
1605:../DGC_A230_Functions/DGC_A230_Motor_Functions.c **** 	}
1606:../DGC_A230_Functions/DGC_A230_Motor_Functions.c **** 
1607:../DGC_A230_Functions/DGC_A230_Motor_Functions.c **** 	Tick_Count = 0;													// Reset Tick count
 3364                             		.loc 1 1607 0
 3365 00dd F6                      		clrw	ax
 3366 00de BF 00 00                		movw	!_Tick_Count, ax
1608:../DGC_A230_Functions/DGC_A230_Motor_Functions.c **** 	while (Tick_Count < 100);										// wait for 1 second
 3367                             		.loc 1 1608 0
 3368 00e1 00                      		nop
 3369                             	.L170:
 3370                             		.loc 1 1608 0 is_stmt 0 discriminator 1
 3371 00e2 AF 00 00                		movw	ax, !_Tick_Count
 3372 00e5 BD F0                   		movw	r8, ax
 3373 00e7 44 63 00                		cmpw	ax, #99
 3374 00ea 61 E3                   		 skh
 3375 00ec EC E2 00 00             		 br	!!.L170
1609:../DGC_A230_Functions/DGC_A230_Motor_Functions.c **** 	R_TAU0_Channel1_Stop();											// Stop Timer channel 1
 3376                             		.loc 1 1609 0 is_stmt 1
 3377 00f0 FC 00 00 00             		call	!!%code(_R_TAU0_Channel1_Stop)
1610:../DGC_A230_Functions/DGC_A230_Motor_Functions.c **** 
1611:../DGC_A230_Functions/DGC_A230_Motor_Functions.c **** 	R_INTC0_Stop();													// Disable Sync to control
 3378                             		.loc 1 1611 0
 3379 00f4 FC 00 00 00             		call	!!%code(_R_INTC0_Stop)
1612:../DGC_A230_Functions/DGC_A230_Motor_Functions.c **** 	TRIG_EN = 0;			// Enable Pulse out to control Motor
 3380                             		.loc 1 1612 0
 3381 00f8 C9 F0 03 FF             		movw	r8, #-253
 3382 00fc AD F0                   		movw	ax, r8
 3383 00fe BD F4                   		movw	r12, ax
 3384 0100 FA F4                   		movw	hl, r12
 3385 0102 8B                      		mov	a, [hl]
 3386 0103 9D F2                   		mov	r10, a
 3387 0105 5A F2 FE                		and	r10, #-2
 3388 0108 AD F0                   		movw	ax, r8
 3389 010a EA F4                   		movw	de, r12
 3390 010c 8D F2                   		mov	a, r10
 3391 010e 99                      		mov	[de], a
1613:../DGC_A230_Functions/DGC_A230_Motor_Functions.c **** 	M1_PWM = 1;					// Clear Trigger Pulse Output
 3392                             		.loc 1 1613 0
 3393 010f C9 F0 00 FF             		movw	r8, #-256
 3394 0113 AD F0                   		movw	ax, r8
 3395 0115 BD F4                   		movw	r12, ax
 3396 0117 FA F4                   		movw	hl, r12
 3397 0119 8B                      		mov	a, [hl]
 3398 011a 9D F2                   		mov	r10, a
 3399 011c 6A F2 40                		or	r10, #64
 3400 011f AD F0                   		movw	ax, r8
 3401 0121 EA F4                   		movw	de, r12
 3402 0123 8D F2                   		mov	a, r10
 3403 0125 99                      		mov	[de], a
1614:../DGC_A230_Functions/DGC_A230_Motor_Functions.c **** 	M2_PWM = 1;					// Clear M2 PWM Pulse Output
 3404                             		.loc 1 1614 0
 3405 0126 C9 F0 00 FF             		movw	r8, #-256
 3406 012a AD F0                   		movw	ax, r8
 3407 012c BD F4                   		movw	r12, ax
 3408 012e FA F4                   		movw	hl, r12
 3409 0130 8B                      		mov	a, [hl]
 3410 0131 9D F2                   		mov	r10, a
 3411 0133 6A F2 20                		or	r10, #32
 3412 0136 AD F0                   		movw	ax, r8
 3413 0138 EA F4                   		movw	de, r12
 3414 013a 8D F2                   		mov	a, r10
 3415 013c 99                      		mov	[de], a
1615:../DGC_A230_Functions/DGC_A230_Motor_Functions.c **** 
1616:../DGC_A230_Functions/DGC_A230_Motor_Functions.c **** 	M1_Time_Position = CFG_parameter.M1_Total_Space;
 3416                             		.loc 1 1616 0
 3417 013d AF 00 00                		movw	ax, !_CFG_parameter+24
 3418 0140 BD F0                   		movw	r8, ax
 3419 0142 BF 00 00                		movw	!_M1_Time_Position, ax
1617:../DGC_A230_Functions/DGC_A230_Motor_Functions.c **** 	M1_Last_Time_Position = M1_Time_Position;
 3420                             		.loc 1 1617 0
 3421 0145 BD F0                   		movw	r8, ax
 3422 0147 BF 00 00                		movw	!_M1_Last_Time_Position, ax
1618:../DGC_A230_Functions/DGC_A230_Motor_Functions.c **** 	M2_Time_Position = CFG_parameter.M1_Total_Space;
 3423                             		.loc 1 1618 0
 3424 014a AF 00 00                		movw	ax, !_CFG_parameter+24
 3425 014d BD F0                   		movw	r8, ax
 3426 014f BF 00 00                		movw	!_M2_Time_Position, ax
1619:../DGC_A230_Functions/DGC_A230_Motor_Functions.c **** 	M2_Last_Time_Position = M2_Time_Position;
 3427                             		.loc 1 1619 0
 3428 0152 BD F0                   		movw	r8, ax
 3429 0154 BF 00 00                		movw	!_M2_Last_Time_Position, ax
1620:../DGC_A230_Functions/DGC_A230_Motor_Functions.c **** 
1621:../DGC_A230_Functions/DGC_A230_Motor_Functions.c **** 	Power_failure = POWER_GOOD_STATE;
 3430                             		.loc 1 1621 0
 3431 0157 F5 00 00                		clrb	!_Power_failure
1622:../DGC_A230_Functions/DGC_A230_Motor_Functions.c **** 
1623:../DGC_A230_Functions/DGC_A230_Motor_Functions.c **** 
1624:../DGC_A230_Functions/DGC_A230_Motor_Functions.c **** 	Flash_Enable = 0;
 3432                             		.loc 1 1624 0
 3433 015a F5 00 00                		clrb	!_Flash_Enable
1625:../DGC_A230_Functions/DGC_A230_Motor_Functions.c **** 	FLASH = 0;
 3434                             		.loc 1 1625 0
 3435 015d C9 F0 02 FF             		movw	r8, #-254
 3436 0161 AD F0                   		movw	ax, r8
 3437 0163 BD F4                   		movw	r12, ax
 3438 0165 FA F4                   		movw	hl, r12
 3439 0167 8B                      		mov	a, [hl]
 3440 0168 9D F2                   		mov	r10, a
 3441 016a 5A F2 FD                		and	r10, #-3
 3442 016d AD F0                   		movw	ax, r8
 3443 016f EA F4                   		movw	de, r12
 3444 0171 8D F2                   		mov	a, r10
 3445 0173 99                      		mov	[de], a
1626:../DGC_A230_Functions/DGC_A230_Motor_Functions.c **** 
1627:../DGC_A230_Functions/DGC_A230_Motor_Functions.c **** 	HMI_Flash_Enable = 0;
 3446                             		.loc 1 1627 0
 3447 0174 F5 00 00                		clrb	!_HMI_Flash_Enable
1628:../DGC_A230_Functions/DGC_A230_Motor_Functions.c **** 	Mask = 0xff;
 3448                             		.loc 1 1628 0
 3449 0177 51 FF                   		mov	a, #-1
 3450 0179 9F 00 00                		mov	!_Mask, a
1629:../DGC_A230_Functions/DGC_A230_Motor_Functions.c **** 
1630:../DGC_A230_Functions/DGC_A230_Motor_Functions.c **** 	Display_Mode = NORMAL_MODE;
 3451                             		.loc 1 1630 0
 3452 017c F5 00 00                		clrb	!_Display_Mode
1631:../DGC_A230_Functions/DGC_A230_Motor_Functions.c **** }
 3453                             		.loc 1 1631 0
 3454 017f 10 08                   		addw	sp, #8
 3455 0181 D7                      		ret
 3456                             	.LFE27:
 3458                             		.section	.text.Start_auto_recovery,"ax",@progbits
 3459                             		.global	_Start_auto_recovery
 3461                             	_Start_auto_recovery:
 3462                             	.LFB28:
1632:../DGC_A230_Functions/DGC_A230_Motor_Functions.c **** 
1633:../DGC_A230_Functions/DGC_A230_Motor_Functions.c **** void Start_auto_recovery()
1634:../DGC_A230_Functions/DGC_A230_Motor_Functions.c **** {
 3463                             		.loc 1 1634 0
 3464                             		; start of function
 3465                             		; outgoing: 6 bytes
 3466                             		; uses ES register
 3467 0000 20 06                   		subw	sp, #6
 3468                             	.LCFI9:
1635:../DGC_A230_Functions/DGC_A230_Motor_Functions.c **** 	//display
1636:../DGC_A230_Functions/DGC_A230_Motor_Functions.c ****     memcpy(&Parameter_Name[0], "rE", sizeof("--"));
 3469                             		.loc 1 1636 0
 3470 0002 30 00 00                		movw	ax, #_Parameter_Name
 3471 0005 B8 00                   		movw	[sp], ax
 3472 0007 30 00 00                		movw	ax, #.LC0
 3473 000a B8 02                   		movw	[sp+2], ax
 3474 000c 30 03 00                		movw	ax, #3
 3475 000f B8 04                   		movw	[sp+4], ax
 3476 0011 FC 00 00 00             		call	!!%code(_memcpy)
1637:../DGC_A230_Functions/DGC_A230_Motor_Functions.c **** 	memcpy(&Parameter_Value[0], "Co", sizeof("--"));
 3477                             		.loc 1 1637 0
 3478 0015 30 00 00                		movw	ax, #_Parameter_Value
 3479 0018 B8 00                   		movw	[sp], ax
 3480 001a 30 03 00                		movw	ax, #.LC1
 3481 001d B8 02                   		movw	[sp+2], ax
 3482 001f 30 03 00                		movw	ax, #3
 3483 0022 B8 04                   		movw	[sp+4], ax
 3484 0024 FC 00 00 00             		call	!!%code(_memcpy)
1638:../DGC_A230_Functions/DGC_A230_Motor_Functions.c **** 
1639:../DGC_A230_Functions/DGC_A230_Motor_Functions.c **** 	Display_Mode = PARA_MODE;
 3485                             		.loc 1 1639 0
 3486 0028 51 03                   		mov	a, #3
 3487 002a 9F 00 00                		mov	!_Display_Mode, a
1640:../DGC_A230_Functions/DGC_A230_Motor_Functions.c **** 
1641:../DGC_A230_Functions/DGC_A230_Motor_Functions.c **** 	HMI_Flash_Count = 0;
 3488                             		.loc 1 1641 0
 3489 002d F5 00 00                		clrb	!_HMI_Flash_Count
1642:../DGC_A230_Functions/DGC_A230_Motor_Functions.c **** 	HMI_Flash_Enable = 1;
 3490                             		.loc 1 1642 0
 3491 0030 E5 00 00                		oneb	!_HMI_Flash_Enable
1643:../DGC_A230_Functions/DGC_A230_Motor_Functions.c **** 
1644:../DGC_A230_Functions/DGC_A230_Motor_Functions.c **** 	Flash_Enable = 1;
 3492                             		.loc 1 1644 0
 3493 0033 E5 00 00                		oneb	!_Flash_Enable
1645:../DGC_A230_Functions/DGC_A230_Motor_Functions.c **** 	FLASH = 1;
 3494                             		.loc 1 1645 0
 3495 0036 C9 F0 02 FF             		movw	r8, #-254
 3496 003a AD F0                   		movw	ax, r8
 3497 003c BD F4                   		movw	r12, ax
 3498 003e FA F4                   		movw	hl, r12
 3499 0040 8B                      		mov	a, [hl]
 3500 0041 9D F2                   		mov	r10, a
 3501 0043 6A F2 02                		or	r10, #2
 3502 0046 AD F0                   		movw	ax, r8
 3503 0048 EA F4                   		movw	de, r12
 3504 004a 8D F2                   		mov	a, r10
 3505 004c 99                      		mov	[de], a
1646:../DGC_A230_Functions/DGC_A230_Motor_Functions.c **** 	//end display
1647:../DGC_A230_Functions/DGC_A230_Motor_Functions.c **** 
1648:../DGC_A230_Functions/DGC_A230_Motor_Functions.c **** 	Pre_Flash_Type = FLASH_ENABLE_TIMER;
 3506                             		.loc 1 1648 0
 3507 004d E5 00 00                		oneb	!_Pre_Flash_Type
1649:../DGC_A230_Functions/DGC_A230_Motor_Functions.c **** 	Flash_Timer_Counter = 0;
 3508                             		.loc 1 1649 0
 3509 0050 F5 00 00                		clrb	!_Flash_Timer_Counter
1650:../DGC_A230_Functions/DGC_A230_Motor_Functions.c **** 	Flash_Frequency_Config = FLASH_LIGHT_FREQUENCY_RECOVERY;
 3510                             		.loc 1 1650 0
 3511 0053 51 03                   		mov	a, #3
 3512 0055 9F 00 00                		mov	!_Flash_Frequency_Config, a
1651:../DGC_A230_Functions/DGC_A230_Motor_Functions.c **** 	Flash_Frequency_Count = 0;
 3513                             		.loc 1 1651 0
 3514 0058 F5 00 00                		clrb	!_Flash_Frequency_Count
1652:../DGC_A230_Functions/DGC_A230_Motor_Functions.c **** 	while (Flash_Timer_Counter < 10);									// Flashing warning signal 5 second prior to recovery
 3515                             		.loc 1 1652 0
 3516 005b 00                      		nop
 3517                             	.L172:
 3518                             		.loc 1 1652 0 is_stmt 0 discriminator 1
 3519 005c 8F 00 00                		mov	a, !_Flash_Timer_Counter
 3520 005f 9D F0                   		mov	r8, a
 3521 0061 4A F0 09                		cmp	r8, #9
 3522 0064 61 E3                   		 skh
 3523 0066 EC 5C 00 00             		 br	!!.L172
1653:../DGC_A230_Functions/DGC_A230_Motor_Functions.c **** 	Pre_Flash_Type = FLASH_DISABLE_TIMER;
 3524                             		.loc 1 1653 0 is_stmt 1
 3525 006a F5 00 00                		clrb	!_Pre_Flash_Type
1654:../DGC_A230_Functions/DGC_A230_Motor_Functions.c **** 
1655:../DGC_A230_Functions/DGC_A230_Motor_Functions.c **** 	FLASH = 1;
 3526                             		.loc 1 1655 0
 3527 006d C9 F0 02 FF             		movw	r8, #-254
 3528 0071 AD F0                   		movw	ax, r8
 3529 0073 BD F4                   		movw	r12, ax
 3530 0075 FA F4                   		movw	hl, r12
 3531 0077 8B                      		mov	a, [hl]
 3532 0078 9D F2                   		mov	r10, a
 3533 007a 6A F2 02                		or	r10, #2
 3534 007d AD F0                   		movw	ax, r8
 3535 007f EA F4                   		movw	de, r12
 3536 0081 8D F2                   		mov	a, r10
 3537 0083 99                      		mov	[de], a
1656:../DGC_A230_Functions/DGC_A230_Motor_Functions.c **** 
1657:../DGC_A230_Functions/DGC_A230_Motor_Functions.c **** //    Power_failure_gate_1 = POWER_FAILURE_STATE;
1658:../DGC_A230_Functions/DGC_A230_Motor_Functions.c **** //	Power_failure_gate_2 = POWER_FAILURE_STATE;
1659:../DGC_A230_Functions/DGC_A230_Motor_Functions.c **** 	Tick_Count = 0;													// Reset Tick count
 3538                             		.loc 1 1659 0
 3539 0084 F6                      		clrw	ax
 3540 0085 BF 00 00                		movw	!_Tick_Count, ax
1660:../DGC_A230_Functions/DGC_A230_Motor_Functions.c **** 	R_TAU0_Channel1_Start();
 3541                             		.loc 1 1660 0
 3542 0088 FC 00 00 00             		call	!!%code(_R_TAU0_Channel1_Start)
1661:../DGC_A230_Functions/DGC_A230_Motor_Functions.c **** 	R_INTC0_Start();
 3543                             		.loc 1 1661 0
 3544 008c FC 00 00 00             		call	!!%code(_R_INTC0_Start)
1662:../DGC_A230_Functions/DGC_A230_Motor_Functions.c **** 	TRIG_EN = 1;
 3545                             		.loc 1 1662 0
 3546 0090 C9 F0 03 FF             		movw	r8, #-253
 3547 0094 AD F0                   		movw	ax, r8
 3548 0096 BD F4                   		movw	r12, ax
 3549 0098 FA F4                   		movw	hl, r12
 3550 009a 8B                      		mov	a, [hl]
 3551 009b 9D F2                   		mov	r10, a
 3552 009d 6A F2 01                		or	r10, #1
 3553 00a0 AD F0                   		movw	ax, r8
 3554 00a2 EA F4                   		movw	de, r12
 3555 00a4 8D F2                   		mov	a, r10
 3556 00a6 99                      		mov	[de], a
1663:../DGC_A230_Functions/DGC_A230_Motor_Functions.c **** //	R_TAU0_Channel1_Stop();											// Stop Timer channel 1
1664:../DGC_A230_Functions/DGC_A230_Motor_Functions.c **** //	R_INTC0_Stop();													// Disable Sync to control
1665:../DGC_A230_Functions/DGC_A230_Motor_Functions.c **** //	TRIG_EN = 0;			// Enable Pulse out to control Motor
1666:../DGC_A230_Functions/DGC_A230_Motor_Functions.c **** 	M1_PWM = 1;					// Clear Trigger Pulse Output
 3557                             		.loc 1 1666 0
 3558 00a7 C9 F0 00 FF             		movw	r8, #-256
 3559 00ab AD F0                   		movw	ax, r8
 3560 00ad BD F4                   		movw	r12, ax
 3561 00af FA F4                   		movw	hl, r12
 3562 00b1 8B                      		mov	a, [hl]
 3563 00b2 9D F2                   		mov	r10, a
 3564 00b4 6A F2 40                		or	r10, #64
 3565 00b7 AD F0                   		movw	ax, r8
 3566 00b9 EA F4                   		movw	de, r12
 3567 00bb 8D F2                   		mov	a, r10
 3568 00bd 99                      		mov	[de], a
1667:../DGC_A230_Functions/DGC_A230_Motor_Functions.c **** 	M2_PWM = 1;					// Clear M2 PWM Pulse Output
 3569                             		.loc 1 1667 0
 3570 00be C9 F0 00 FF             		movw	r8, #-256
 3571 00c2 AD F0                   		movw	ax, r8
 3572 00c4 BD F4                   		movw	r12, ax
 3573 00c6 FA F4                   		movw	hl, r12
 3574 00c8 8B                      		mov	a, [hl]
 3575 00c9 9D F2                   		mov	r10, a
 3576 00cb 6A F2 20                		or	r10, #32
 3577 00ce AD F0                   		movw	ax, r8
 3578 00d0 EA F4                   		movw	de, r12
 3579 00d2 8D F2                   		mov	a, r10
 3580 00d4 99                      		mov	[de], a
1668:../DGC_A230_Functions/DGC_A230_Motor_Functions.c **** 
1669:../DGC_A230_Functions/DGC_A230_Motor_Functions.c **** 	M1_Time_Position = CFG_parameter.M1_Total_Space;
 3581                             		.loc 1 1669 0
 3582 00d5 AF 00 00                		movw	ax, !_CFG_parameter+24
 3583 00d8 BD F0                   		movw	r8, ax
 3584 00da BF 00 00                		movw	!_M1_Time_Position, ax
1670:../DGC_A230_Functions/DGC_A230_Motor_Functions.c **** 	M1_Last_Time_Position = M1_Time_Position;
 3585                             		.loc 1 1670 0
 3586 00dd BD F0                   		movw	r8, ax
 3587 00df BF 00 00                		movw	!_M1_Last_Time_Position, ax
1671:../DGC_A230_Functions/DGC_A230_Motor_Functions.c **** 	M2_Time_Position = CFG_parameter.M1_Total_Space;
 3588                             		.loc 1 1671 0
 3589 00e2 AF 00 00                		movw	ax, !_CFG_parameter+24
 3590 00e5 BD F0                   		movw	r8, ax
 3591 00e7 BF 00 00                		movw	!_M2_Time_Position, ax
1672:../DGC_A230_Functions/DGC_A230_Motor_Functions.c **** 	M2_Last_Time_Position = M2_Time_Position;
 3592                             		.loc 1 1672 0
 3593 00ea BD F0                   		movw	r8, ax
 3594 00ec BF 00 00                		movw	!_M2_Last_Time_Position, ax
1673:../DGC_A230_Functions/DGC_A230_Motor_Functions.c **** 
1674:../DGC_A230_Functions/DGC_A230_Motor_Functions.c **** 	Power_failure = POWER_GOOD_STATE;
 3595                             		.loc 1 1674 0
 3596 00ef F5 00 00                		clrb	!_Power_failure
1675:../DGC_A230_Functions/DGC_A230_Motor_Functions.c **** 
1676:../DGC_A230_Functions/DGC_A230_Motor_Functions.c **** 
1677:../DGC_A230_Functions/DGC_A230_Motor_Functions.c **** //	Flash_Enable = 0;
1678:../DGC_A230_Functions/DGC_A230_Motor_Functions.c **** //	FLASH = 0;
1679:../DGC_A230_Functions/DGC_A230_Motor_Functions.c **** //
1680:../DGC_A230_Functions/DGC_A230_Motor_Functions.c **** //	HMI_Flash_Enable = 0;
1681:../DGC_A230_Functions/DGC_A230_Motor_Functions.c **** //	Mask = 0xff;
1682:../DGC_A230_Functions/DGC_A230_Motor_Functions.c **** 
1683:../DGC_A230_Functions/DGC_A230_Motor_Functions.c **** }
 3597                             		.loc 1 1683 0
 3598 00f2 10 06                   		addw	sp, #6
 3599 00f4 D7                      		ret
 3600                             	.LFE28:
 3602                             		.section	.text.End_auto_recovery,"ax",@progbits
 3603                             		.global	_End_auto_recovery
 3605                             	_End_auto_recovery:
 3606                             	.LFB29:
1684:../DGC_A230_Functions/DGC_A230_Motor_Functions.c **** void End_auto_recovery()
1685:../DGC_A230_Functions/DGC_A230_Motor_Functions.c **** {
 3607                             		.loc 1 1685 0
1686:../DGC_A230_Functions/DGC_A230_Motor_Functions.c **** 
1687:../DGC_A230_Functions/DGC_A230_Motor_Functions.c **** 	Flash_Enable = 0;
 3608                             		.loc 1 1687 0
 3609 0000 F5 00 00                		clrb	!_Flash_Enable
1688:../DGC_A230_Functions/DGC_A230_Motor_Functions.c **** 	FLASH = 0;
 3610                             		.loc 1 1688 0
 3611 0003 C9 F0 02 FF             		movw	r8, #-254
 3612 0007 AD F0                   		movw	ax, r8
 3613 0009 BD F4                   		movw	r12, ax
 3614 000b FA F4                   		movw	hl, r12
 3615 000d 8B                      		mov	a, [hl]
 3616 000e 9D F2                   		mov	r10, a
 3617 0010 5A F2 FD                		and	r10, #-3
 3618 0013 AD F0                   		movw	ax, r8
 3619 0015 EA F4                   		movw	de, r12
 3620 0017 8D F2                   		mov	a, r10
 3621 0019 99                      		mov	[de], a
1689:../DGC_A230_Functions/DGC_A230_Motor_Functions.c **** 
1690:../DGC_A230_Functions/DGC_A230_Motor_Functions.c **** 	HMI_Flash_Enable = 0;
 3622                             		.loc 1 1690 0
 3623 001a F5 00 00                		clrb	!_HMI_Flash_Enable
1691:../DGC_A230_Functions/DGC_A230_Motor_Functions.c **** 	Mask = 0xff;
 3624                             		.loc 1 1691 0
 3625 001d 51 FF                   		mov	a, #-1
 3626 001f 9F 00 00                		mov	!_Mask, a
1692:../DGC_A230_Functions/DGC_A230_Motor_Functions.c **** 
1693:../DGC_A230_Functions/DGC_A230_Motor_Functions.c **** 	Display_Mode = NORMAL_MODE;
 3627                             		.loc 1 1693 0
 3628 0022 F5 00 00                		clrb	!_Display_Mode
1694:../DGC_A230_Functions/DGC_A230_Motor_Functions.c **** 
1695:../DGC_A230_Functions/DGC_A230_Motor_Functions.c **** }
 3629                             		.loc 1 1695 0
 3630 0025 D7                      		ret
 3631                             	.LFE29:
 3633                             		.section	.text.Start_manual_recovery,"ax",@progbits
 3634                             		.global	_Start_manual_recovery
 3636                             	_Start_manual_recovery:
 3637                             	.LFB30:
1696:../DGC_A230_Functions/DGC_A230_Motor_Functions.c **** 
1697:../DGC_A230_Functions/DGC_A230_Motor_Functions.c **** void Start_manual_recovery()
1698:../DGC_A230_Functions/DGC_A230_Motor_Functions.c **** {
 3638                             		.loc 1 1698 0
 3639                             		; start of function
 3640                             		; outgoing: 6 bytes
 3641                             		; uses ES register
 3642 0000 20 06                   		subw	sp, #6
 3643                             	.LCFI10:
1699:../DGC_A230_Functions/DGC_A230_Motor_Functions.c **** 	//display
1700:../DGC_A230_Functions/DGC_A230_Motor_Functions.c **** 
1701:../DGC_A230_Functions/DGC_A230_Motor_Functions.c ****     memcpy(&Parameter_Name[0], "rE", sizeof("--"));
 3644                             		.loc 1 1701 0
 3645 0002 30 00 00                		movw	ax, #_Parameter_Name
 3646 0005 B8 00                   		movw	[sp], ax
 3647 0007 30 00 00                		movw	ax, #.LC0
 3648 000a B8 02                   		movw	[sp+2], ax
 3649 000c 30 03 00                		movw	ax, #3
 3650 000f B8 04                   		movw	[sp+4], ax
 3651 0011 FC 00 00 00             		call	!!%code(_memcpy)
1702:../DGC_A230_Functions/DGC_A230_Motor_Functions.c **** 	memcpy(&Parameter_Value[0], "Co", sizeof("--"));
 3652                             		.loc 1 1702 0
 3653 0015 30 00 00                		movw	ax, #_Parameter_Value
 3654 0018 B8 00                   		movw	[sp], ax
 3655 001a 30 03 00                		movw	ax, #.LC1
 3656 001d B8 02                   		movw	[sp+2], ax
 3657 001f 30 03 00                		movw	ax, #3
 3658 0022 B8 04                   		movw	[sp+4], ax
 3659 0024 FC 00 00 00             		call	!!%code(_memcpy)
1703:../DGC_A230_Functions/DGC_A230_Motor_Functions.c **** 
1704:../DGC_A230_Functions/DGC_A230_Motor_Functions.c **** 	Display_Mode = PARA_MODE;
 3660                             		.loc 1 1704 0
 3661 0028 51 03                   		mov	a, #3
 3662 002a 9F 00 00                		mov	!_Display_Mode, a
1705:../DGC_A230_Functions/DGC_A230_Motor_Functions.c **** 
1706:../DGC_A230_Functions/DGC_A230_Motor_Functions.c **** 	HMI_Flash_Count = 0;
 3663                             		.loc 1 1706 0
 3664 002d F5 00 00                		clrb	!_HMI_Flash_Count
1707:../DGC_A230_Functions/DGC_A230_Motor_Functions.c **** 	HMI_Flash_Enable = 1;
 3665                             		.loc 1 1707 0
 3666 0030 E5 00 00                		oneb	!_HMI_Flash_Enable
1708:../DGC_A230_Functions/DGC_A230_Motor_Functions.c **** 
1709:../DGC_A230_Functions/DGC_A230_Motor_Functions.c **** 	FLASH = 1;
 3667                             		.loc 1 1709 0
 3668 0033 C9 F0 02 FF             		movw	r8, #-254
 3669 0037 AD F0                   		movw	ax, r8
 3670 0039 BD F4                   		movw	r12, ax
 3671 003b FA F4                   		movw	hl, r12
 3672 003d 8B                      		mov	a, [hl]
 3673 003e 9D F2                   		mov	r10, a
 3674 0040 6A F2 02                		or	r10, #2
 3675 0043 AD F0                   		movw	ax, r8
 3676 0045 EA F4                   		movw	de, r12
 3677 0047 8D F2                   		mov	a, r10
 3678 0049 99                      		mov	[de], a
1710:../DGC_A230_Functions/DGC_A230_Motor_Functions.c **** 	Flash_Enable = 1;
 3679                             		.loc 1 1710 0
 3680 004a E5 00 00                		oneb	!_Flash_Enable
1711:../DGC_A230_Functions/DGC_A230_Motor_Functions.c **** 
1712:../DGC_A230_Functions/DGC_A230_Motor_Functions.c **** 	Flash_Frequency_Config = FLASH_LIGHT_FREQUENCY_RECOVERY;
 3681                             		.loc 1 1712 0
 3682 004d 51 03                   		mov	a, #3
 3683 004f 9F 00 00                		mov	!_Flash_Frequency_Config, a
1713:../DGC_A230_Functions/DGC_A230_Motor_Functions.c **** 	Flash_Frequency_Count = 0;
 3684                             		.loc 1 1713 0
 3685 0052 F5 00 00                		clrb	!_Flash_Frequency_Count
1714:../DGC_A230_Functions/DGC_A230_Motor_Functions.c **** 	//end display
1715:../DGC_A230_Functions/DGC_A230_Motor_Functions.c **** 
1716:../DGC_A230_Functions/DGC_A230_Motor_Functions.c **** 
1717:../DGC_A230_Functions/DGC_A230_Motor_Functions.c **** 
1718:../DGC_A230_Functions/DGC_A230_Motor_Functions.c **** 	M1_Torque_Setting = CFG_parameter.Motor_Torque_Maneuver;
 3686                             		.loc 1 1718 0
 3687 0055 AF 00 00                		movw	ax, !_CFG_parameter+72
 3688 0058 BD F0                   		movw	r8, ax
 3689 005a BF 00 00                		movw	!_M1_Torque_Setting, ax
1719:../DGC_A230_Functions/DGC_A230_Motor_Functions.c **** 	M2_Torque_Setting = CFG_parameter.Motor_Torque_Maneuver;
 3690                             		.loc 1 1719 0
 3691 005d AF 00 00                		movw	ax, !_CFG_parameter+72
 3692 0060 BD F0                   		movw	r8, ax
 3693 0062 BF 00 00                		movw	!_M2_Torque_Setting, ax
1720:../DGC_A230_Functions/DGC_A230_Motor_Functions.c **** 
1721:../DGC_A230_Functions/DGC_A230_Motor_Functions.c **** 	M1_Timestamp = UNDEFINE_TIMESTAMP;
 3694                             		.loc 1 1721 0
 3695 0065 F5 00 00                		clrb	!_M1_Timestamp
1722:../DGC_A230_Functions/DGC_A230_Motor_Functions.c **** 	M2_Timestamp = UNDEFINE_TIMESTAMP;
 3696                             		.loc 1 1722 0
 3697 0068 F5 00 00                		clrb	!_M2_Timestamp
1723:../DGC_A230_Functions/DGC_A230_Motor_Functions.c **** 
1724:../DGC_A230_Functions/DGC_A230_Motor_Functions.c **** 
1725:../DGC_A230_Functions/DGC_A230_Motor_Functions.c **** 	Tick_Count = 0;													// Reset Tick count
 3698                             		.loc 1 1725 0
 3699 006b F6                      		clrw	ax
 3700 006c BF 00 00                		movw	!_Tick_Count, ax
1726:../DGC_A230_Functions/DGC_A230_Motor_Functions.c **** 	R_TAU0_Channel1_Start();
 3701                             		.loc 1 1726 0
 3702 006f FC 00 00 00             		call	!!%code(_R_TAU0_Channel1_Start)
1727:../DGC_A230_Functions/DGC_A230_Motor_Functions.c **** 	R_INTC0_Start();
 3703                             		.loc 1 1727 0
 3704 0073 FC 00 00 00             		call	!!%code(_R_INTC0_Start)
1728:../DGC_A230_Functions/DGC_A230_Motor_Functions.c **** 	TRIG_EN = 1;
 3705                             		.loc 1 1728 0
 3706 0077 C9 F0 03 FF             		movw	r8, #-253
 3707 007b AD F0                   		movw	ax, r8
 3708 007d BD F4                   		movw	r12, ax
 3709 007f FA F4                   		movw	hl, r12
 3710 0081 8B                      		mov	a, [hl]
 3711 0082 9D F2                   		mov	r10, a
 3712 0084 6A F2 01                		or	r10, #1
 3713 0087 AD F0                   		movw	ax, r8
 3714 0089 EA F4                   		movw	de, r12
 3715 008b 8D F2                   		mov	a, r10
 3716 008d 99                      		mov	[de], a
1729:../DGC_A230_Functions/DGC_A230_Motor_Functions.c **** 
1730:../DGC_A230_Functions/DGC_A230_Motor_Functions.c **** 	M1_PWM = 1;					// Clear Trigger Pulse Output
 3717                             		.loc 1 1730 0
 3718 008e C9 F0 00 FF             		movw	r8, #-256
 3719 0092 AD F0                   		movw	ax, r8
 3720 0094 BD F4                   		movw	r12, ax
 3721 0096 FA F4                   		movw	hl, r12
 3722 0098 8B                      		mov	a, [hl]
 3723 0099 9D F2                   		mov	r10, a
 3724 009b 6A F2 40                		or	r10, #64
 3725 009e AD F0                   		movw	ax, r8
 3726 00a0 EA F4                   		movw	de, r12
 3727 00a2 8D F2                   		mov	a, r10
 3728 00a4 99                      		mov	[de], a
1731:../DGC_A230_Functions/DGC_A230_Motor_Functions.c **** 	M2_PWM = 1;					// Clear M2 PWM Pulse Output
 3729                             		.loc 1 1731 0
 3730 00a5 C9 F0 00 FF             		movw	r8, #-256
 3731 00a9 AD F0                   		movw	ax, r8
 3732 00ab BD F4                   		movw	r12, ax
 3733 00ad FA F4                   		movw	hl, r12
 3734 00af 8B                      		mov	a, [hl]
 3735 00b0 9D F2                   		mov	r10, a
 3736 00b2 6A F2 20                		or	r10, #32
 3737 00b5 AD F0                   		movw	ax, r8
 3738 00b7 EA F4                   		movw	de, r12
 3739 00b9 8D F2                   		mov	a, r10
 3740 00bb 99                      		mov	[de], a
1732:../DGC_A230_Functions/DGC_A230_Motor_Functions.c **** 
1733:../DGC_A230_Functions/DGC_A230_Motor_Functions.c **** 
1734:../DGC_A230_Functions/DGC_A230_Motor_Functions.c **** 	Tick_Count = 0;													// Reset Tick count
 3741                             		.loc 1 1734 0
 3742 00bc F6                      		clrw	ax
 3743 00bd BF 00 00                		movw	!_Tick_Count, ax
1735:../DGC_A230_Functions/DGC_A230_Motor_Functions.c **** 	M1_Tick_Count = 0;
 3744                             		.loc 1 1735 0
 3745 00c0 F6                      		clrw	ax
 3746 00c1 BF 00 00                		movw	!_M1_Tick_Count, ax
1736:../DGC_A230_Functions/DGC_A230_Motor_Functions.c **** 	M2_Tick_Count = 0;												// Start counter to M2
 3747                             		.loc 1 1736 0
 3748 00c4 F6                      		clrw	ax
 3749 00c5 BF 00 00                		movw	!_M2_Tick_Count, ax
1737:../DGC_A230_Functions/DGC_A230_Motor_Functions.c **** 	Leaf_No1_State = GATE_STATE_CLOSED;
 3750                             		.loc 1 1737 0
 3751 00c8 E5 00 00                		oneb	!_Leaf_No1_State
1738:../DGC_A230_Functions/DGC_A230_Motor_Functions.c **** 	Leaf_No2_State = GATE_STATE_CLOSED;
 3752                             		.loc 1 1738 0
 3753 00cb E5 00 00                		oneb	!_Leaf_No2_State
1739:../DGC_A230_Functions/DGC_A230_Motor_Functions.c **** 	Power_failure = POWER_GOOD_STATE;
 3754                             		.loc 1 1739 0
 3755 00ce F5 00 00                		clrb	!_Power_failure
1740:../DGC_A230_Functions/DGC_A230_Motor_Functions.c **** 
1741:../DGC_A230_Functions/DGC_A230_Motor_Functions.c **** 
1742:../DGC_A230_Functions/DGC_A230_Motor_Functions.c **** //	Flash_Enable = 0;
1743:../DGC_A230_Functions/DGC_A230_Motor_Functions.c **** //	FLASH = 0;
1744:../DGC_A230_Functions/DGC_A230_Motor_Functions.c **** //
1745:../DGC_A230_Functions/DGC_A230_Motor_Functions.c **** //	HMI_Flash_Enable = 0;
1746:../DGC_A230_Functions/DGC_A230_Motor_Functions.c **** //	Mask = 0xff;
1747:../DGC_A230_Functions/DGC_A230_Motor_Functions.c **** 
1748:../DGC_A230_Functions/DGC_A230_Motor_Functions.c **** }
 3756                             		.loc 1 1748 0
 3757 00d1 10 06                   		addw	sp, #6
 3758 00d3 D7                      		ret
 3759                             	.LFE30:
 3761                             		.section	.text.End_manual_recovery,"ax",@progbits
 3762                             		.global	_End_manual_recovery
 3764                             	_End_manual_recovery:
 3765                             	.LFB31:
1749:../DGC_A230_Functions/DGC_A230_Motor_Functions.c **** void End_manual_recovery()
1750:../DGC_A230_Functions/DGC_A230_Motor_Functions.c **** {
 3766                             		.loc 1 1750 0
1751:../DGC_A230_Functions/DGC_A230_Motor_Functions.c **** 
1752:../DGC_A230_Functions/DGC_A230_Motor_Functions.c **** 	Flash_Enable = 0;
 3767                             		.loc 1 1752 0
 3768 0000 F5 00 00                		clrb	!_Flash_Enable
1753:../DGC_A230_Functions/DGC_A230_Motor_Functions.c **** 	FLASH = 0;
 3769                             		.loc 1 1753 0
 3770 0003 C9 F0 02 FF             		movw	r8, #-254
 3771 0007 AD F0                   		movw	ax, r8
 3772 0009 BD F4                   		movw	r12, ax
 3773 000b FA F4                   		movw	hl, r12
 3774 000d 8B                      		mov	a, [hl]
 3775 000e 9D F2                   		mov	r10, a
 3776 0010 5A F2 FD                		and	r10, #-3
 3777 0013 AD F0                   		movw	ax, r8
 3778 0015 EA F4                   		movw	de, r12
 3779 0017 8D F2                   		mov	a, r10
 3780 0019 99                      		mov	[de], a
1754:../DGC_A230_Functions/DGC_A230_Motor_Functions.c **** 
1755:../DGC_A230_Functions/DGC_A230_Motor_Functions.c **** 	HMI_Flash_Enable = 0;
 3781                             		.loc 1 1755 0
 3782 001a F5 00 00                		clrb	!_HMI_Flash_Enable
1756:../DGC_A230_Functions/DGC_A230_Motor_Functions.c **** 	Mask = 0xff;
 3783                             		.loc 1 1756 0
 3784 001d 51 FF                   		mov	a, #-1
 3785 001f 9F 00 00                		mov	!_Mask, a
1757:../DGC_A230_Functions/DGC_A230_Motor_Functions.c **** 
1758:../DGC_A230_Functions/DGC_A230_Motor_Functions.c **** 	Display_Mode = NORMAL_MODE;
 3786                             		.loc 1 1758 0
 3787 0022 F5 00 00                		clrb	!_Display_Mode
1759:../DGC_A230_Functions/DGC_A230_Motor_Functions.c **** 
1760:../DGC_A230_Functions/DGC_A230_Motor_Functions.c **** }
 3788                             		.loc 1 1760 0
 3789 0025 D7                      		ret
 3790                             	.LFE31:
 3792                             		.section	.text.Timing_Motor1_Machine_State,"ax",@progbits
 3793                             		.global	_Timing_Motor1_Machine_State
 3795                             	_Timing_Motor1_Machine_State:
 3796                             	.LFB32:
1761:../DGC_A230_Functions/DGC_A230_Motor_Functions.c **** void Timing_Motor1_Machine_State (void)
1762:../DGC_A230_Functions/DGC_A230_Motor_Functions.c **** {
 3797                             		.loc 1 1762 0
1763:../DGC_A230_Functions/DGC_A230_Motor_Functions.c **** 
1764:../DGC_A230_Functions/DGC_A230_Motor_Functions.c **** 	if ((M1_Position_Count > M1_Time_T4))	// Opening
 3798                             		.loc 1 1764 0
 3799 0000 AF 00 00                		movw	ax, !_M1_Position_Count
 3800 0003 BD F2                   		movw	r10, ax
 3801 0005 AF 00 00                		movw	ax, !_M1_Time_T4
 3802 0008 BD F0                   		movw	r8, ax
 3803 000a AD F2                   		movw	ax, r10
 3804 000c 46 F0                   		cmpw	ax, r8
 3805 000e 61 E3                   		 skh
 3806 0010 EC 84 00 00             		 br	!!.L177
1765:../DGC_A230_Functions/DGC_A230_Motor_Functions.c **** 	{
1766:../DGC_A230_Functions/DGC_A230_Motor_Functions.c **** 		M1_Timestamp = UNDEFINE_TIMESTAMP;
 3807                             		.loc 1 1766 0
 3808 0014 F5 00 00                		clrb	!_M1_Timestamp
1767:../DGC_A230_Functions/DGC_A230_Motor_Functions.c **** 		Motor1_Disable();
 3809                             		.loc 1 1767 0
 3810 0017 FC 00 00 00             		call	!!%code(_Motor1_Disable)
1768:../DGC_A230_Functions/DGC_A230_Motor_Functions.c **** 		switch (Machine_State)
 3811                             		.loc 1 1768 0
 3812 001b 8F 00 00                		mov	a, !_Machine_State
 3813 001e 9D F0                   		mov	r8, a
 3814 0020 F4 F1                   		clrb	r9
 3815 0022 AD F0                   		movw	ax, r8
 3816 0024 44 02 00                		cmpw	ax, #2
 3817 0027 61 F8                   		 sknz
 3818 0029 EC 6C 00 00             		 br	!!.L179
 3819 002d AD F0                   		movw	ax, r8
 3820 002f 44 02 00                		cmpw	ax, #2
 3821 0032 71 FF                   		 xor1	CY, a.7
 3822 0034 61 F3                   		 sknh
 3823 0036 EC 49 00 00             		 br	!!.L180
 3824 003a AD F0                   		movw	ax, r8
 3825 003c 44 01 00                		cmpw	ax, #1
 3826 003f 61 F8                   		 sknz
 3827 0041 EC 63 00 00             		 br	!!.L181
1769:../DGC_A230_Functions/DGC_A230_Motor_Functions.c **** 		{
1770:../DGC_A230_Functions/DGC_A230_Motor_Functions.c **** 			case MACHINE_STATE_NORMAL_OPENING:
1771:../DGC_A230_Functions/DGC_A230_Motor_Functions.c **** 			{
1772:../DGC_A230_Functions/DGC_A230_Motor_Functions.c **** 				Leaf_No1_State = GATE_STATE_OPENED;
1773:../DGC_A230_Functions/DGC_A230_Motor_Functions.c **** 			} break;
1774:../DGC_A230_Functions/DGC_A230_Motor_Functions.c **** 			case MACHINE_STATE_NORMAL_CLOSING:
1775:../DGC_A230_Functions/DGC_A230_Motor_Functions.c **** 			{
1776:../DGC_A230_Functions/DGC_A230_Motor_Functions.c **** 				Leaf_No1_State = GATE_STATE_CLOSED;
1777:../DGC_A230_Functions/DGC_A230_Motor_Functions.c **** 			} break;
1778:../DGC_A230_Functions/DGC_A230_Motor_Functions.c **** 			case MACHINE_STATE_PARTIAL_OPENING:
1779:../DGC_A230_Functions/DGC_A230_Motor_Functions.c **** 			{
1780:../DGC_A230_Functions/DGC_A230_Motor_Functions.c **** 				Leaf_No1_State = GATE_STATE_PARTIAL;
1781:../DGC_A230_Functions/DGC_A230_Motor_Functions.c **** 			} break;
1782:../DGC_A230_Functions/DGC_A230_Motor_Functions.c **** 			case MACHINE_STATE_PARTIAL_CLOSING:
1783:../DGC_A230_Functions/DGC_A230_Motor_Functions.c **** 			{
1784:../DGC_A230_Functions/DGC_A230_Motor_Functions.c **** 				Leaf_No1_State = GATE_STATE_CLOSED;
1785:../DGC_A230_Functions/DGC_A230_Motor_Functions.c **** 			} break;
1786:../DGC_A230_Functions/DGC_A230_Motor_Functions.c **** 			default:
1787:../DGC_A230_Functions/DGC_A230_Motor_Functions.c **** 			{
1788:../DGC_A230_Functions/DGC_A230_Motor_Functions.c **** 				// Do Nothing
1789:../DGC_A230_Functions/DGC_A230_Motor_Functions.c **** 			} break;
 3828                             		.loc 1 1789 0
 3829 0045 EC 80 00 00             		br	!!.L184
 3830                             	.L180:
1768:../DGC_A230_Functions/DGC_A230_Motor_Functions.c **** 		switch (Machine_State)
 3831                             		.loc 1 1768 0
 3832 0049 AD F0                   		movw	ax, r8
 3833 004b 44 03 00                		cmpw	ax, #3
 3834 004e 61 F8                   		 sknz
 3835 0050 EC 73 00 00             		 br	!!.L182
 3836 0054 AD F0                   		movw	ax, r8
 3837 0056 44 04 00                		cmpw	ax, #4
 3838 0059 61 F8                   		 sknz
 3839 005b EC 7C 00 00             		 br	!!.L183
 3840                             		.loc 1 1789 0
 3841 005f EC 80 00 00             		br	!!.L184
 3842                             	.L181:
1772:../DGC_A230_Functions/DGC_A230_Motor_Functions.c **** 			} break;
 3843                             		.loc 1 1772 0
 3844 0063 51 03                   		mov	a, #3
 3845 0065 9F 00 00                		mov	!_Leaf_No1_State, a
1773:../DGC_A230_Functions/DGC_A230_Motor_Functions.c **** 			case MACHINE_STATE_NORMAL_CLOSING:
 3846                             		.loc 1 1773 0
 3847 0068 EC 80 00 00             		br	!!.L184
 3848                             	.L179:
1776:../DGC_A230_Functions/DGC_A230_Motor_Functions.c **** 			} break;
 3849                             		.loc 1 1776 0
 3850 006c E5 00 00                		oneb	!_Leaf_No1_State
1777:../DGC_A230_Functions/DGC_A230_Motor_Functions.c **** 			case MACHINE_STATE_PARTIAL_OPENING:
 3851                             		.loc 1 1777 0
 3852 006f EC 80 00 00             		br	!!.L184
 3853                             	.L182:
1780:../DGC_A230_Functions/DGC_A230_Motor_Functions.c **** 			} break;
 3854                             		.loc 1 1780 0
 3855 0073 51 05                   		mov	a, #5
 3856 0075 9F 00 00                		mov	!_Leaf_No1_State, a
1781:../DGC_A230_Functions/DGC_A230_Motor_Functions.c **** 			case MACHINE_STATE_PARTIAL_CLOSING:
 3857                             		.loc 1 1781 0
 3858 0078 EC 80 00 00             		br	!!.L184
 3859                             	.L183:
1784:../DGC_A230_Functions/DGC_A230_Motor_Functions.c **** 			} break;
 3860                             		.loc 1 1784 0
 3861 007c E5 00 00                		oneb	!_Leaf_No1_State
1785:../DGC_A230_Functions/DGC_A230_Motor_Functions.c **** 			default:
 3862                             		.loc 1 1785 0
 3863 007f 00                      		nop
 3864                             	.L184:
 3865 0080 EC 04 01 00             		br	!!.L185
 3866                             	.L177:
1790:../DGC_A230_Functions/DGC_A230_Motor_Functions.c **** 		}
1791:../DGC_A230_Functions/DGC_A230_Motor_Functions.c **** 	}
1792:../DGC_A230_Functions/DGC_A230_Motor_Functions.c **** 
1793:../DGC_A230_Functions/DGC_A230_Motor_Functions.c **** 	else if (M1_Position_Count > M1_Time_T3)									// Deceleration Time
 3867                             		.loc 1 1793 0
 3868 0084 AF 00 00                		movw	ax, !_M1_Position_Count
 3869 0087 BD F2                   		movw	r10, ax
 3870 0089 AF 00 00                		movw	ax, !_M1_Time_T3
 3871 008c BD F0                   		movw	r8, ax
 3872 008e AD F2                   		movw	ax, r10
 3873 0090 46 F0                   		cmpw	ax, r8
 3874 0092 61 E3                   		 skh
 3875 0094 EC A9 00 00             		 br	!!.L186
1794:../DGC_A230_Functions/DGC_A230_Motor_Functions.c **** 	{
1795:../DGC_A230_Functions/DGC_A230_Motor_Functions.c **** 		M1_Timestamp = DECELERATION_TIMESTAMP;
 3876                             		.loc 1 1795 0
 3877 0098 51 04                   		mov	a, #4
 3878 009a 9F 00 00                		mov	!_M1_Timestamp, a
1796:../DGC_A230_Functions/DGC_A230_Motor_Functions.c **** 		M1_Torque_Setting = CFG_parameter.Motor_Torque_Decelaration;
 3879                             		.loc 1 1796 0
 3880 009d AF 00 00                		movw	ax, !_CFG_parameter+74
 3881 00a0 BD F0                   		movw	r8, ax
 3882 00a2 BF 00 00                		movw	!_M1_Torque_Setting, ax
 3883 00a5 EC 04 01 00             		br	!!.L185
 3884                             	.L186:
1797:../DGC_A230_Functions/DGC_A230_Motor_Functions.c **** 	}
1798:../DGC_A230_Functions/DGC_A230_Motor_Functions.c **** 	else if (M1_Position_Count > M1_Time_T2)									// Normal Time
 3885                             		.loc 1 1798 0
 3886 00a9 AF 00 00                		movw	ax, !_M1_Position_Count
 3887 00ac BD F2                   		movw	r10, ax
 3888 00ae AF 00 00                		movw	ax, !_M1_Time_T2
 3889 00b1 BD F0                   		movw	r8, ax
 3890 00b3 AD F2                   		movw	ax, r10
 3891 00b5 46 F0                   		cmpw	ax, r8
 3892 00b7 61 E3                   		 skh
 3893 00b9 EC CE 00 00             		 br	!!.L187
1799:../DGC_A230_Functions/DGC_A230_Motor_Functions.c **** 	{
1800:../DGC_A230_Functions/DGC_A230_Motor_Functions.c **** 		M1_Timestamp = NORMAL_TIMESTAMP;
 3894                             		.loc 1 1800 0
 3895 00bd 51 03                   		mov	a, #3
 3896 00bf 9F 00 00                		mov	!_M1_Timestamp, a
1801:../DGC_A230_Functions/DGC_A230_Motor_Functions.c **** 		M1_Torque_Setting = CFG_parameter.Motor_Torque_Maneuver;
 3897                             		.loc 1 1801 0
 3898 00c2 AF 00 00                		movw	ax, !_CFG_parameter+72
 3899 00c5 BD F0                   		movw	r8, ax
 3900 00c7 BF 00 00                		movw	!_M1_Torque_Setting, ax
 3901 00ca EC 04 01 00             		br	!!.L185
 3902                             	.L187:
1802:../DGC_A230_Functions/DGC_A230_Motor_Functions.c **** 	}
1803:../DGC_A230_Functions/DGC_A230_Motor_Functions.c **** 	else if (M1_Position_Count > M1_Time_T1)									// Boots Time
 3903                             		.loc 1 1803 0
 3904 00ce AF 00 00                		movw	ax, !_M1_Position_Count
 3905 00d1 BD F2                   		movw	r10, ax
 3906 00d3 AF 00 00                		movw	ax, !_M1_Time_T1
 3907 00d6 BD F0                   		movw	r8, ax
 3908 00d8 AD F2                   		movw	ax, r10
 3909 00da 46 F0                   		cmpw	ax, r8
 3910 00dc 61 E3                   		 skh
 3911 00de EC F3 00 00             		 br	!!.L188
1804:../DGC_A230_Functions/DGC_A230_Motor_Functions.c **** 	{
1805:../DGC_A230_Functions/DGC_A230_Motor_Functions.c **** 		M1_Timestamp = BOOST_TIMESTAMP;
 3912                             		.loc 1 1805 0
 3913 00e2 51 02                   		mov	a, #2
 3914 00e4 9F 00 00                		mov	!_M1_Timestamp, a
1806:../DGC_A230_Functions/DGC_A230_Motor_Functions.c **** 		M1_Torque_Setting = CFG_parameter.Motor_Torque_Boots;
 3915                             		.loc 1 1806 0
 3916 00e7 AF 00 00                		movw	ax, !_CFG_parameter+76
 3917 00ea BD F0                   		movw	r8, ax
 3918 00ec BF 00 00                		movw	!_M1_Torque_Setting, ax
 3919 00ef EC 04 01 00             		br	!!.L185
 3920                             	.L188:
1807:../DGC_A230_Functions/DGC_A230_Motor_Functions.c **** 	}
1808:../DGC_A230_Functions/DGC_A230_Motor_Functions.c **** 	else if (M1_Position_Count > 0)												// Startup Time
 3921                             		.loc 1 1808 0
 3922 00f3 AF 00 00                		movw	ax, !_M1_Position_Count
 3923 00f6 BD F0                   		movw	r8, ax
 3924 00f8 44 00 00                		cmpw	ax, #0
 3925 00fb 61 F8                   		 sknz
 3926 00fd EC 04 01 00             		 br	!!.L185
1809:../DGC_A230_Functions/DGC_A230_Motor_Functions.c **** 	{
1810:../DGC_A230_Functions/DGC_A230_Motor_Functions.c **** 		M1_Timestamp = STARTUP_TIMESTAMP;
 3927                             		.loc 1 1810 0
 3928 0101 E5 00 00                		oneb	!_M1_Timestamp
 3929                             	.L185:
1811:../DGC_A230_Functions/DGC_A230_Motor_Functions.c **** 	}
1812:../DGC_A230_Functions/DGC_A230_Motor_Functions.c **** 
1813:../DGC_A230_Functions/DGC_A230_Motor_Functions.c **** 
1814:../DGC_A230_Functions/DGC_A230_Motor_Functions.c **** 	if((Tick_Count >= CFG_parameter.Motor_No1_Close_Delay_Time) && (Leaf_No1_State != GATE_STATE_CLOSE
 3930                             		.loc 1 1814 0
 3931 0104 AF 00 00                		movw	ax, !_CFG_parameter+42
 3932 0107 BD F2                   		movw	r10, ax
 3933 0109 AF 00 00                		movw	ax, !_Tick_Count
 3934 010c BD F0                   		movw	r8, ax
 3935 010e AD F2                   		movw	ax, r10
 3936 0110 46 F0                   		cmpw	ax, r8
 3937 0112 61 F3                   		 sknh
 3938 0114 EC 3D 01 00             		 br	!!.L176
 3939                             		.loc 1 1814 0 is_stmt 0 discriminator 1
 3940 0118 8F 00 00                		mov	a, !_Leaf_No1_State
 3941 011b 9D F0                   		mov	r8, a
 3942 011d 4A F0 01                		cmp	r8, #1
 3943 0120 61 F8                   		 sknz
 3944 0122 EC 3D 01 00             		 br	!!.L176
 3945                             		.loc 1 1814 0 discriminator 2
 3946 0126 8F 00 00                		mov	a, !_Machine_State
 3947 0129 9D F0                   		mov	r8, a
 3948 012b 4A F0 02                		cmp	r8, #2
 3949 012e 61 E8                   		 skz
 3950 0130 EC 3D 01 00             		 br	!!.L176
1815:../DGC_A230_Functions/DGC_A230_Motor_Functions.c **** 	{
1816:../DGC_A230_Functions/DGC_A230_Motor_Functions.c **** 		Motor1_Close_Enable();											// Enable Motor #2 Open
 3951                             		.loc 1 1816 0 is_stmt 1
 3952 0134 FC 00 00 00             		call	!!%code(_Motor1_Close_Enable)
1817:../DGC_A230_Functions/DGC_A230_Motor_Functions.c **** 		Leaf_No1_State = GATE_STATE_CLOSING;
 3953                             		.loc 1 1817 0
 3954 0138 51 04                   		mov	a, #4
 3955 013a 9F 00 00                		mov	!_Leaf_No1_State, a
 3956                             	.L176:
1818:../DGC_A230_Functions/DGC_A230_Motor_Functions.c **** 	}
1819:../DGC_A230_Functions/DGC_A230_Motor_Functions.c **** }
 3957                             		.loc 1 1819 0
 3958 013d D7                      		ret
 3959                             	.LFE32:
 3961                             		.section	.text.Timing_Motor2_Machine_State,"ax",@progbits
 3962                             		.global	_Timing_Motor2_Machine_State
 3964                             	_Timing_Motor2_Machine_State:
 3965                             	.LFB33:
1820:../DGC_A230_Functions/DGC_A230_Motor_Functions.c **** void Timing_Motor2_Machine_State (void)
1821:../DGC_A230_Functions/DGC_A230_Motor_Functions.c **** {
 3966                             		.loc 1 1821 0
1822:../DGC_A230_Functions/DGC_A230_Motor_Functions.c **** 
1823:../DGC_A230_Functions/DGC_A230_Motor_Functions.c **** 	if (CFG_parameter.Number_Of_Motors == 0x02)	// when using 2 Motors Delay
 3967                             		.loc 1 1823 0
 3968 0000 8F 00 00                		mov	a, !_CFG_parameter+1
 3969 0003 9D F0                   		mov	r8, a
 3970 0005 4A F0 02                		cmp	r8, #2
 3971 0008 61 E8                   		 skz
 3972 000a EC 47 00 00             		 br	!!.L191
1824:../DGC_A230_Functions/DGC_A230_Motor_Functions.c **** 	{
1825:../DGC_A230_Functions/DGC_A230_Motor_Functions.c **** 		if((Tick_Count >= CFG_parameter.Motor_No2_Open_Delay_Time) && (Leaf_No2_State != GATE_STATE_OPENE
 3973                             		.loc 1 1825 0
 3974 000e AF 00 00                		movw	ax, !_CFG_parameter+40
 3975 0011 BD F2                   		movw	r10, ax
 3976 0013 AF 00 00                		movw	ax, !_Tick_Count
 3977 0016 BD F0                   		movw	r8, ax
 3978 0018 AD F2                   		movw	ax, r10
 3979 001a 46 F0                   		cmpw	ax, r8
 3980 001c 61 F3                   		 sknh
 3981 001e EC 47 00 00             		 br	!!.L191
 3982                             		.loc 1 1825 0 is_stmt 0 discriminator 1
 3983 0022 8F 00 00                		mov	a, !_Leaf_No2_State
 3984 0025 9D F0                   		mov	r8, a
 3985 0027 4A F0 03                		cmp	r8, #3
 3986 002a 61 F8                   		 sknz
 3987 002c EC 47 00 00             		 br	!!.L191
 3988                             		.loc 1 1825 0 discriminator 2
 3989 0030 8F 00 00                		mov	a, !_Machine_State
 3990 0033 9D F0                   		mov	r8, a
 3991 0035 4A F0 01                		cmp	r8, #1
 3992 0038 61 E8                   		 skz
 3993 003a EC 47 00 00             		 br	!!.L191
1826:../DGC_A230_Functions/DGC_A230_Motor_Functions.c **** 		{
1827:../DGC_A230_Functions/DGC_A230_Motor_Functions.c **** 			Motor2_Open_Enable();											// Enable Motor #2 Open
 3994                             		.loc 1 1827 0 is_stmt 1
 3995 003e FC 00 00 00             		call	!!%code(_Motor2_Open_Enable)
1828:../DGC_A230_Functions/DGC_A230_Motor_Functions.c **** 			Leaf_No2_State = GATE_STATE_OPENING;
 3996                             		.loc 1 1828 0
 3997 0042 51 02                   		mov	a, #2
 3998 0044 9F 00 00                		mov	!_Leaf_No2_State, a
 3999                             	.L191:
1829:../DGC_A230_Functions/DGC_A230_Motor_Functions.c **** 		}
1830:../DGC_A230_Functions/DGC_A230_Motor_Functions.c **** 	}
1831:../DGC_A230_Functions/DGC_A230_Motor_Functions.c **** 
1832:../DGC_A230_Functions/DGC_A230_Motor_Functions.c **** 	if (CFG_parameter.Number_Of_Motors == 0x02)														// when using 2 Motors
 4000                             		.loc 1 1832 0
 4001 0047 8F 00 00                		mov	a, !_CFG_parameter+1
 4002 004a 9D F0                   		mov	r8, a
 4003 004c 4A F0 02                		cmp	r8, #2
 4004 004f 61 E8                   		 skz
 4005 0051 EC 22 01 00             		 br	!!.L190
1833:../DGC_A230_Functions/DGC_A230_Motor_Functions.c **** 	{
1834:../DGC_A230_Functions/DGC_A230_Motor_Functions.c **** 
1835:../DGC_A230_Functions/DGC_A230_Motor_Functions.c **** 		if ((M2_Position_Count > M2_Time_T4))
 4006                             		.loc 1 1835 0
 4007 0055 AF 00 00                		movw	ax, !_M2_Position_Count
 4008 0058 BD F2                   		movw	r10, ax
 4009 005a AF 00 00                		movw	ax, !_M2_Time_T4
 4010 005d BD F0                   		movw	r8, ax
 4011 005f AD F2                   		movw	ax, r10
 4012 0061 46 F0                   		cmpw	ax, r8
 4013 0063 61 E3                   		 skh
 4014 0065 EC A2 00 00             		 br	!!.L193
1836:../DGC_A230_Functions/DGC_A230_Motor_Functions.c **** 		{
1837:../DGC_A230_Functions/DGC_A230_Motor_Functions.c **** 			M2_Timestamp = UNDEFINE_TIMESTAMP;
 4015                             		.loc 1 1837 0
 4016 0069 F5 00 00                		clrb	!_M2_Timestamp
1838:../DGC_A230_Functions/DGC_A230_Motor_Functions.c **** 			Motor2_Disable();
 4017                             		.loc 1 1838 0
 4018 006c FC 00 00 00             		call	!!%code(_Motor2_Disable)
1839:../DGC_A230_Functions/DGC_A230_Motor_Functions.c **** 			switch (Machine_State)
 4019                             		.loc 1 1839 0
 4020 0070 8F 00 00                		mov	a, !_Machine_State
 4021 0073 9D F0                   		mov	r8, a
 4022 0075 F4 F1                   		clrb	r9
 4023 0077 AD F0                   		movw	ax, r8
 4024 0079 44 01 00                		cmpw	ax, #1
 4025 007c 61 F8                   		 sknz
 4026 007e EC 91 00 00             		 br	!!.L195
 4027 0082 AD F0                   		movw	ax, r8
 4028 0084 44 02 00                		cmpw	ax, #2
 4029 0087 61 F8                   		 sknz
 4030 0089 EC 9A 00 00             		 br	!!.L196
1840:../DGC_A230_Functions/DGC_A230_Motor_Functions.c **** 			{
1841:../DGC_A230_Functions/DGC_A230_Motor_Functions.c **** 				case MACHINE_STATE_NORMAL_OPENING:
1842:../DGC_A230_Functions/DGC_A230_Motor_Functions.c **** 				{
1843:../DGC_A230_Functions/DGC_A230_Motor_Functions.c **** 					Leaf_No2_State = GATE_STATE_OPENED;
1844:../DGC_A230_Functions/DGC_A230_Motor_Functions.c **** 				} break;
1845:../DGC_A230_Functions/DGC_A230_Motor_Functions.c **** 				case MACHINE_STATE_NORMAL_CLOSING:
1846:../DGC_A230_Functions/DGC_A230_Motor_Functions.c **** 				{
1847:../DGC_A230_Functions/DGC_A230_Motor_Functions.c **** 					Leaf_No2_State = GATE_STATE_CLOSED;
1848:../DGC_A230_Functions/DGC_A230_Motor_Functions.c **** 				} break;
1849:../DGC_A230_Functions/DGC_A230_Motor_Functions.c **** 				default:
1850:../DGC_A230_Functions/DGC_A230_Motor_Functions.c **** 				{
1851:../DGC_A230_Functions/DGC_A230_Motor_Functions.c **** 					// Do Nothing
1852:../DGC_A230_Functions/DGC_A230_Motor_Functions.c **** 				} break;
 4031                             		.loc 1 1852 0
 4032 008d EC 9E 00 00             		br	!!.L197
 4033                             	.L195:
1843:../DGC_A230_Functions/DGC_A230_Motor_Functions.c **** 				} break;
 4034                             		.loc 1 1843 0
 4035 0091 51 03                   		mov	a, #3
 4036 0093 9F 00 00                		mov	!_Leaf_No2_State, a
1844:../DGC_A230_Functions/DGC_A230_Motor_Functions.c **** 				case MACHINE_STATE_NORMAL_CLOSING:
 4037                             		.loc 1 1844 0
 4038 0096 EC 9E 00 00             		br	!!.L197
 4039                             	.L196:
1847:../DGC_A230_Functions/DGC_A230_Motor_Functions.c **** 				} break;
 4040                             		.loc 1 1847 0
 4041 009a E5 00 00                		oneb	!_Leaf_No2_State
1848:../DGC_A230_Functions/DGC_A230_Motor_Functions.c **** 				default:
 4042                             		.loc 1 1848 0
 4043 009d 00                      		nop
 4044                             	.L197:
 4045 009e EC 22 01 00             		br	!!.L190
 4046                             	.L193:
1853:../DGC_A230_Functions/DGC_A230_Motor_Functions.c **** 			}
1854:../DGC_A230_Functions/DGC_A230_Motor_Functions.c **** 		}
1855:../DGC_A230_Functions/DGC_A230_Motor_Functions.c **** 		else if (M2_Position_Count > M2_Time_T3)								// Deceleration Time
 4047                             		.loc 1 1855 0
 4048 00a2 AF 00 00                		movw	ax, !_M2_Position_Count
 4049 00a5 BD F2                   		movw	r10, ax
 4050 00a7 AF 00 00                		movw	ax, !_M2_Time_T3
 4051 00aa BD F0                   		movw	r8, ax
 4052 00ac AD F2                   		movw	ax, r10
 4053 00ae 46 F0                   		cmpw	ax, r8
 4054 00b0 61 E3                   		 skh
 4055 00b2 EC C7 00 00             		 br	!!.L198
1856:../DGC_A230_Functions/DGC_A230_Motor_Functions.c **** 		{
1857:../DGC_A230_Functions/DGC_A230_Motor_Functions.c **** 			M2_Timestamp = DECELERATION_TIMESTAMP;
 4056                             		.loc 1 1857 0
 4057 00b6 51 04                   		mov	a, #4
 4058 00b8 9F 00 00                		mov	!_M2_Timestamp, a
1858:../DGC_A230_Functions/DGC_A230_Motor_Functions.c **** 			M2_Torque_Setting = CFG_parameter.Motor_Torque_Decelaration;
 4059                             		.loc 1 1858 0
 4060 00bb AF 00 00                		movw	ax, !_CFG_parameter+74
 4061 00be BD F0                   		movw	r8, ax
 4062 00c0 BF 00 00                		movw	!_M2_Torque_Setting, ax
 4063 00c3 EC 22 01 00             		br	!!.L190
 4064                             	.L198:
1859:../DGC_A230_Functions/DGC_A230_Motor_Functions.c **** 		}
1860:../DGC_A230_Functions/DGC_A230_Motor_Functions.c **** 		else if (M2_Position_Count > M2_Time_T2)								// Normal Time
 4065                             		.loc 1 1860 0
 4066 00c7 AF 00 00                		movw	ax, !_M2_Position_Count
 4067 00ca BD F2                   		movw	r10, ax
 4068 00cc AF 00 00                		movw	ax, !_M2_Time_T2
 4069 00cf BD F0                   		movw	r8, ax
 4070 00d1 AD F2                   		movw	ax, r10
 4071 00d3 46 F0                   		cmpw	ax, r8
 4072 00d5 61 E3                   		 skh
 4073 00d7 EC EC 00 00             		 br	!!.L199
1861:../DGC_A230_Functions/DGC_A230_Motor_Functions.c **** 		{
1862:../DGC_A230_Functions/DGC_A230_Motor_Functions.c **** 			M2_Timestamp = NORMAL_TIMESTAMP;
 4074                             		.loc 1 1862 0
 4075 00db 51 03                   		mov	a, #3
 4076 00dd 9F 00 00                		mov	!_M2_Timestamp, a
1863:../DGC_A230_Functions/DGC_A230_Motor_Functions.c **** 			M2_Torque_Setting = CFG_parameter.Motor_Torque_Maneuver;
 4077                             		.loc 1 1863 0
 4078 00e0 AF 00 00                		movw	ax, !_CFG_parameter+72
 4079 00e3 BD F0                   		movw	r8, ax
 4080 00e5 BF 00 00                		movw	!_M2_Torque_Setting, ax
 4081 00e8 EC 22 01 00             		br	!!.L190
 4082                             	.L199:
1864:../DGC_A230_Functions/DGC_A230_Motor_Functions.c **** 		}
1865:../DGC_A230_Functions/DGC_A230_Motor_Functions.c **** 		else if (M2_Position_Count > M2_Time_T1)								// Boots Time
 4083                             		.loc 1 1865 0
 4084 00ec AF 00 00                		movw	ax, !_M2_Position_Count
 4085 00ef BD F2                   		movw	r10, ax
 4086 00f1 AF 00 00                		movw	ax, !_M2_Time_T1
 4087 00f4 BD F0                   		movw	r8, ax
 4088 00f6 AD F2                   		movw	ax, r10
 4089 00f8 46 F0                   		cmpw	ax, r8
 4090 00fa 61 E3                   		 skh
 4091 00fc EC 11 01 00             		 br	!!.L200
1866:../DGC_A230_Functions/DGC_A230_Motor_Functions.c **** 		{
1867:../DGC_A230_Functions/DGC_A230_Motor_Functions.c **** 			M2_Timestamp = BOOST_TIMESTAMP;
 4092                             		.loc 1 1867 0
 4093 0100 51 02                   		mov	a, #2
 4094 0102 9F 00 00                		mov	!_M2_Timestamp, a
1868:../DGC_A230_Functions/DGC_A230_Motor_Functions.c **** 			M2_Torque_Setting = CFG_parameter.Motor_Torque_Boots;
 4095                             		.loc 1 1868 0
 4096 0105 AF 00 00                		movw	ax, !_CFG_parameter+76
 4097 0108 BD F0                   		movw	r8, ax
 4098 010a BF 00 00                		movw	!_M2_Torque_Setting, ax
 4099 010d EC 22 01 00             		br	!!.L190
 4100                             	.L200:
1869:../DGC_A230_Functions/DGC_A230_Motor_Functions.c **** 		}
1870:../DGC_A230_Functions/DGC_A230_Motor_Functions.c **** 		else if (M2_Position_Count > 0)											// Startup Time
 4101                             		.loc 1 1870 0
 4102 0111 AF 00 00                		movw	ax, !_M2_Position_Count
 4103 0114 BD F0                   		movw	r8, ax
 4104 0116 44 00 00                		cmpw	ax, #0
 4105 0119 61 F8                   		 sknz
 4106 011b EC 22 01 00             		 br	!!.L190
1871:../DGC_A230_Functions/DGC_A230_Motor_Functions.c **** 		{
1872:../DGC_A230_Functions/DGC_A230_Motor_Functions.c **** 			M2_Timestamp = STARTUP_TIMESTAMP;
 4107                             		.loc 1 1872 0
 4108 011f E5 00 00                		oneb	!_M2_Timestamp
 4109                             	.L190:
1873:../DGC_A230_Functions/DGC_A230_Motor_Functions.c **** 		}
1874:../DGC_A230_Functions/DGC_A230_Motor_Functions.c **** 	}
1875:../DGC_A230_Functions/DGC_A230_Motor_Functions.c **** }
 4110                             		.loc 1 1875 0
 4111 0122 D7                      		ret
 4112                             	.LFE33:
 4114                             		.section	.text.__Do_Moving_Gate_After_COS_Action_Motor1_Start,"ax",@progbits
 4115                             		.global	___Do_Moving_Gate_After_COS_Action_Motor1_Start
 4117                             	___Do_Moving_Gate_After_COS_Action_Motor1_Start:
 4118                             	.LFB34:
1876:../DGC_A230_Functions/DGC_A230_Motor_Functions.c **** //void Timing_Motor_Machine_State (void)
1877:../DGC_A230_Functions/DGC_A230_Motor_Functions.c **** //{
1878:../DGC_A230_Functions/DGC_A230_Motor_Functions.c **** //
1879:../DGC_A230_Functions/DGC_A230_Motor_Functions.c **** //	if ((M1_Position_Count > M1_Time_T4))	// Opening
1880:../DGC_A230_Functions/DGC_A230_Motor_Functions.c **** //	{
1881:../DGC_A230_Functions/DGC_A230_Motor_Functions.c **** //		M1_Timestamp = UNDEFINE_TIMESTAMP;
1882:../DGC_A230_Functions/DGC_A230_Motor_Functions.c **** //		Motor1_Disable();
1883:../DGC_A230_Functions/DGC_A230_Motor_Functions.c **** //		switch (Machine_State)
1884:../DGC_A230_Functions/DGC_A230_Motor_Functions.c **** //		{
1885:../DGC_A230_Functions/DGC_A230_Motor_Functions.c **** //			case MACHINE_STATE_NORMAL_OPENING:
1886:../DGC_A230_Functions/DGC_A230_Motor_Functions.c **** //			{
1887:../DGC_A230_Functions/DGC_A230_Motor_Functions.c **** //				Leaf_No1_State = GATE_STATE_OPENED;
1888:../DGC_A230_Functions/DGC_A230_Motor_Functions.c **** //			} break;
1889:../DGC_A230_Functions/DGC_A230_Motor_Functions.c **** //			case MACHINE_STATE_NORMAL_CLOSING:
1890:../DGC_A230_Functions/DGC_A230_Motor_Functions.c **** //			{
1891:../DGC_A230_Functions/DGC_A230_Motor_Functions.c **** //				Leaf_No1_State = GATE_STATE_CLOSED;
1892:../DGC_A230_Functions/DGC_A230_Motor_Functions.c **** //			} break;
1893:../DGC_A230_Functions/DGC_A230_Motor_Functions.c **** //			case MACHINE_STATE_PARTIAL_OPENING:
1894:../DGC_A230_Functions/DGC_A230_Motor_Functions.c **** //			{
1895:../DGC_A230_Functions/DGC_A230_Motor_Functions.c **** //				Leaf_No1_State = GATE_STATE_PARTIAL;
1896:../DGC_A230_Functions/DGC_A230_Motor_Functions.c **** //			} break;
1897:../DGC_A230_Functions/DGC_A230_Motor_Functions.c **** //			case MACHINE_STATE_PARTIAL_CLOSING:
1898:../DGC_A230_Functions/DGC_A230_Motor_Functions.c **** //			{
1899:../DGC_A230_Functions/DGC_A230_Motor_Functions.c **** //				Leaf_No1_State = GATE_STATE_CLOSED;
1900:../DGC_A230_Functions/DGC_A230_Motor_Functions.c **** //			} break;
1901:../DGC_A230_Functions/DGC_A230_Motor_Functions.c **** //			default:
1902:../DGC_A230_Functions/DGC_A230_Motor_Functions.c **** //			{
1903:../DGC_A230_Functions/DGC_A230_Motor_Functions.c **** //				// Do Nothing
1904:../DGC_A230_Functions/DGC_A230_Motor_Functions.c **** //			} break;
1905:../DGC_A230_Functions/DGC_A230_Motor_Functions.c **** //		}
1906:../DGC_A230_Functions/DGC_A230_Motor_Functions.c **** //	}
1907:../DGC_A230_Functions/DGC_A230_Motor_Functions.c **** //
1908:../DGC_A230_Functions/DGC_A230_Motor_Functions.c **** //	else if (M1_Position_Count > M1_Time_T3)									// Deceleration Time
1909:../DGC_A230_Functions/DGC_A230_Motor_Functions.c **** //	{
1910:../DGC_A230_Functions/DGC_A230_Motor_Functions.c **** //		M1_Timestamp = DECELERATION_TIMESTAMP;
1911:../DGC_A230_Functions/DGC_A230_Motor_Functions.c **** //		M1_Torque_Setting = CFG_parameter.Motor_Torque_Decelaration;
1912:../DGC_A230_Functions/DGC_A230_Motor_Functions.c **** //	}
1913:../DGC_A230_Functions/DGC_A230_Motor_Functions.c **** //	else if (M1_Position_Count > M1_Time_T2)									// Normal Time
1914:../DGC_A230_Functions/DGC_A230_Motor_Functions.c **** //	{
1915:../DGC_A230_Functions/DGC_A230_Motor_Functions.c **** //		M1_Timestamp = NORMAL_TIMESTAMP;
1916:../DGC_A230_Functions/DGC_A230_Motor_Functions.c **** //		M1_Torque_Setting = CFG_parameter.Motor_Torque_Maneuver;
1917:../DGC_A230_Functions/DGC_A230_Motor_Functions.c **** //	}
1918:../DGC_A230_Functions/DGC_A230_Motor_Functions.c **** //	else if (M1_Position_Count > M1_Time_T1)									// Boots Time
1919:../DGC_A230_Functions/DGC_A230_Motor_Functions.c **** //	{
1920:../DGC_A230_Functions/DGC_A230_Motor_Functions.c **** //		M1_Timestamp = BOOST_TIMESTAMP;
1921:../DGC_A230_Functions/DGC_A230_Motor_Functions.c **** //		M1_Torque_Setting = CFG_parameter.Motor_Torque_Boots;
1922:../DGC_A230_Functions/DGC_A230_Motor_Functions.c **** //	}
1923:../DGC_A230_Functions/DGC_A230_Motor_Functions.c **** //	else if (M1_Position_Count > 0)												// Startup Time
1924:../DGC_A230_Functions/DGC_A230_Motor_Functions.c **** //	{
1925:../DGC_A230_Functions/DGC_A230_Motor_Functions.c **** //		M1_Timestamp = STARTUP_TIMESTAMP;
1926:../DGC_A230_Functions/DGC_A230_Motor_Functions.c **** //	}
1927:../DGC_A230_Functions/DGC_A230_Motor_Functions.c **** //
1928:../DGC_A230_Functions/DGC_A230_Motor_Functions.c **** //	if (CFG_parameter.Number_Of_Motors == 0x02)	// when using 2 Motors Delay
1929:../DGC_A230_Functions/DGC_A230_Motor_Functions.c **** //	{
1930:../DGC_A230_Functions/DGC_A230_Motor_Functions.c **** //		if((Tick_Count >= CFG_parameter.Motor_No2_Open_Delay_Time) && (Leaf_No2_State != GATE_STATE_OPE
1931:../DGC_A230_Functions/DGC_A230_Motor_Functions.c **** //		{
1932:../DGC_A230_Functions/DGC_A230_Motor_Functions.c **** //			Motor2_Open_Enable();											// Enable Motor #2 Open
1933:../DGC_A230_Functions/DGC_A230_Motor_Functions.c **** //			Leaf_No2_State = GATE_STATE_OPENING;
1934:../DGC_A230_Functions/DGC_A230_Motor_Functions.c **** //		}
1935:../DGC_A230_Functions/DGC_A230_Motor_Functions.c **** //
1936:../DGC_A230_Functions/DGC_A230_Motor_Functions.c **** //		if((Tick_Count >= CFG_parameter.Motor_No1_Close_Delay_Time) && (Leaf_No1_State != GATE_STATE_CL
1937:../DGC_A230_Functions/DGC_A230_Motor_Functions.c **** //		{
1938:../DGC_A230_Functions/DGC_A230_Motor_Functions.c **** //			Motor1_Close_Enable();											// Enable Motor #2 Open
1939:../DGC_A230_Functions/DGC_A230_Motor_Functions.c **** //			Leaf_No1_State = GATE_STATE_CLOSING;
1940:../DGC_A230_Functions/DGC_A230_Motor_Functions.c **** //		}
1941:../DGC_A230_Functions/DGC_A230_Motor_Functions.c **** //	}
1942:../DGC_A230_Functions/DGC_A230_Motor_Functions.c **** //
1943:../DGC_A230_Functions/DGC_A230_Motor_Functions.c **** //	if (CFG_parameter.Number_Of_Motors == 0x02)														// when using 2 Motors
1944:../DGC_A230_Functions/DGC_A230_Motor_Functions.c **** //	{
1945:../DGC_A230_Functions/DGC_A230_Motor_Functions.c **** //
1946:../DGC_A230_Functions/DGC_A230_Motor_Functions.c **** //		if ((M2_Position_Count > M2_Time_T4))
1947:../DGC_A230_Functions/DGC_A230_Motor_Functions.c **** //		{
1948:../DGC_A230_Functions/DGC_A230_Motor_Functions.c **** //			M2_Timestamp = UNDEFINE_TIMESTAMP;
1949:../DGC_A230_Functions/DGC_A230_Motor_Functions.c **** //			Motor2_Disable();
1950:../DGC_A230_Functions/DGC_A230_Motor_Functions.c **** //			switch (Machine_State)
1951:../DGC_A230_Functions/DGC_A230_Motor_Functions.c **** //			{
1952:../DGC_A230_Functions/DGC_A230_Motor_Functions.c **** //				case MACHINE_STATE_NORMAL_OPENING:
1953:../DGC_A230_Functions/DGC_A230_Motor_Functions.c **** //				{
1954:../DGC_A230_Functions/DGC_A230_Motor_Functions.c **** //					Leaf_No2_State = GATE_STATE_OPENED;
1955:../DGC_A230_Functions/DGC_A230_Motor_Functions.c **** //				} break;
1956:../DGC_A230_Functions/DGC_A230_Motor_Functions.c **** //				case MACHINE_STATE_NORMAL_CLOSING:
1957:../DGC_A230_Functions/DGC_A230_Motor_Functions.c **** //				{
1958:../DGC_A230_Functions/DGC_A230_Motor_Functions.c **** //					Leaf_No2_State = GATE_STATE_CLOSED;
1959:../DGC_A230_Functions/DGC_A230_Motor_Functions.c **** //				} break;
1960:../DGC_A230_Functions/DGC_A230_Motor_Functions.c **** //				default:
1961:../DGC_A230_Functions/DGC_A230_Motor_Functions.c **** //				{
1962:../DGC_A230_Functions/DGC_A230_Motor_Functions.c **** //					// Do Nothing
1963:../DGC_A230_Functions/DGC_A230_Motor_Functions.c **** //				} break;
1964:../DGC_A230_Functions/DGC_A230_Motor_Functions.c **** //			}
1965:../DGC_A230_Functions/DGC_A230_Motor_Functions.c **** //		}
1966:../DGC_A230_Functions/DGC_A230_Motor_Functions.c **** //		else if (M2_Position_Count > M2_Time_T3)								// Deceleration Time
1967:../DGC_A230_Functions/DGC_A230_Motor_Functions.c **** //		{
1968:../DGC_A230_Functions/DGC_A230_Motor_Functions.c **** //			M2_Timestamp = DECELERATION_TIMESTAMP;
1969:../DGC_A230_Functions/DGC_A230_Motor_Functions.c **** //			M2_Torque_Setting = CFG_parameter.Motor_Torque_Decelaration;
1970:../DGC_A230_Functions/DGC_A230_Motor_Functions.c **** //		}
1971:../DGC_A230_Functions/DGC_A230_Motor_Functions.c **** //		else if (M2_Position_Count > M2_Time_T2)								// Normal Time
1972:../DGC_A230_Functions/DGC_A230_Motor_Functions.c **** //		{
1973:../DGC_A230_Functions/DGC_A230_Motor_Functions.c **** //			M2_Timestamp = NORMAL_TIMESTAMP;
1974:../DGC_A230_Functions/DGC_A230_Motor_Functions.c **** //			M2_Torque_Setting = CFG_parameter.Motor_Torque_Maneuver;
1975:../DGC_A230_Functions/DGC_A230_Motor_Functions.c **** //		}
1976:../DGC_A230_Functions/DGC_A230_Motor_Functions.c **** //		else if (M2_Position_Count > M2_Time_T1)								// Boots Time
1977:../DGC_A230_Functions/DGC_A230_Motor_Functions.c **** //		{
1978:../DGC_A230_Functions/DGC_A230_Motor_Functions.c **** //			M2_Timestamp = BOOST_TIMESTAMP;
1979:../DGC_A230_Functions/DGC_A230_Motor_Functions.c **** //			M2_Torque_Setting = CFG_parameter.Motor_Torque_Boots;
1980:../DGC_A230_Functions/DGC_A230_Motor_Functions.c **** //		}
1981:../DGC_A230_Functions/DGC_A230_Motor_Functions.c **** //		else if (M2_Position_Count > 0)											// Startup Time
1982:../DGC_A230_Functions/DGC_A230_Motor_Functions.c **** //		{
1983:../DGC_A230_Functions/DGC_A230_Motor_Functions.c **** //			M2_Timestamp = STARTUP_TIMESTAMP;
1984:../DGC_A230_Functions/DGC_A230_Motor_Functions.c **** //		}
1985:../DGC_A230_Functions/DGC_A230_Motor_Functions.c **** //	}
1986:../DGC_A230_Functions/DGC_A230_Motor_Functions.c **** //}
1987:../DGC_A230_Functions/DGC_A230_Motor_Functions.c **** 
1988:../DGC_A230_Functions/DGC_A230_Motor_Functions.c **** 
1989:../DGC_A230_Functions/DGC_A230_Motor_Functions.c **** void __Do_Moving_Gate_After_COS_Action_Motor1_Start(uint8_t Moving_Direction, uint8_t COS_Type)
1990:../DGC_A230_Functions/DGC_A230_Motor_Functions.c **** {
 4119                             		.loc 1 1990 0
 4120                             		; start of function
 4121                             		; outgoing: 2 bytes
 4122                             		; uses ES register
 4123 0000 20 02                   		subw	sp, #2
 4124                             	.LCFI11:
1991:../DGC_A230_Functions/DGC_A230_Motor_Functions.c **** 	Setting_Courtesy_Light_and_Flash_Light(Moving_Direction);
 4125                             		.loc 1 1991 0
 4126 0002 88 06                   		mov	a, [sp+6]
 4127 0004 9D F0                   		mov	r8, a
 4128 0006 98 00                   		mov	[sp], a
 4129 0008 FC 00 00 00             		call	!!%code(_Setting_Courtesy_Light_and_Flash_Light)
1992:../DGC_A230_Functions/DGC_A230_Motor_Functions.c **** 
1993:../DGC_A230_Functions/DGC_A230_Motor_Functions.c **** 	M1_Torque_Setting = CFG_parameter.Motor_Torque_After_Edge_Sense;
 4130                             		.loc 1 1993 0
 4131 000c AF 00 00                		movw	ax, !_CFG_parameter+78
 4132 000f BD F0                   		movw	r8, ax
 4133 0011 BF 00 00                		movw	!_M1_Torque_Setting, ax
1994:../DGC_A230_Functions/DGC_A230_Motor_Functions.c **** 
1995:../DGC_A230_Functions/DGC_A230_Motor_Functions.c **** 	M1_Timestamp = UNDEFINE_TIMESTAMP;
 4134                             		.loc 1 1995 0
 4135 0014 F5 00 00                		clrb	!_M1_Timestamp
1996:../DGC_A230_Functions/DGC_A230_Motor_Functions.c **** 
1997:../DGC_A230_Functions/DGC_A230_Motor_Functions.c **** 	if (Moving_Direction == OPEN_MOVING_DIRECTION)
 4136                             		.loc 1 1997 0
 4137 0017 88 06                   		mov	a, [sp+6]
 4138 0019 D1                      		cmp0	a
 4139 001a 61 E8                   		 skz
 4140 001c EC 2D 00 00             		 br	!!.L202
1998:../DGC_A230_Functions/DGC_A230_Motor_Functions.c **** 	{
1999:../DGC_A230_Functions/DGC_A230_Motor_Functions.c **** 		Motor1_Open_Enable();										// Enable Motor #1 to Open
 4141                             		.loc 1 1999 0
 4142 0020 FC 00 00 00             		call	!!%code(_Motor1_Open_Enable)
2000:../DGC_A230_Functions/DGC_A230_Motor_Functions.c **** 		Leaf_No1_State = GATE_STATE_OPENING;
 4143                             		.loc 1 2000 0
 4144 0024 51 02                   		mov	a, #2
 4145 0026 9F 00 00                		mov	!_Leaf_No1_State, a
 4146 0029 EC 36 00 00             		br	!!.L203
 4147                             	.L202:
2001:../DGC_A230_Functions/DGC_A230_Motor_Functions.c **** //		Machine_State = MACHINE_STATE_COS_OPENING;
2002:../DGC_A230_Functions/DGC_A230_Motor_Functions.c **** 	}
2003:../DGC_A230_Functions/DGC_A230_Motor_Functions.c **** 	else
2004:../DGC_A230_Functions/DGC_A230_Motor_Functions.c **** 	{
2005:../DGC_A230_Functions/DGC_A230_Motor_Functions.c **** 		Motor1_Close_Enable();										// Enable Motor #1 Close
 4148                             		.loc 1 2005 0
 4149 002d FC 00 00 00             		call	!!%code(_Motor1_Close_Enable)
2006:../DGC_A230_Functions/DGC_A230_Motor_Functions.c **** 		Leaf_No1_State = GATE_STATE_CLOSING;
 4150                             		.loc 1 2006 0
 4151 0031 51 04                   		mov	a, #4
 4152 0033 9F 00 00                		mov	!_Leaf_No1_State, a
 4153                             	.L203:
2007:../DGC_A230_Functions/DGC_A230_Motor_Functions.c **** 
2008:../DGC_A230_Functions/DGC_A230_Motor_Functions.c **** //		Machine_State = MACHINE_STATE_COS_CLOSING;
2009:../DGC_A230_Functions/DGC_A230_Motor_Functions.c **** 	}
2010:../DGC_A230_Functions/DGC_A230_Motor_Functions.c **** 	Tick_Count = 0;
 4154                             		.loc 1 2010 0
 4155 0036 F6                      		clrw	ax
 4156 0037 BF 00 00                		movw	!_Tick_Count, ax
2011:../DGC_A230_Functions/DGC_A230_Motor_Functions.c **** 
2012:../DGC_A230_Functions/DGC_A230_Motor_Functions.c **** 	TRIG_EN = 1;													// Enable Pulse out to control Motor
 4157                             		.loc 1 2012 0
 4158 003a C9 F0 03 FF             		movw	r8, #-253
 4159 003e AD F0                   		movw	ax, r8
 4160 0040 BD F4                   		movw	r12, ax
 4161 0042 FA F4                   		movw	hl, r12
 4162 0044 8B                      		mov	a, [hl]
 4163 0045 9D F2                   		mov	r10, a
 4164 0047 6A F2 01                		or	r10, #1
 4165 004a AD F0                   		movw	ax, r8
 4166 004c EA F4                   		movw	de, r12
 4167 004e 8D F2                   		mov	a, r10
 4168 0050 99                      		mov	[de], a
2013:../DGC_A230_Functions/DGC_A230_Motor_Functions.c **** 	R_INTC0_Start();												// Enable Sync to control
 4169                             		.loc 1 2013 0
 4170 0051 FC 00 00 00             		call	!!%code(_R_INTC0_Start)
2014:../DGC_A230_Functions/DGC_A230_Motor_Functions.c **** 	R_TAU0_Channel1_Start();										// Start Timer channel 1
 4171                             		.loc 1 2014 0
 4172 0055 FC 00 00 00             		call	!!%code(_R_TAU0_Channel1_Start)
2015:../DGC_A230_Functions/DGC_A230_Motor_Functions.c **** }
 4173                             		.loc 1 2015 0
 4174 0059 10 02                   		addw	sp, #2
 4175 005b D7                      		ret
 4176                             	.LFE34:
 4178                             		.section	.text.__Do_Moving_Gate_After_COS_Action_Motor1_End,"ax",@progbits
 4179                             		.global	___Do_Moving_Gate_After_COS_Action_Motor1_End
 4181                             	___Do_Moving_Gate_After_COS_Action_Motor1_End:
 4182                             	.LFB35:
2016:../DGC_A230_Functions/DGC_A230_Motor_Functions.c **** void __Do_Moving_Gate_After_COS_Action_Motor1_End(uint8_t Moving_Direction, uint8_t COS_Type)
2017:../DGC_A230_Functions/DGC_A230_Motor_Functions.c **** {
 4183                             		.loc 1 2017 0
2018:../DGC_A230_Functions/DGC_A230_Motor_Functions.c **** 	while(Tick_Count < CFG_parameter.Reverse_Time_After_Edge_Sense);
 4184                             		.loc 1 2018 0
 4185 0000 00                      		nop
 4186                             	.L205:
 4187                             		.loc 1 2018 0 is_stmt 0 discriminator 1
 4188 0001 AF 00 00                		movw	ax, !_CFG_parameter+62
 4189 0004 BD F2                   		movw	r10, ax
 4190 0006 AF 00 00                		movw	ax, !_Tick_Count
 4191 0009 BD F0                   		movw	r8, ax
 4192 000b AD F2                   		movw	ax, r10
 4193 000d 46 F0                   		cmpw	ax, r8
 4194 000f 61 F3                   		 sknh
 4195 0011 EC 01 00 00             		 br	!!.L205
2019:../DGC_A230_Functions/DGC_A230_Motor_Functions.c **** 
2020:../DGC_A230_Functions/DGC_A230_Motor_Functions.c **** 	R_TAU0_Channel1_Stop();											// Stop Timer channel 1
 4196                             		.loc 1 2020 0 is_stmt 1
 4197 0015 FC 00 00 00             		call	!!%code(_R_TAU0_Channel1_Stop)
2021:../DGC_A230_Functions/DGC_A230_Motor_Functions.c **** 	R_INTC0_Stop();													// Disable Sync to control
 4198                             		.loc 1 2021 0
 4199 0019 FC 00 00 00             		call	!!%code(_R_INTC0_Stop)
2022:../DGC_A230_Functions/DGC_A230_Motor_Functions.c **** 	TRIG_EN = 0;			// Enable Pulse out to control Motor
 4200                             		.loc 1 2022 0
 4201 001d C9 F0 03 FF             		movw	r8, #-253
 4202 0021 AD F0                   		movw	ax, r8
 4203 0023 BD F4                   		movw	r12, ax
 4204 0025 FA F4                   		movw	hl, r12
 4205 0027 8B                      		mov	a, [hl]
 4206 0028 9D F2                   		mov	r10, a
 4207 002a 5A F2 FE                		and	r10, #-2
 4208 002d AD F0                   		movw	ax, r8
 4209 002f EA F4                   		movw	de, r12
 4210 0031 8D F2                   		mov	a, r10
 4211 0033 99                      		mov	[de], a
2023:../DGC_A230_Functions/DGC_A230_Motor_Functions.c **** 	M1_PWM = 1;					// Clear Trigger Pulse Output
 4212                             		.loc 1 2023 0
 4213 0034 C9 F0 00 FF             		movw	r8, #-256
 4214 0038 AD F0                   		movw	ax, r8
 4215 003a BD F4                   		movw	r12, ax
 4216 003c FA F4                   		movw	hl, r12
 4217 003e 8B                      		mov	a, [hl]
 4218 003f 9D F2                   		mov	r10, a
 4219 0041 6A F2 40                		or	r10, #64
 4220 0044 AD F0                   		movw	ax, r8
 4221 0046 EA F4                   		movw	de, r12
 4222 0048 8D F2                   		mov	a, r10
 4223 004a 99                      		mov	[de], a
2024:../DGC_A230_Functions/DGC_A230_Motor_Functions.c **** 
2025:../DGC_A230_Functions/DGC_A230_Motor_Functions.c **** 	Motor1_Disable();
 4224                             		.loc 1 2025 0
 4225 004b FC 00 00 00             		call	!!%code(_Motor1_Disable)
2026:../DGC_A230_Functions/DGC_A230_Motor_Functions.c **** 
2027:../DGC_A230_Functions/DGC_A230_Motor_Functions.c **** 	if (Moving_Direction == OPEN_MOVING_DIRECTION)				// Calculate Position when stop Normal Opening
 4226                             		.loc 1 2027 0
 4227 004f 88 04                   		mov	a, [sp+4]
 4228 0051 D1                      		cmp0	a
 4229 0052 61 E8                   		 skz
 4230 0054 EC A6 00 00             		 br	!!.L206
2028:../DGC_A230_Functions/DGC_A230_Motor_Functions.c **** 	{
2029:../DGC_A230_Functions/DGC_A230_Motor_Functions.c **** 		M1_Time_Position = 	M1_Last_Time_Position +	CFG_parameter.Reverse_Time_After_Edge_Sense*3;
 4231                             		.loc 1 2029 0
 4232 0058 AF 00 00                		movw	ax, !_CFG_parameter+62
 4233 005b BD F2                   		movw	r10, ax
 4234 005d BD F0                   		movw	r8, ax
 4235 005f 01                      		addw	ax, ax
 4236 0060 BD F0                   		movw	r8, ax
 4237 0062 06 F2                   		addw	ax, r10
 4238 0064 BD F2                   		movw	r10, ax
 4239 0066 AF 00 00                		movw	ax, !_M1_Last_Time_Position
 4240 0069 BD F0                   		movw	r8, ax
 4241 006b AD F2                   		movw	ax, r10
 4242 006d 06 F0                   		addw	ax, r8
 4243 006f BD F0                   		movw	r8, ax
 4244 0071 BF 00 00                		movw	!_M1_Time_Position, ax
2030:../DGC_A230_Functions/DGC_A230_Motor_Functions.c **** 		Leaf_No1_State = GATE_STATE_OPENING_PAUSE;
 4245                             		.loc 1 2030 0
 4246 0074 51 06                   		mov	a, #6
 4247 0076 9F 00 00                		mov	!_Leaf_No1_State, a
2031:../DGC_A230_Functions/DGC_A230_Motor_Functions.c **** 		if (M1_Time_Position > CFG_parameter.M1_Total_Space)
 4248                             		.loc 1 2031 0
 4249 0079 AF 00 00                		movw	ax, !_CFG_parameter+24
 4250 007c BD F2                   		movw	r10, ax
 4251 007e AF 00 00                		movw	ax, !_M1_Time_Position
 4252 0081 BD F0                   		movw	r8, ax
 4253 0083 AD F2                   		movw	ax, r10
 4254 0085 46 F0                   		cmpw	ax, r8
 4255 0087 61 C8                   		 skc
 4256 0089 EC 9A 00 00             		 br	!!.L207
2032:../DGC_A230_Functions/DGC_A230_Motor_Functions.c **** 		{
2033:../DGC_A230_Functions/DGC_A230_Motor_Functions.c **** 			Leaf_No1_State = GATE_STATE_OPENED;
 4257                             		.loc 1 2033 0
 4258 008d 51 03                   		mov	a, #3
 4259 008f 9F 00 00                		mov	!_Leaf_No1_State, a
2034:../DGC_A230_Functions/DGC_A230_Motor_Functions.c **** 			M1_Time_Position = CFG_parameter.M1_Total_Space;
 4260                             		.loc 1 2034 0
 4261 0092 AF 00 00                		movw	ax, !_CFG_parameter+24
 4262 0095 BD F0                   		movw	r8, ax
 4263 0097 BF 00 00                		movw	!_M1_Time_Position, ax
 4264                             	.L207:
2035:../DGC_A230_Functions/DGC_A230_Motor_Functions.c **** 		}
2036:../DGC_A230_Functions/DGC_A230_Motor_Functions.c **** 		M1_Last_Time_Position = M1_Time_Position;
 4265                             		.loc 1 2036 0
 4266 009a AF 00 00                		movw	ax, !_M1_Time_Position
 4267 009d BD F0                   		movw	r8, ax
 4268 009f BF 00 00                		movw	!_M1_Last_Time_Position, ax
 4269 00a2 EC F7 00 00             		br	!!.L208
 4270                             	.L206:
2037:../DGC_A230_Functions/DGC_A230_Motor_Functions.c **** 
2038:../DGC_A230_Functions/DGC_A230_Motor_Functions.c **** 	}
2039:../DGC_A230_Functions/DGC_A230_Motor_Functions.c **** 	else														// Calculate Position when stop Normal Closing
2040:../DGC_A230_Functions/DGC_A230_Motor_Functions.c **** 	{
2041:../DGC_A230_Functions/DGC_A230_Motor_Functions.c **** 		Leaf_No1_State = GATE_STATE_CLOSING_PAUSE;
 4271                             		.loc 1 2041 0
 4272 00a6 51 07                   		mov	a, #7
 4273 00a8 9F 00 00                		mov	!_Leaf_No1_State, a
2042:../DGC_A230_Functions/DGC_A230_Motor_Functions.c **** 		if (M1_Last_Time_Position > CFG_parameter.Reverse_Time_After_Edge_Sense*3)
 4274                             		.loc 1 2042 0
 4275 00ab AF 00 00                		movw	ax, !_CFG_parameter+62
 4276 00ae BD F2                   		movw	r10, ax
 4277 00b0 BD F0                   		movw	r8, ax
 4278 00b2 01                      		addw	ax, ax
 4279 00b3 BD F0                   		movw	r8, ax
 4280 00b5 06 F2                   		addw	ax, r10
 4281 00b7 BD F2                   		movw	r10, ax
 4282 00b9 AF 00 00                		movw	ax, !_M1_Last_Time_Position
 4283 00bc BD F0                   		movw	r8, ax
 4284 00be AD F2                   		movw	ax, r10
 4285 00c0 46 F0                   		cmpw	ax, r8
 4286 00c2 61 C8                   		 skc
 4287 00c4 EC E8 00 00             		 br	!!.L209
2043:../DGC_A230_Functions/DGC_A230_Motor_Functions.c **** 		{
2044:../DGC_A230_Functions/DGC_A230_Motor_Functions.c **** 			M1_Time_Position = 	M1_Last_Time_Position -	CFG_parameter.Reverse_Time_After_Edge_Sense*3;
 4288                             		.loc 1 2044 0
 4289 00c8 AF 00 00                		movw	ax, !_M1_Last_Time_Position
 4290 00cb BD F4                   		movw	r12, ax
 4291 00cd AF 00 00                		movw	ax, !_CFG_parameter+62
 4292 00d0 BD F2                   		movw	r10, ax
 4293 00d2 BD F0                   		movw	r8, ax
 4294 00d4 01                      		addw	ax, ax
 4295 00d5 BD F0                   		movw	r8, ax
 4296 00d7 06 F2                   		addw	ax, r10
 4297 00d9 BD F0                   		movw	r8, ax
 4298 00db AD F4                   		movw	ax, r12
 4299 00dd 26 F0                   		subw	ax, r8
 4300 00df BD F0                   		movw	r8, ax
 4301 00e1 BF 00 00                		movw	!_M1_Time_Position, ax
 4302 00e4 EC EF 00 00             		br	!!.L210
 4303                             	.L209:
2045:../DGC_A230_Functions/DGC_A230_Motor_Functions.c **** 		}
2046:../DGC_A230_Functions/DGC_A230_Motor_Functions.c **** 		else
2047:../DGC_A230_Functions/DGC_A230_Motor_Functions.c **** 		{
2048:../DGC_A230_Functions/DGC_A230_Motor_Functions.c **** 			Leaf_No1_State = GATE_STATE_CLOSED;
 4304                             		.loc 1 2048 0
 4305 00e8 E5 00 00                		oneb	!_Leaf_No1_State
2049:../DGC_A230_Functions/DGC_A230_Motor_Functions.c **** 			M1_Time_Position = 0;
 4306                             		.loc 1 2049 0
 4307 00eb F6                      		clrw	ax
 4308 00ec BF 00 00                		movw	!_M1_Time_Position, ax
 4309                             	.L210:
2050:../DGC_A230_Functions/DGC_A230_Motor_Functions.c **** 		}
2051:../DGC_A230_Functions/DGC_A230_Motor_Functions.c **** 		M1_Last_Time_Position = M1_Time_Position;
 4310                             		.loc 1 2051 0
 4311 00ef AF 00 00                		movw	ax, !_M1_Time_Position
 4312 00f2 BD F0                   		movw	r8, ax
 4313 00f4 BF 00 00                		movw	!_M1_Last_Time_Position, ax
 4314                             	.L208:
2052:../DGC_A230_Functions/DGC_A230_Motor_Functions.c **** 
2053:../DGC_A230_Functions/DGC_A230_Motor_Functions.c **** 	}
2054:../DGC_A230_Functions/DGC_A230_Motor_Functions.c **** 
2055:../DGC_A230_Functions/DGC_A230_Motor_Functions.c **** 	Flash_Enable = 0;
 4315                             		.loc 1 2055 0
 4316 00f7 F5 00 00                		clrb	!_Flash_Enable
2056:../DGC_A230_Functions/DGC_A230_Motor_Functions.c **** 	FLASH = 0;
 4317                             		.loc 1 2056 0
 4318 00fa C9 F0 02 FF             		movw	r8, #-254
 4319 00fe AD F0                   		movw	ax, r8
 4320 0100 BD F4                   		movw	r12, ax
 4321 0102 FA F4                   		movw	hl, r12
 4322 0104 8B                      		mov	a, [hl]
 4323 0105 9D F2                   		mov	r10, a
 4324 0107 5A F2 FD                		and	r10, #-3
 4325 010a AD F0                   		movw	ax, r8
 4326 010c EA F4                   		movw	de, r12
 4327 010e 8D F2                   		mov	a, r10
 4328 0110 99                      		mov	[de], a
2057:../DGC_A230_Functions/DGC_A230_Motor_Functions.c **** 
2058:../DGC_A230_Functions/DGC_A230_Motor_Functions.c **** 	if (CFG_parameter.Number_Of_Motors != 0x02)
 4329                             		.loc 1 2058 0
 4330 0111 8F 00 00                		mov	a, !_CFG_parameter+1
 4331 0114 9D F0                   		mov	r8, a
 4332 0116 4A F0 02                		cmp	r8, #2
 4333 0119 61 F8                   		 sknz
 4334 011b EC 23 01 00             		 br	!!.L204
2059:../DGC_A230_Functions/DGC_A230_Motor_Functions.c **** 	Courtesy_Light_After_Maneuver_Is_Complete();
 4335                             		.loc 1 2059 0
 4336 011f FC 00 00 00             		call	!!%code(_Courtesy_Light_After_Maneuver_Is_Complete)
 4337                             	.L204:
2060:../DGC_A230_Functions/DGC_A230_Motor_Functions.c **** 
2061:../DGC_A230_Functions/DGC_A230_Motor_Functions.c **** }
 4338                             		.loc 1 2061 0
 4339 0123 D7                      		ret
 4340                             	.LFE35:
 4342                             		.section	.text.__Do_Moving_Gate_After_COS_Action_Motor2_Start,"ax",@progbits
 4343                             		.global	___Do_Moving_Gate_After_COS_Action_Motor2_Start
 4345                             	___Do_Moving_Gate_After_COS_Action_Motor2_Start:
 4346                             	.LFB36:
2062:../DGC_A230_Functions/DGC_A230_Motor_Functions.c **** void __Do_Moving_Gate_After_COS_Action_Motor2_Start(uint8_t Moving_Direction, uint8_t COS_Type)
2063:../DGC_A230_Functions/DGC_A230_Motor_Functions.c **** {
 4347                             		.loc 1 2063 0
 4348                             		; start of function
 4349                             		; outgoing: 2 bytes
 4350                             		; uses ES register
 4351 0000 20 02                   		subw	sp, #2
 4352                             	.LCFI12:
2064:../DGC_A230_Functions/DGC_A230_Motor_Functions.c **** 
2065:../DGC_A230_Functions/DGC_A230_Motor_Functions.c **** 	if (CFG_parameter.Number_Of_Motors != 0x02)
 4353                             		.loc 1 2065 0
 4354 0002 8F 00 00                		mov	a, !_CFG_parameter+1
 4355 0005 9D F0                   		mov	r8, a
 4356 0007 4A F0 02                		cmp	r8, #2
 4357 000a 61 F8                   		 sknz
 4358 000c EC 1A 00 00             		 br	!!.L213
2066:../DGC_A230_Functions/DGC_A230_Motor_Functions.c **** 	Setting_Courtesy_Light_and_Flash_Light(Moving_Direction);
 4359                             		.loc 1 2066 0
 4360 0010 88 06                   		mov	a, [sp+6]
 4361 0012 9D F0                   		mov	r8, a
 4362 0014 98 00                   		mov	[sp], a
 4363 0016 FC 00 00 00             		call	!!%code(_Setting_Courtesy_Light_and_Flash_Light)
 4364                             	.L213:
2067:../DGC_A230_Functions/DGC_A230_Motor_Functions.c **** 
2068:../DGC_A230_Functions/DGC_A230_Motor_Functions.c **** 	M2_Torque_Setting = CFG_parameter.Motor_Torque_After_Edge_Sense;
 4365                             		.loc 1 2068 0
 4366 001a AF 00 00                		movw	ax, !_CFG_parameter+78
 4367 001d BD F0                   		movw	r8, ax
 4368 001f BF 00 00                		movw	!_M2_Torque_Setting, ax
2069:../DGC_A230_Functions/DGC_A230_Motor_Functions.c **** 
2070:../DGC_A230_Functions/DGC_A230_Motor_Functions.c **** 	M2_Timestamp = UNDEFINE_TIMESTAMP;
 4369                             		.loc 1 2070 0
 4370 0022 F5 00 00                		clrb	!_M2_Timestamp
2071:../DGC_A230_Functions/DGC_A230_Motor_Functions.c **** 
2072:../DGC_A230_Functions/DGC_A230_Motor_Functions.c **** 	if (Moving_Direction == OPEN_MOVING_DIRECTION)
 4371                             		.loc 1 2072 0
 4372 0025 88 06                   		mov	a, [sp+6]
 4373 0027 D1                      		cmp0	a
 4374 0028 61 E8                   		 skz
 4375 002a EC 45 00 00             		 br	!!.L214
2073:../DGC_A230_Functions/DGC_A230_Motor_Functions.c **** 	{
2074:../DGC_A230_Functions/DGC_A230_Motor_Functions.c **** 		if (COS_Type == 0x02)
 4376                             		.loc 1 2074 0
 4377 002e 88 08                   		mov	a, [sp+8]
 4378 0030 4C 02                   		cmp	a, #2
 4379 0032 61 E8                   		 skz
 4380 0034 EC 58 00 00             		 br	!!.L216
2075:../DGC_A230_Functions/DGC_A230_Motor_Functions.c **** 		{
2076:../DGC_A230_Functions/DGC_A230_Motor_Functions.c **** 			Motor2_Open_Enable();									// Enable Motor #2 to Open
 4381                             		.loc 1 2076 0
 4382 0038 FC 00 00 00             		call	!!%code(_Motor2_Open_Enable)
2077:../DGC_A230_Functions/DGC_A230_Motor_Functions.c **** 			Leaf_No2_State = GATE_STATE_OPENING;
 4383                             		.loc 1 2077 0
 4384 003c 51 02                   		mov	a, #2
 4385 003e 9F 00 00                		mov	!_Leaf_No2_State, a
 4386 0041 EC 58 00 00             		br	!!.L216
 4387                             	.L214:
2078:../DGC_A230_Functions/DGC_A230_Motor_Functions.c **** 		}
2079:../DGC_A230_Functions/DGC_A230_Motor_Functions.c **** //		Machine_State = MACHINE_STATE_COS_OPENING;
2080:../DGC_A230_Functions/DGC_A230_Motor_Functions.c **** 	}
2081:../DGC_A230_Functions/DGC_A230_Motor_Functions.c **** 	else
2082:../DGC_A230_Functions/DGC_A230_Motor_Functions.c **** 	{
2083:../DGC_A230_Functions/DGC_A230_Motor_Functions.c **** 		if (COS_Type == 0x02)
 4388                             		.loc 1 2083 0
 4389 0045 88 08                   		mov	a, [sp+8]
 4390 0047 4C 02                   		cmp	a, #2
 4391 0049 61 E8                   		 skz
 4392 004b EC 58 00 00             		 br	!!.L216
2084:../DGC_A230_Functions/DGC_A230_Motor_Functions.c **** 		{
2085:../DGC_A230_Functions/DGC_A230_Motor_Functions.c **** 			Motor2_Close_Enable();									// Enable Motor #2 Close
 4393                             		.loc 1 2085 0
 4394 004f FC 00 00 00             		call	!!%code(_Motor2_Close_Enable)
2086:../DGC_A230_Functions/DGC_A230_Motor_Functions.c **** 			Leaf_No2_State = GATE_STATE_CLOSING;
 4395                             		.loc 1 2086 0
 4396 0053 51 04                   		mov	a, #4
 4397 0055 9F 00 00                		mov	!_Leaf_No2_State, a
 4398                             	.L216:
2087:../DGC_A230_Functions/DGC_A230_Motor_Functions.c **** 		}
2088:../DGC_A230_Functions/DGC_A230_Motor_Functions.c **** 
2089:../DGC_A230_Functions/DGC_A230_Motor_Functions.c **** //		Machine_State = MACHINE_STATE_COS_CLOSING;
2090:../DGC_A230_Functions/DGC_A230_Motor_Functions.c **** 	}
2091:../DGC_A230_Functions/DGC_A230_Motor_Functions.c **** 	if(TRIG_EN != 1)
 4399                             		.loc 1 2091 0
 4400 0058 C9 F0 03 FF             		movw	r8, #-253
 4401 005c AD F0                   		movw	ax, r8
 4402 005e BD F2                   		movw	r10, ax
 4403 0060 EA F2                   		movw	de, r10
 4404 0062 89                      		mov	a, [de]
 4405 0063 5C 01                   		and	a, #1
 4406 0065 9D F0                   		mov	r8, a
 4407 0067 4A F0 01                		cmp	r8, #1
 4408 006a 61 F8                   		 sknz
 4409 006c EC 93 00 00             		 br	!!.L212
 4410                             	.LBB10:
2092:../DGC_A230_Functions/DGC_A230_Motor_Functions.c **** 	{
2093:../DGC_A230_Functions/DGC_A230_Motor_Functions.c **** 		Tick_Count = 0;
 4411                             		.loc 1 2093 0
 4412 0070 F6                      		clrw	ax
 4413 0071 BF 00 00                		movw	!_Tick_Count, ax
2094:../DGC_A230_Functions/DGC_A230_Motor_Functions.c **** 
2095:../DGC_A230_Functions/DGC_A230_Motor_Functions.c **** 		TRIG_EN = 1;													// Enable Pulse out to control Motor
 4414                             		.loc 1 2095 0
 4415 0074 C9 F0 03 FF             		movw	r8, #-253
 4416 0078 AD F0                   		movw	ax, r8
 4417 007a BD F4                   		movw	r12, ax
 4418 007c FA F4                   		movw	hl, r12
 4419 007e 8B                      		mov	a, [hl]
 4420 007f 9D F2                   		mov	r10, a
 4421 0081 6A F2 01                		or	r10, #1
 4422 0084 AD F0                   		movw	ax, r8
 4423 0086 EA F4                   		movw	de, r12
 4424 0088 8D F2                   		mov	a, r10
 4425 008a 99                      		mov	[de], a
2096:../DGC_A230_Functions/DGC_A230_Motor_Functions.c **** 		R_INTC0_Start();												// Enable Sync to control
 4426                             		.loc 1 2096 0
 4427 008b FC 00 00 00             		call	!!%code(_R_INTC0_Start)
2097:../DGC_A230_Functions/DGC_A230_Motor_Functions.c **** 		R_TAU0_Channel1_Start();										// Start Timer channel 1
 4428                             		.loc 1 2097 0
 4429 008f FC 00 00 00             		call	!!%code(_R_TAU0_Channel1_Start)
 4430                             	.L212:
 4431                             	.LBE10:
2098:../DGC_A230_Functions/DGC_A230_Motor_Functions.c **** 	}
2099:../DGC_A230_Functions/DGC_A230_Motor_Functions.c **** }
 4432                             		.loc 1 2099 0
 4433 0093 10 02                   		addw	sp, #2
 4434 0095 D7                      		ret
 4435                             	.LFE36:
 4437                             		.section	.text.__Do_Moving_Gate_After_COS_Action_Motor2_End,"ax",@progbits
 4438                             		.global	___Do_Moving_Gate_After_COS_Action_Motor2_End
 4440                             	___Do_Moving_Gate_After_COS_Action_Motor2_End:
 4441                             	.LFB37:
2100:../DGC_A230_Functions/DGC_A230_Motor_Functions.c **** void __Do_Moving_Gate_After_COS_Action_Motor2_End(uint8_t Moving_Direction, uint8_t COS_Type)
2101:../DGC_A230_Functions/DGC_A230_Motor_Functions.c **** {
 4442                             		.loc 1 2101 0
2102:../DGC_A230_Functions/DGC_A230_Motor_Functions.c **** 	while(Tick_Count < CFG_parameter.Reverse_Time_After_Edge_Sense);
 4443                             		.loc 1 2102 0
 4444 0000 00                      		nop
 4445                             	.L219:
 4446                             		.loc 1 2102 0 is_stmt 0 discriminator 1
 4447 0001 AF 00 00                		movw	ax, !_CFG_parameter+62
 4448 0004 BD F2                   		movw	r10, ax
 4449 0006 AF 00 00                		movw	ax, !_Tick_Count
 4450 0009 BD F0                   		movw	r8, ax
 4451 000b AD F2                   		movw	ax, r10
 4452 000d 46 F0                   		cmpw	ax, r8
 4453 000f 61 F3                   		 sknh
 4454 0011 EC 01 00 00             		 br	!!.L219
2103:../DGC_A230_Functions/DGC_A230_Motor_Functions.c **** 
2104:../DGC_A230_Functions/DGC_A230_Motor_Functions.c **** 	R_TAU0_Channel1_Stop();											// Stop Timer channel 1
 4455                             		.loc 1 2104 0 is_stmt 1
 4456 0015 FC 00 00 00             		call	!!%code(_R_TAU0_Channel1_Stop)
2105:../DGC_A230_Functions/DGC_A230_Motor_Functions.c **** 	R_INTC0_Stop();													// Disable Sync to control
 4457                             		.loc 1 2105 0
 4458 0019 FC 00 00 00             		call	!!%code(_R_INTC0_Stop)
2106:../DGC_A230_Functions/DGC_A230_Motor_Functions.c **** 	TRIG_EN = 0;			// Enable Pulse out to control Motor
 4459                             		.loc 1 2106 0
 4460 001d C9 F0 03 FF             		movw	r8, #-253
 4461 0021 AD F0                   		movw	ax, r8
 4462 0023 BD F4                   		movw	r12, ax
 4463 0025 FA F4                   		movw	hl, r12
 4464 0027 8B                      		mov	a, [hl]
 4465 0028 9D F2                   		mov	r10, a
 4466 002a 5A F2 FE                		and	r10, #-2
 4467 002d AD F0                   		movw	ax, r8
 4468 002f EA F4                   		movw	de, r12
 4469 0031 8D F2                   		mov	a, r10
 4470 0033 99                      		mov	[de], a
2107:../DGC_A230_Functions/DGC_A230_Motor_Functions.c **** 	M2_PWM = 1;					// Clear M2 PWM Pulse Output
 4471                             		.loc 1 2107 0
 4472 0034 C9 F0 00 FF             		movw	r8, #-256
 4473 0038 AD F0                   		movw	ax, r8
 4474 003a BD F4                   		movw	r12, ax
 4475 003c FA F4                   		movw	hl, r12
 4476 003e 8B                      		mov	a, [hl]
 4477 003f 9D F2                   		mov	r10, a
 4478 0041 6A F2 20                		or	r10, #32
 4479 0044 AD F0                   		movw	ax, r8
 4480 0046 EA F4                   		movw	de, r12
 4481 0048 8D F2                   		mov	a, r10
 4482 004a 99                      		mov	[de], a
2108:../DGC_A230_Functions/DGC_A230_Motor_Functions.c **** 
2109:../DGC_A230_Functions/DGC_A230_Motor_Functions.c **** 	Motor2_Disable();
 4483                             		.loc 1 2109 0
 4484 004b FC 00 00 00             		call	!!%code(_Motor2_Disable)
2110:../DGC_A230_Functions/DGC_A230_Motor_Functions.c **** 
2111:../DGC_A230_Functions/DGC_A230_Motor_Functions.c **** 	if (Moving_Direction == OPEN_MOVING_DIRECTION)				// Calculate Position when stop Normal Opening
 4485                             		.loc 1 2111 0
 4486 004f 88 04                   		mov	a, [sp+4]
 4487 0051 D1                      		cmp0	a
 4488 0052 61 E8                   		 skz
 4489 0054 EC B0 00 00             		 br	!!.L220
2112:../DGC_A230_Functions/DGC_A230_Motor_Functions.c **** 	{
2113:../DGC_A230_Functions/DGC_A230_Motor_Functions.c **** 
2114:../DGC_A230_Functions/DGC_A230_Motor_Functions.c **** 		if (COS_Type == 0x02)
 4490                             		.loc 1 2114 0
 4491 0058 88 06                   		mov	a, [sp+6]
 4492 005a 4C 02                   		cmp	a, #2
 4493 005c 61 E8                   		 skz
 4494 005e EC 0B 01 00             		 br	!!.L223
2115:../DGC_A230_Functions/DGC_A230_Motor_Functions.c **** 		{
2116:../DGC_A230_Functions/DGC_A230_Motor_Functions.c **** 			M2_Time_Position = 	M2_Last_Time_Position +	CFG_parameter.Reverse_Time_After_Edge_Sense*3;
 4495                             		.loc 1 2116 0
 4496 0062 AF 00 00                		movw	ax, !_CFG_parameter+62
 4497 0065 BD F2                   		movw	r10, ax
 4498 0067 BD F0                   		movw	r8, ax
 4499 0069 01                      		addw	ax, ax
 4500 006a BD F0                   		movw	r8, ax
 4501 006c 06 F2                   		addw	ax, r10
 4502 006e BD F2                   		movw	r10, ax
 4503 0070 AF 00 00                		movw	ax, !_M2_Last_Time_Position
 4504 0073 BD F0                   		movw	r8, ax
 4505 0075 AD F2                   		movw	ax, r10
 4506 0077 06 F0                   		addw	ax, r8
 4507 0079 BD F0                   		movw	r8, ax
 4508 007b BF 00 00                		movw	!_M2_Time_Position, ax
2117:../DGC_A230_Functions/DGC_A230_Motor_Functions.c **** 			Leaf_No1_State = GATE_STATE_OPENING_PAUSE;
 4509                             		.loc 1 2117 0
 4510 007e 51 06                   		mov	a, #6
 4511 0080 9F 00 00                		mov	!_Leaf_No1_State, a
2118:../DGC_A230_Functions/DGC_A230_Motor_Functions.c **** 			if (M2_Time_Position > CFG_parameter.M2_Total_Space)
 4512                             		.loc 1 2118 0
 4513 0083 AF 00 00                		movw	ax, !_CFG_parameter+26
 4514 0086 BD F2                   		movw	r10, ax
 4515 0088 AF 00 00                		movw	ax, !_M2_Time_Position
 4516 008b BD F0                   		movw	r8, ax
 4517 008d AD F2                   		movw	ax, r10
 4518 008f 46 F0                   		cmpw	ax, r8
 4519 0091 61 C8                   		 skc
 4520 0093 EC A4 00 00             		 br	!!.L222
2119:../DGC_A230_Functions/DGC_A230_Motor_Functions.c **** 			{
2120:../DGC_A230_Functions/DGC_A230_Motor_Functions.c **** 				Leaf_No1_State = GATE_STATE_OPENED;
 4521                             		.loc 1 2120 0
 4522 0097 51 03                   		mov	a, #3
 4523 0099 9F 00 00                		mov	!_Leaf_No1_State, a
2121:../DGC_A230_Functions/DGC_A230_Motor_Functions.c **** 				M2_Time_Position = CFG_parameter.M2_Total_Space;
 4524                             		.loc 1 2121 0
 4525 009c AF 00 00                		movw	ax, !_CFG_parameter+26
 4526 009f BD F0                   		movw	r8, ax
 4527 00a1 BF 00 00                		movw	!_M2_Time_Position, ax
 4528                             	.L222:
2122:../DGC_A230_Functions/DGC_A230_Motor_Functions.c **** 			}
2123:../DGC_A230_Functions/DGC_A230_Motor_Functions.c **** 			M2_Last_Time_Position = M2_Time_Position;
 4529                             		.loc 1 2123 0
 4530 00a4 AF 00 00                		movw	ax, !_M2_Time_Position
 4531 00a7 BD F0                   		movw	r8, ax
 4532 00a9 BF 00 00                		movw	!_M2_Last_Time_Position, ax
 4533 00ac EC 0B 01 00             		br	!!.L223
 4534                             	.L220:
2124:../DGC_A230_Functions/DGC_A230_Motor_Functions.c **** 		}
2125:../DGC_A230_Functions/DGC_A230_Motor_Functions.c **** 	}
2126:../DGC_A230_Functions/DGC_A230_Motor_Functions.c **** 	else														// Calculate Position when stop Normal Closing
2127:../DGC_A230_Functions/DGC_A230_Motor_Functions.c **** 	{
2128:../DGC_A230_Functions/DGC_A230_Motor_Functions.c **** 
2129:../DGC_A230_Functions/DGC_A230_Motor_Functions.c **** 		if (COS_Type == 0x02)
 4535                             		.loc 1 2129 0
 4536 00b0 88 06                   		mov	a, [sp+6]
 4537 00b2 4C 02                   		cmp	a, #2
 4538 00b4 61 E8                   		 skz
 4539 00b6 EC 0B 01 00             		 br	!!.L223
2130:../DGC_A230_Functions/DGC_A230_Motor_Functions.c **** 		{
2131:../DGC_A230_Functions/DGC_A230_Motor_Functions.c **** 			Leaf_No2_State = GATE_STATE_CLOSING_PAUSE;
 4540                             		.loc 1 2131 0
 4541 00ba 51 07                   		mov	a, #7
 4542 00bc 9F 00 00                		mov	!_Leaf_No2_State, a
2132:../DGC_A230_Functions/DGC_A230_Motor_Functions.c **** 			if (M2_Last_Time_Position > CFG_parameter.Reverse_Time_After_Edge_Sense*3)
 4543                             		.loc 1 2132 0
 4544 00bf AF 00 00                		movw	ax, !_CFG_parameter+62
 4545 00c2 BD F2                   		movw	r10, ax
 4546 00c4 BD F0                   		movw	r8, ax
 4547 00c6 01                      		addw	ax, ax
 4548 00c7 BD F0                   		movw	r8, ax
 4549 00c9 06 F2                   		addw	ax, r10
 4550 00cb BD F2                   		movw	r10, ax
 4551 00cd AF 00 00                		movw	ax, !_M2_Last_Time_Position
 4552 00d0 BD F0                   		movw	r8, ax
 4553 00d2 AD F2                   		movw	ax, r10
 4554 00d4 46 F0                   		cmpw	ax, r8
 4555 00d6 61 C8                   		 skc
 4556 00d8 EC FC 00 00             		 br	!!.L224
2133:../DGC_A230_Functions/DGC_A230_Motor_Functions.c **** 			{
2134:../DGC_A230_Functions/DGC_A230_Motor_Functions.c **** 				M2_Time_Position = 	M2_Last_Time_Position -	CFG_parameter.Reverse_Time_After_Edge_Sense*3;
 4557                             		.loc 1 2134 0
 4558 00dc AF 00 00                		movw	ax, !_M2_Last_Time_Position
 4559 00df BD F4                   		movw	r12, ax
 4560 00e1 AF 00 00                		movw	ax, !_CFG_parameter+62
 4561 00e4 BD F2                   		movw	r10, ax
 4562 00e6 BD F0                   		movw	r8, ax
 4563 00e8 01                      		addw	ax, ax
 4564 00e9 BD F0                   		movw	r8, ax
 4565 00eb 06 F2                   		addw	ax, r10
 4566 00ed BD F0                   		movw	r8, ax
 4567 00ef AD F4                   		movw	ax, r12
 4568 00f1 26 F0                   		subw	ax, r8
 4569 00f3 BD F0                   		movw	r8, ax
 4570 00f5 BF 00 00                		movw	!_M2_Time_Position, ax
 4571 00f8 EC 03 01 00             		br	!!.L225
 4572                             	.L224:
2135:../DGC_A230_Functions/DGC_A230_Motor_Functions.c **** 			}
2136:../DGC_A230_Functions/DGC_A230_Motor_Functions.c **** 			else
2137:../DGC_A230_Functions/DGC_A230_Motor_Functions.c **** 			{
2138:../DGC_A230_Functions/DGC_A230_Motor_Functions.c **** 				Leaf_No2_State = GATE_STATE_CLOSED;
 4573                             		.loc 1 2138 0
 4574 00fc E5 00 00                		oneb	!_Leaf_No2_State
2139:../DGC_A230_Functions/DGC_A230_Motor_Functions.c **** 				M2_Time_Position = 0;
 4575                             		.loc 1 2139 0
 4576 00ff F6                      		clrw	ax
 4577 0100 BF 00 00                		movw	!_M2_Time_Position, ax
 4578                             	.L225:
2140:../DGC_A230_Functions/DGC_A230_Motor_Functions.c **** 			}
2141:../DGC_A230_Functions/DGC_A230_Motor_Functions.c **** 			M2_Last_Time_Position = M2_Time_Position;
 4579                             		.loc 1 2141 0
 4580 0103 AF 00 00                		movw	ax, !_M2_Time_Position
 4581 0106 BD F0                   		movw	r8, ax
 4582 0108 BF 00 00                		movw	!_M2_Last_Time_Position, ax
 4583                             	.L223:
2142:../DGC_A230_Functions/DGC_A230_Motor_Functions.c **** 		}
2143:../DGC_A230_Functions/DGC_A230_Motor_Functions.c **** 	}
2144:../DGC_A230_Functions/DGC_A230_Motor_Functions.c **** 
2145:../DGC_A230_Functions/DGC_A230_Motor_Functions.c **** 	Flash_Enable = 0;
 4584                             		.loc 1 2145 0
 4585 010b F5 00 00                		clrb	!_Flash_Enable
2146:../DGC_A230_Functions/DGC_A230_Motor_Functions.c **** 	FLASH = 0;
 4586                             		.loc 1 2146 0
 4587 010e C9 F0 02 FF             		movw	r8, #-254
 4588 0112 AD F0                   		movw	ax, r8
 4589 0114 BD F4                   		movw	r12, ax
 4590 0116 FA F4                   		movw	hl, r12
 4591 0118 8B                      		mov	a, [hl]
 4592 0119 9D F2                   		mov	r10, a
 4593 011b 5A F2 FD                		and	r10, #-3
 4594 011e AD F0                   		movw	ax, r8
 4595 0120 EA F4                   		movw	de, r12
 4596 0122 8D F2                   		mov	a, r10
 4597 0124 99                      		mov	[de], a
2147:../DGC_A230_Functions/DGC_A230_Motor_Functions.c **** 
2148:../DGC_A230_Functions/DGC_A230_Motor_Functions.c **** 	Courtesy_Light_After_Maneuver_Is_Complete();
 4598                             		.loc 1 2148 0
 4599 0125 FC 00 00 00             		call	!!%code(_Courtesy_Light_After_Maneuver_Is_Complete)
2149:../DGC_A230_Functions/DGC_A230_Motor_Functions.c **** 
2150:../DGC_A230_Functions/DGC_A230_Motor_Functions.c **** }
 4600                             		.loc 1 2150 0
 4601 0129 D7                      		ret
 4602                             	.LFE37:
 4604                             		.section	.text.__Do_Open_Gate_Motor1,"ax",@progbits
 4605                             		.global	___Do_Open_Gate_Motor1
 4607                             	___Do_Open_Gate_Motor1:
 4608                             	.LFB38:
2151:../DGC_A230_Functions/DGC_A230_Motor_Functions.c **** //void __Do_Moving_Gate_After_COS_Action(uint8_t Moving_Direction, uint8_t COS_Type)
2152:../DGC_A230_Functions/DGC_A230_Motor_Functions.c **** //{
2153:../DGC_A230_Functions/DGC_A230_Motor_Functions.c **** //	Setting_Courtesy_Light_and_Flash_Light(Moving_Direction);
2154:../DGC_A230_Functions/DGC_A230_Motor_Functions.c **** //
2155:../DGC_A230_Functions/DGC_A230_Motor_Functions.c **** //	M1_Torque_Setting = CFG_parameter.Motor_Torque_After_Edge_Sense;
2156:../DGC_A230_Functions/DGC_A230_Motor_Functions.c **** //	M2_Torque_Setting = CFG_parameter.Motor_Torque_After_Edge_Sense;
2157:../DGC_A230_Functions/DGC_A230_Motor_Functions.c **** //
2158:../DGC_A230_Functions/DGC_A230_Motor_Functions.c **** //	M1_Timestamp = UNDEFINE_TIMESTAMP;
2159:../DGC_A230_Functions/DGC_A230_Motor_Functions.c **** //	M2_Timestamp = UNDEFINE_TIMESTAMP;
2160:../DGC_A230_Functions/DGC_A230_Motor_Functions.c **** //
2161:../DGC_A230_Functions/DGC_A230_Motor_Functions.c **** //	if (Moving_Direction == OPEN_MOVING_DIRECTION)
2162:../DGC_A230_Functions/DGC_A230_Motor_Functions.c **** //	{
2163:../DGC_A230_Functions/DGC_A230_Motor_Functions.c **** //		Motor1_Open_Enable();										// Enable Motor #1 to Open
2164:../DGC_A230_Functions/DGC_A230_Motor_Functions.c **** //		Leaf_No1_State = GATE_STATE_OPENING;
2165:../DGC_A230_Functions/DGC_A230_Motor_Functions.c **** //		if (COS_Type == 0x02)
2166:../DGC_A230_Functions/DGC_A230_Motor_Functions.c **** //		{
2167:../DGC_A230_Functions/DGC_A230_Motor_Functions.c **** //			Motor2_Open_Enable();									// Enable Motor #2 to Open
2168:../DGC_A230_Functions/DGC_A230_Motor_Functions.c **** //			Leaf_No2_State = GATE_STATE_OPENING;
2169:../DGC_A230_Functions/DGC_A230_Motor_Functions.c **** //		}
2170:../DGC_A230_Functions/DGC_A230_Motor_Functions.c **** ////		Machine_State = MACHINE_STATE_COS_OPENING;
2171:../DGC_A230_Functions/DGC_A230_Motor_Functions.c **** //	}
2172:../DGC_A230_Functions/DGC_A230_Motor_Functions.c **** //	else
2173:../DGC_A230_Functions/DGC_A230_Motor_Functions.c **** //	{
2174:../DGC_A230_Functions/DGC_A230_Motor_Functions.c **** //		Motor1_Close_Enable();										// Enable Motor #1 Close
2175:../DGC_A230_Functions/DGC_A230_Motor_Functions.c **** //		Leaf_No1_State = GATE_STATE_CLOSING;
2176:../DGC_A230_Functions/DGC_A230_Motor_Functions.c **** //		if (COS_Type == 0x02)
2177:../DGC_A230_Functions/DGC_A230_Motor_Functions.c **** //		{
2178:../DGC_A230_Functions/DGC_A230_Motor_Functions.c **** //			Motor2_Close_Enable();									// Enable Motor #2 Close
2179:../DGC_A230_Functions/DGC_A230_Motor_Functions.c **** //			Leaf_No2_State = GATE_STATE_CLOSING;
2180:../DGC_A230_Functions/DGC_A230_Motor_Functions.c **** //		}
2181:../DGC_A230_Functions/DGC_A230_Motor_Functions.c **** //
2182:../DGC_A230_Functions/DGC_A230_Motor_Functions.c **** ////		Machine_State = MACHINE_STATE_COS_CLOSING;
2183:../DGC_A230_Functions/DGC_A230_Motor_Functions.c **** //	}
2184:../DGC_A230_Functions/DGC_A230_Motor_Functions.c **** //	Tick_Count = 0;
2185:../DGC_A230_Functions/DGC_A230_Motor_Functions.c **** //
2186:../DGC_A230_Functions/DGC_A230_Motor_Functions.c **** //	TRIG_EN = 1;													// Enable Pulse out to control Motor
2187:../DGC_A230_Functions/DGC_A230_Motor_Functions.c **** //	R_INTC0_Start();												// Enable Sync to control
2188:../DGC_A230_Functions/DGC_A230_Motor_Functions.c **** //	R_TAU0_Channel1_Start();										// Start Timer channel 1
2189:../DGC_A230_Functions/DGC_A230_Motor_Functions.c **** //
2190:../DGC_A230_Functions/DGC_A230_Motor_Functions.c **** //	while(Tick_Count < CFG_parameter.Reverse_Time_After_Edge_Sense);
2191:../DGC_A230_Functions/DGC_A230_Motor_Functions.c **** //
2192:../DGC_A230_Functions/DGC_A230_Motor_Functions.c **** //	R_TAU0_Channel1_Stop();											// Stop Timer channel 1
2193:../DGC_A230_Functions/DGC_A230_Motor_Functions.c **** //	R_INTC0_Stop();													// Disable Sync to control
2194:../DGC_A230_Functions/DGC_A230_Motor_Functions.c **** //	TRIG_EN = 0;			// Enable Pulse out to control Motor
2195:../DGC_A230_Functions/DGC_A230_Motor_Functions.c **** //	M1_PWM = 1;					// Clear Trigger Pulse Output
2196:../DGC_A230_Functions/DGC_A230_Motor_Functions.c **** //	M2_PWM = 1;					// Clear M2 PWM Pulse Output
2197:../DGC_A230_Functions/DGC_A230_Motor_Functions.c **** //
2198:../DGC_A230_Functions/DGC_A230_Motor_Functions.c **** //	Motor1_Disable();
2199:../DGC_A230_Functions/DGC_A230_Motor_Functions.c **** //	Motor2_Disable();
2200:../DGC_A230_Functions/DGC_A230_Motor_Functions.c **** //
2201:../DGC_A230_Functions/DGC_A230_Motor_Functions.c **** //	if (Moving_Direction == OPEN_MOVING_DIRECTION)				// Calculate Position when stop Normal Opening
2202:../DGC_A230_Functions/DGC_A230_Motor_Functions.c **** //	{
2203:../DGC_A230_Functions/DGC_A230_Motor_Functions.c **** //		M1_Time_Position = 	M1_Last_Time_Position +	CFG_parameter.Reverse_Time_After_Edge_Sense*3;
2204:../DGC_A230_Functions/DGC_A230_Motor_Functions.c **** //		Leaf_No1_State = GATE_STATE_OPENING_PAUSE;
2205:../DGC_A230_Functions/DGC_A230_Motor_Functions.c **** //		if (M1_Time_Position > CFG_parameter.M1_Total_Space)
2206:../DGC_A230_Functions/DGC_A230_Motor_Functions.c **** //		{
2207:../DGC_A230_Functions/DGC_A230_Motor_Functions.c **** //			Leaf_No1_State = GATE_STATE_OPENED;
2208:../DGC_A230_Functions/DGC_A230_Motor_Functions.c **** //			M1_Time_Position = CFG_parameter.M1_Total_Space;
2209:../DGC_A230_Functions/DGC_A230_Motor_Functions.c **** //		}
2210:../DGC_A230_Functions/DGC_A230_Motor_Functions.c **** //		M1_Last_Time_Position = M1_Time_Position;
2211:../DGC_A230_Functions/DGC_A230_Motor_Functions.c **** //
2212:../DGC_A230_Functions/DGC_A230_Motor_Functions.c **** //		if (COS_Type == 0x02)
2213:../DGC_A230_Functions/DGC_A230_Motor_Functions.c **** //		{
2214:../DGC_A230_Functions/DGC_A230_Motor_Functions.c **** //			M2_Time_Position = 	M2_Last_Time_Position +	CFG_parameter.Reverse_Time_After_Edge_Sense*3;
2215:../DGC_A230_Functions/DGC_A230_Motor_Functions.c **** //			Leaf_No1_State = GATE_STATE_OPENING_PAUSE;
2216:../DGC_A230_Functions/DGC_A230_Motor_Functions.c **** //			if (M2_Time_Position > CFG_parameter.M2_Total_Space)
2217:../DGC_A230_Functions/DGC_A230_Motor_Functions.c **** //			{
2218:../DGC_A230_Functions/DGC_A230_Motor_Functions.c **** //				Leaf_No1_State = GATE_STATE_OPENED;
2219:../DGC_A230_Functions/DGC_A230_Motor_Functions.c **** //				M2_Time_Position = CFG_parameter.M2_Total_Space;
2220:../DGC_A230_Functions/DGC_A230_Motor_Functions.c **** //			}
2221:../DGC_A230_Functions/DGC_A230_Motor_Functions.c **** //			M2_Last_Time_Position = M2_Time_Position;
2222:../DGC_A230_Functions/DGC_A230_Motor_Functions.c **** //		}
2223:../DGC_A230_Functions/DGC_A230_Motor_Functions.c **** //	}
2224:../DGC_A230_Functions/DGC_A230_Motor_Functions.c **** //	else														// Calculate Position when stop Normal Closing
2225:../DGC_A230_Functions/DGC_A230_Motor_Functions.c **** //	{
2226:../DGC_A230_Functions/DGC_A230_Motor_Functions.c **** //		Leaf_No1_State = GATE_STATE_CLOSING_PAUSE;
2227:../DGC_A230_Functions/DGC_A230_Motor_Functions.c **** //		if (M1_Last_Time_Position > CFG_parameter.Reverse_Time_After_Edge_Sense*3)
2228:../DGC_A230_Functions/DGC_A230_Motor_Functions.c **** //		{
2229:../DGC_A230_Functions/DGC_A230_Motor_Functions.c **** //			M1_Time_Position = 	M1_Last_Time_Position -	CFG_parameter.Reverse_Time_After_Edge_Sense*3;
2230:../DGC_A230_Functions/DGC_A230_Motor_Functions.c **** //		}
2231:../DGC_A230_Functions/DGC_A230_Motor_Functions.c **** //		else
2232:../DGC_A230_Functions/DGC_A230_Motor_Functions.c **** //		{
2233:../DGC_A230_Functions/DGC_A230_Motor_Functions.c **** //			Leaf_No1_State = GATE_STATE_CLOSED;
2234:../DGC_A230_Functions/DGC_A230_Motor_Functions.c **** //			M1_Time_Position = 0;
2235:../DGC_A230_Functions/DGC_A230_Motor_Functions.c **** //		}
2236:../DGC_A230_Functions/DGC_A230_Motor_Functions.c **** //		M1_Last_Time_Position = M1_Time_Position;
2237:../DGC_A230_Functions/DGC_A230_Motor_Functions.c **** //
2238:../DGC_A230_Functions/DGC_A230_Motor_Functions.c **** //		if (COS_Type == 0x02)
2239:../DGC_A230_Functions/DGC_A230_Motor_Functions.c **** //		{
2240:../DGC_A230_Functions/DGC_A230_Motor_Functions.c **** //			Leaf_No2_State = GATE_STATE_CLOSING_PAUSE;
2241:../DGC_A230_Functions/DGC_A230_Motor_Functions.c **** //			if (M2_Last_Time_Position > CFG_parameter.Reverse_Time_After_Edge_Sense*3)
2242:../DGC_A230_Functions/DGC_A230_Motor_Functions.c **** //			{
2243:../DGC_A230_Functions/DGC_A230_Motor_Functions.c **** //				M2_Time_Position = 	M2_Last_Time_Position -	CFG_parameter.Reverse_Time_After_Edge_Sense*3;
2244:../DGC_A230_Functions/DGC_A230_Motor_Functions.c **** //			}
2245:../DGC_A230_Functions/DGC_A230_Motor_Functions.c **** //			else
2246:../DGC_A230_Functions/DGC_A230_Motor_Functions.c **** //			{
2247:../DGC_A230_Functions/DGC_A230_Motor_Functions.c **** //				Leaf_No2_State = GATE_STATE_CLOSED;
2248:../DGC_A230_Functions/DGC_A230_Motor_Functions.c **** //				M2_Time_Position = 0;
2249:../DGC_A230_Functions/DGC_A230_Motor_Functions.c **** //			}
2250:../DGC_A230_Functions/DGC_A230_Motor_Functions.c **** //			M2_Last_Time_Position = M2_Time_Position;
2251:../DGC_A230_Functions/DGC_A230_Motor_Functions.c **** //		}
2252:../DGC_A230_Functions/DGC_A230_Motor_Functions.c **** //	}
2253:../DGC_A230_Functions/DGC_A230_Motor_Functions.c **** //
2254:../DGC_A230_Functions/DGC_A230_Motor_Functions.c **** //	Flash_Enable = 0;
2255:../DGC_A230_Functions/DGC_A230_Motor_Functions.c **** //	FLASH = 0;
2256:../DGC_A230_Functions/DGC_A230_Motor_Functions.c **** //
2257:../DGC_A230_Functions/DGC_A230_Motor_Functions.c **** //	Courtesy_Light_After_Maneuver_Is_Complete();
2258:../DGC_A230_Functions/DGC_A230_Motor_Functions.c **** //
2259:../DGC_A230_Functions/DGC_A230_Motor_Functions.c **** //}
2260:../DGC_A230_Functions/DGC_A230_Motor_Functions.c **** 
2261:../DGC_A230_Functions/DGC_A230_Motor_Functions.c **** void __Do_Open_Gate_Motor1 (void)
2262:../DGC_A230_Functions/DGC_A230_Motor_Functions.c **** {
 4609                             		.loc 1 2262 0
 4610                             		; start of function
 4611                             		; outgoing: 2 bytes
 4612                             		; uses ES register
 4613 0000 20 02                   		subw	sp, #2
 4614                             	.LCFI13:
2263:../DGC_A230_Functions/DGC_A230_Motor_Functions.c **** 
2264:../DGC_A230_Functions/DGC_A230_Motor_Functions.c **** //	Prepare_To_Moving(OPEN_MOVING_DIRECTION);		// Prepare to moving
2265:../DGC_A230_Functions/DGC_A230_Motor_Functions.c **** 
2266:../DGC_A230_Functions/DGC_A230_Motor_Functions.c **** 	Prepare_To_Moving_Motor1(OPEN_MOVING_DIRECTION);		// Prepare to moving
 4615                             		.loc 1 2266 0
 4616 0002 F1                      		clrb	a
 4617 0003 98 00                   		mov	[sp], a
 4618 0005 FC 00 00 00             		call	!!%code(_Prepare_To_Moving_Motor1)
2267:../DGC_A230_Functions/DGC_A230_Motor_Functions.c **** 
2268:../DGC_A230_Functions/DGC_A230_Motor_Functions.c **** 	if(TRIG_EN != 1)
 4619                             		.loc 1 2268 0
 4620 0009 C9 F0 03 FF             		movw	r8, #-253
 4621 000d AD F0                   		movw	ax, r8
 4622 000f BD F2                   		movw	r10, ax
 4623 0011 EA F2                   		movw	de, r10
 4624 0013 89                      		mov	a, [de]
 4625 0014 5C 01                   		and	a, #1
 4626 0016 9D F0                   		mov	r8, a
 4627 0018 4A F0 01                		cmp	r8, #1
 4628 001b 61 F8                   		 sknz
 4629 001d EC 3C 00 00             		 br	!!.L227
 4630                             	.LBB11:
2269:../DGC_A230_Functions/DGC_A230_Motor_Functions.c **** 	{
2270:../DGC_A230_Functions/DGC_A230_Motor_Functions.c **** 		TRIG_EN = 1;			// Enable Pulse out to control Motor
 4631                             		.loc 1 2270 0
 4632 0021 C9 F0 03 FF             		movw	r8, #-253
 4633 0025 AD F0                   		movw	ax, r8
 4634 0027 BD F4                   		movw	r12, ax
 4635 0029 FA F4                   		movw	hl, r12
 4636 002b 8B                      		mov	a, [hl]
 4637 002c 9D F2                   		mov	r10, a
 4638 002e 6A F2 01                		or	r10, #1
 4639 0031 AD F0                   		movw	ax, r8
 4640 0033 EA F4                   		movw	de, r12
 4641 0035 8D F2                   		mov	a, r10
 4642 0037 99                      		mov	[de], a
2271:../DGC_A230_Functions/DGC_A230_Motor_Functions.c **** 		R_INTC0_Start();
 4643                             		.loc 1 2271 0
 4644 0038 FC 00 00 00             		call	!!%code(_R_INTC0_Start)
 4645                             	.L227:
 4646                             	.LBE11:
2272:../DGC_A230_Functions/DGC_A230_Motor_Functions.c **** 	}
2273:../DGC_A230_Functions/DGC_A230_Motor_Functions.c **** 
2274:../DGC_A230_Functions/DGC_A230_Motor_Functions.c **** 	if (Leaf_No1_State != GATE_STATE_OPENED)
 4647                             		.loc 1 2274 0
 4648 003c 8F 00 00                		mov	a, !_Leaf_No1_State
 4649 003f 9D F0                   		mov	r8, a
 4650 0041 4A F0 03                		cmp	r8, #3
 4651 0044 61 F8                   		 sknz
 4652 0046 EC 53 00 00             		 br	!!.L228
2275:../DGC_A230_Functions/DGC_A230_Motor_Functions.c **** 	{
2276:../DGC_A230_Functions/DGC_A230_Motor_Functions.c **** 		Motor1_Open_Enable();										// Enable Motor #1 to Open
 4653                             		.loc 1 2276 0
 4654 004a FC 00 00 00             		call	!!%code(_Motor1_Open_Enable)
2277:../DGC_A230_Functions/DGC_A230_Motor_Functions.c **** 		Leaf_No1_State = GATE_STATE_OPENING;
 4655                             		.loc 1 2277 0
 4656 004e 51 02                   		mov	a, #2
 4657 0050 9F 00 00                		mov	!_Leaf_No1_State, a
 4658                             	.L228:
2278:../DGC_A230_Functions/DGC_A230_Motor_Functions.c **** 	}
2279:../DGC_A230_Functions/DGC_A230_Motor_Functions.c **** 
2280:../DGC_A230_Functions/DGC_A230_Motor_Functions.c **** 	M1_Tick_Count = 0;
 4659                             		.loc 1 2280 0
 4660 0053 F6                      		clrw	ax
 4661 0054 BF 00 00                		movw	!_M1_Tick_Count, ax
2281:../DGC_A230_Functions/DGC_A230_Motor_Functions.c **** 
2282:../DGC_A230_Functions/DGC_A230_Motor_Functions.c **** 	M1_Position_Count = 0;
 4662                             		.loc 1 2282 0
 4663 0057 F6                      		clrw	ax
 4664 0058 BF 00 00                		movw	!_M1_Position_Count, ax
2283:../DGC_A230_Functions/DGC_A230_Motor_Functions.c **** 
2284:../DGC_A230_Functions/DGC_A230_Motor_Functions.c **** 	if(Machine_State != MACHINE_STATE_NORMAL_OPENING)
 4665                             		.loc 1 2284 0
 4666 005b 8F 00 00                		mov	a, !_Machine_State
 4667 005e 9D F0                   		mov	r8, a
 4668 0060 4A F0 01                		cmp	r8, #1
 4669 0063 61 F8                   		 sknz
 4670 0065 EC 74 00 00             		 br	!!.L229
 4671                             	.LBB12:
2285:../DGC_A230_Functions/DGC_A230_Motor_Functions.c **** 	{
2286:../DGC_A230_Functions/DGC_A230_Motor_Functions.c **** 		Tick_Count = 0;								// Reset Tick count
 4672                             		.loc 1 2286 0
 4673 0069 F6                      		clrw	ax
 4674 006a BF 00 00                		movw	!_Tick_Count, ax
2287:../DGC_A230_Functions/DGC_A230_Motor_Functions.c **** 
2288:../DGC_A230_Functions/DGC_A230_Motor_Functions.c **** 		Machine_State = MACHINE_STATE_NORMAL_OPENING;
 4675                             		.loc 1 2288 0
 4676 006d E5 00 00                		oneb	!_Machine_State
2289:../DGC_A230_Functions/DGC_A230_Motor_Functions.c **** 
2290:../DGC_A230_Functions/DGC_A230_Motor_Functions.c **** 		R_TAU0_Channel1_Start();					// Start Timer channel 1
 4677                             		.loc 1 2290 0
 4678 0070 FC 00 00 00             		call	!!%code(_R_TAU0_Channel1_Start)
 4679                             	.L229:
 4680                             	.LBE12:
2291:../DGC_A230_Functions/DGC_A230_Motor_Functions.c **** 	}
2292:../DGC_A230_Functions/DGC_A230_Motor_Functions.c **** 
2293:../DGC_A230_Functions/DGC_A230_Motor_Functions.c **** 	if (CFG_parameter.Number_Of_Motors == 0x01)
 4681                             		.loc 1 2293 0
 4682 0074 8F 00 00                		mov	a, !_CFG_parameter+1
 4683 0077 9D F0                   		mov	r8, a
 4684 0079 4A F0 01                		cmp	r8, #1
 4685 007c 61 E8                   		 skz
 4686 007e EC 89 00 00             		 br	!!.L226
2294:../DGC_A230_Functions/DGC_A230_Motor_Functions.c **** 	Setting_Courtesy_Light_and_Flash_Light(OPEN_MOVING_DIRECTION);
 4687                             		.loc 1 2294 0
 4688 0082 F1                      		clrb	a
 4689 0083 98 00                   		mov	[sp], a
 4690 0085 FC 00 00 00             		call	!!%code(_Setting_Courtesy_Light_and_Flash_Light)
 4691                             	.L226:
2295:../DGC_A230_Functions/DGC_A230_Motor_Functions.c **** }
 4692                             		.loc 1 2295 0
 4693 0089 10 02                   		addw	sp, #2
 4694 008b D7                      		ret
 4695                             	.LFE38:
 4697                             		.section	.text.__Do_Open_Gate_Motor2,"ax",@progbits
 4698                             		.global	___Do_Open_Gate_Motor2
 4700                             	___Do_Open_Gate_Motor2:
 4701                             	.LFB39:
2296:../DGC_A230_Functions/DGC_A230_Motor_Functions.c **** void __Do_Open_Gate_Motor2 (void)
2297:../DGC_A230_Functions/DGC_A230_Motor_Functions.c **** {
 4702                             		.loc 1 2297 0
 4703                             		; start of function
 4704                             		; outgoing: 2 bytes
 4705                             		; uses ES register
 4706 0000 20 02                   		subw	sp, #2
 4707                             	.LCFI14:
2298:../DGC_A230_Functions/DGC_A230_Motor_Functions.c **** //		Prepare_To_Moving(OPEN_MOVING_DIRECTION);		// Prepare to moving
2299:../DGC_A230_Functions/DGC_A230_Motor_Functions.c **** 	Prepare_To_Moving_Motor2(OPEN_MOVING_DIRECTION);		// Prepare to moving
 4708                             		.loc 1 2299 0
 4709 0002 F1                      		clrb	a
 4710 0003 98 00                   		mov	[sp], a
 4711 0005 FC 00 00 00             		call	!!%code(_Prepare_To_Moving_Motor2)
2300:../DGC_A230_Functions/DGC_A230_Motor_Functions.c **** 
2301:../DGC_A230_Functions/DGC_A230_Motor_Functions.c **** 	if(TRIG_EN != 1)
 4712                             		.loc 1 2301 0
 4713 0009 C9 F0 03 FF             		movw	r8, #-253
 4714 000d AD F0                   		movw	ax, r8
 4715 000f BD F2                   		movw	r10, ax
 4716 0011 EA F2                   		movw	de, r10
 4717 0013 89                      		mov	a, [de]
 4718 0014 5C 01                   		and	a, #1
 4719 0016 9D F0                   		mov	r8, a
 4720 0018 4A F0 01                		cmp	r8, #1
 4721 001b 61 F8                   		 sknz
 4722 001d EC 3C 00 00             		 br	!!.L232
 4723                             	.LBB13:
2302:../DGC_A230_Functions/DGC_A230_Motor_Functions.c **** 	{
2303:../DGC_A230_Functions/DGC_A230_Motor_Functions.c **** 		TRIG_EN = 1;			// Enable Pulse out to control Motor
 4724                             		.loc 1 2303 0
 4725 0021 C9 F0 03 FF             		movw	r8, #-253
 4726 0025 AD F0                   		movw	ax, r8
 4727 0027 BD F4                   		movw	r12, ax
 4728 0029 FA F4                   		movw	hl, r12
 4729 002b 8B                      		mov	a, [hl]
 4730 002c 9D F2                   		mov	r10, a
 4731 002e 6A F2 01                		or	r10, #1
 4732 0031 AD F0                   		movw	ax, r8
 4733 0033 EA F4                   		movw	de, r12
 4734 0035 8D F2                   		mov	a, r10
 4735 0037 99                      		mov	[de], a
2304:../DGC_A230_Functions/DGC_A230_Motor_Functions.c **** 		R_INTC0_Start();
 4736                             		.loc 1 2304 0
 4737 0038 FC 00 00 00             		call	!!%code(_R_INTC0_Start)
 4738                             	.L232:
 4739                             	.LBE13:
2305:../DGC_A230_Functions/DGC_A230_Motor_Functions.c **** 	}
2306:../DGC_A230_Functions/DGC_A230_Motor_Functions.c **** 
2307:../DGC_A230_Functions/DGC_A230_Motor_Functions.c **** 	M2_Tick_Count = 0;
 4740                             		.loc 1 2307 0
 4741 003c F6                      		clrw	ax
 4742 003d BF 00 00                		movw	!_M2_Tick_Count, ax
2308:../DGC_A230_Functions/DGC_A230_Motor_Functions.c **** 
2309:../DGC_A230_Functions/DGC_A230_Motor_Functions.c **** 	M2_Position_Count = 0;
 4743                             		.loc 1 2309 0
 4744 0040 F6                      		clrw	ax
 4745 0041 BF 00 00                		movw	!_M2_Position_Count, ax
2310:../DGC_A230_Functions/DGC_A230_Motor_Functions.c **** 
2311:../DGC_A230_Functions/DGC_A230_Motor_Functions.c **** 	if(Machine_State != MACHINE_STATE_NORMAL_OPENING)
 4746                             		.loc 1 2311 0
 4747 0044 8F 00 00                		mov	a, !_Machine_State
 4748 0047 9D F0                   		mov	r8, a
 4749 0049 4A F0 01                		cmp	r8, #1
 4750 004c 61 F8                   		 sknz
 4751 004e EC 5D 00 00             		 br	!!.L233
 4752                             	.LBB14:
2312:../DGC_A230_Functions/DGC_A230_Motor_Functions.c **** 	{
2313:../DGC_A230_Functions/DGC_A230_Motor_Functions.c **** 		Tick_Count = 0;								// Reset Tick count
 4753                             		.loc 1 2313 0
 4754 0052 F6                      		clrw	ax
 4755 0053 BF 00 00                		movw	!_Tick_Count, ax
2314:../DGC_A230_Functions/DGC_A230_Motor_Functions.c **** 
2315:../DGC_A230_Functions/DGC_A230_Motor_Functions.c **** 		Machine_State = MACHINE_STATE_NORMAL_OPENING;
 4756                             		.loc 1 2315 0
 4757 0056 E5 00 00                		oneb	!_Machine_State
2316:../DGC_A230_Functions/DGC_A230_Motor_Functions.c **** 
2317:../DGC_A230_Functions/DGC_A230_Motor_Functions.c **** 		R_TAU0_Channel1_Start();					// Start Timer channel 1
 4758                             		.loc 1 2317 0
 4759 0059 FC 00 00 00             		call	!!%code(_R_TAU0_Channel1_Start)
 4760                             	.L233:
 4761                             	.LBE14:
2318:../DGC_A230_Functions/DGC_A230_Motor_Functions.c **** 	}
2319:../DGC_A230_Functions/DGC_A230_Motor_Functions.c **** 
2320:../DGC_A230_Functions/DGC_A230_Motor_Functions.c **** 	Setting_Courtesy_Light_and_Flash_Light(OPEN_MOVING_DIRECTION);
 4762                             		.loc 1 2320 0
 4763 005d F1                      		clrb	a
 4764 005e 98 00                   		mov	[sp], a
 4765 0060 FC 00 00 00             		call	!!%code(_Setting_Courtesy_Light_and_Flash_Light)
2321:../DGC_A230_Functions/DGC_A230_Motor_Functions.c **** 
2322:../DGC_A230_Functions/DGC_A230_Motor_Functions.c **** }
 4766                             		.loc 1 2322 0
 4767 0064 10 02                   		addw	sp, #2
 4768 0066 D7                      		ret
 4769                             	.LFE39:
 4771                             		.section	.text.__Do_Close_Gate_Motor1,"ax",@progbits
 4772                             		.global	___Do_Close_Gate_Motor1
 4774                             	___Do_Close_Gate_Motor1:
 4775                             	.LFB40:
2323:../DGC_A230_Functions/DGC_A230_Motor_Functions.c **** //void __Do_Open_Gate (void)
2324:../DGC_A230_Functions/DGC_A230_Motor_Functions.c **** //{
2325:../DGC_A230_Functions/DGC_A230_Motor_Functions.c **** //	Prepare_To_Moving(OPEN_MOVING_DIRECTION);		// Prepare to moving
2326:../DGC_A230_Functions/DGC_A230_Motor_Functions.c **** //
2327:../DGC_A230_Functions/DGC_A230_Motor_Functions.c **** //	TRIG_EN = 1;			// Enable Pulse out to control Motor
2328:../DGC_A230_Functions/DGC_A230_Motor_Functions.c **** //	R_INTC0_Start();												// Enable Sync to control, Motor 1 start opening
2329:../DGC_A230_Functions/DGC_A230_Motor_Functions.c **** 
2330:../DGC_A230_Functions/DGC_A230_Motor_Functions.c **** //	__Do_Open_Gate_Motor1();
2331:../DGC_A230_Functions/DGC_A230_Motor_Functions.c **** //	__Do_Open_Gate_Motor2();
2332:../DGC_A230_Functions/DGC_A230_Motor_Functions.c **** 
2333:../DGC_A230_Functions/DGC_A230_Motor_Functions.c **** //	Tick_Count = 0;								// Reset Tick count
2334:../DGC_A230_Functions/DGC_A230_Motor_Functions.c **** //
2335:../DGC_A230_Functions/DGC_A230_Motor_Functions.c **** //	Machine_State = MACHINE_STATE_NORMAL_OPENING;
2336:../DGC_A230_Functions/DGC_A230_Motor_Functions.c **** //
2337:../DGC_A230_Functions/DGC_A230_Motor_Functions.c **** //	R_TAU0_Channel1_Start();					// Start Timer channel 1
2338:../DGC_A230_Functions/DGC_A230_Motor_Functions.c **** //}
2339:../DGC_A230_Functions/DGC_A230_Motor_Functions.c **** 
2340:../DGC_A230_Functions/DGC_A230_Motor_Functions.c **** 
2341:../DGC_A230_Functions/DGC_A230_Motor_Functions.c **** void __Do_Close_Gate_Motor1 (void)
2342:../DGC_A230_Functions/DGC_A230_Motor_Functions.c **** {
 4776                             		.loc 1 2342 0
 4777                             		; start of function
 4778                             		; outgoing: 2 bytes
 4779                             		; uses ES register
 4780 0000 20 02                   		subw	sp, #2
 4781                             	.LCFI15:
2343:../DGC_A230_Functions/DGC_A230_Motor_Functions.c **** 
2344:../DGC_A230_Functions/DGC_A230_Motor_Functions.c **** 	Prepare_To_Moving_Motor1(CLOSE_MOVING_DIRECTION);		// Prepare to moving
 4782                             		.loc 1 2344 0
 4783 0002 E1                      		oneb	a
 4784 0003 98 00                   		mov	[sp], a
 4785 0005 FC 00 00 00             		call	!!%code(_Prepare_To_Moving_Motor1)
2345:../DGC_A230_Functions/DGC_A230_Motor_Functions.c **** 
2346:../DGC_A230_Functions/DGC_A230_Motor_Functions.c **** 	if(TRIG_EN != 1)
 4786                             		.loc 1 2346 0
 4787 0009 C9 F0 03 FF             		movw	r8, #-253
 4788 000d AD F0                   		movw	ax, r8
 4789 000f BD F2                   		movw	r10, ax
 4790 0011 EA F2                   		movw	de, r10
 4791 0013 89                      		mov	a, [de]
 4792 0014 5C 01                   		and	a, #1
 4793 0016 9D F0                   		mov	r8, a
 4794 0018 4A F0 01                		cmp	r8, #1
 4795 001b 61 F8                   		 sknz
 4796 001d EC 3C 00 00             		 br	!!.L235
 4797                             	.LBB15:
2347:../DGC_A230_Functions/DGC_A230_Motor_Functions.c **** 	{
2348:../DGC_A230_Functions/DGC_A230_Motor_Functions.c **** 		TRIG_EN = 1;			// Enable Pulse out to control Motor
 4798                             		.loc 1 2348 0
 4799 0021 C9 F0 03 FF             		movw	r8, #-253
 4800 0025 AD F0                   		movw	ax, r8
 4801 0027 BD F4                   		movw	r12, ax
 4802 0029 FA F4                   		movw	hl, r12
 4803 002b 8B                      		mov	a, [hl]
 4804 002c 9D F2                   		mov	r10, a
 4805 002e 6A F2 01                		or	r10, #1
 4806 0031 AD F0                   		movw	ax, r8
 4807 0033 EA F4                   		movw	de, r12
 4808 0035 8D F2                   		mov	a, r10
 4809 0037 99                      		mov	[de], a
2349:../DGC_A230_Functions/DGC_A230_Motor_Functions.c **** 		R_INTC0_Start();
 4810                             		.loc 1 2349 0
 4811 0038 FC 00 00 00             		call	!!%code(_R_INTC0_Start)
 4812                             	.L235:
 4813                             	.LBE15:
2350:../DGC_A230_Functions/DGC_A230_Motor_Functions.c **** 	}
2351:../DGC_A230_Functions/DGC_A230_Motor_Functions.c **** 
2352:../DGC_A230_Functions/DGC_A230_Motor_Functions.c **** 	if (CFG_parameter.Number_Of_Motors == 0x01)
 4814                             		.loc 1 2352 0
 4815 003c 8F 00 00                		mov	a, !_CFG_parameter+1
 4816 003f 9D F0                   		mov	r8, a
 4817 0041 4A F0 01                		cmp	r8, #1
 4818 0044 61 E8                   		 skz
 4819 0046 EC 61 00 00             		 br	!!.L236
2353:../DGC_A230_Functions/DGC_A230_Motor_Functions.c **** 	{
2354:../DGC_A230_Functions/DGC_A230_Motor_Functions.c **** 		if (Leaf_No1_State != GATE_STATE_CLOSED)
 4820                             		.loc 1 2354 0
 4821 004a 8F 00 00                		mov	a, !_Leaf_No1_State
 4822 004d 9D F0                   		mov	r8, a
 4823 004f 4A F0 01                		cmp	r8, #1
 4824 0052 61 F8                   		 sknz
 4825 0054 EC 61 00 00             		 br	!!.L236
2355:../DGC_A230_Functions/DGC_A230_Motor_Functions.c **** 		{
2356:../DGC_A230_Functions/DGC_A230_Motor_Functions.c **** 			Motor1_Close_Enable();										// Enable Motor #1 to Open
 4826                             		.loc 1 2356 0
 4827 0058 FC 00 00 00             		call	!!%code(_Motor1_Close_Enable)
2357:../DGC_A230_Functions/DGC_A230_Motor_Functions.c **** 			Leaf_No1_State = GATE_STATE_CLOSING;
 4828                             		.loc 1 2357 0
 4829 005c 51 04                   		mov	a, #4
 4830 005e 9F 00 00                		mov	!_Leaf_No1_State, a
 4831                             	.L236:
2358:../DGC_A230_Functions/DGC_A230_Motor_Functions.c **** 		}
2359:../DGC_A230_Functions/DGC_A230_Motor_Functions.c **** 	}
2360:../DGC_A230_Functions/DGC_A230_Motor_Functions.c **** 
2361:../DGC_A230_Functions/DGC_A230_Motor_Functions.c **** 	M1_Tick_Count = 0;
 4832                             		.loc 1 2361 0
 4833 0061 F6                      		clrw	ax
 4834 0062 BF 00 00                		movw	!_M1_Tick_Count, ax
2362:../DGC_A230_Functions/DGC_A230_Motor_Functions.c **** 	M1_Position_Count = 0;
 4835                             		.loc 1 2362 0
 4836 0065 F6                      		clrw	ax
 4837 0066 BF 00 00                		movw	!_M1_Position_Count, ax
2363:../DGC_A230_Functions/DGC_A230_Motor_Functions.c **** 
2364:../DGC_A230_Functions/DGC_A230_Motor_Functions.c **** 	if(Machine_State != MACHINE_STATE_NORMAL_CLOSING)
 4838                             		.loc 1 2364 0
 4839 0069 8F 00 00                		mov	a, !_Machine_State
 4840 006c 9D F0                   		mov	r8, a
 4841 006e 4A F0 02                		cmp	r8, #2
 4842 0071 61 F8                   		 sknz
 4843 0073 EC 84 00 00             		 br	!!.L234
 4844                             	.LBB16:
2365:../DGC_A230_Functions/DGC_A230_Motor_Functions.c **** 	{
2366:../DGC_A230_Functions/DGC_A230_Motor_Functions.c **** 		Tick_Count = 0;								// Reset Tick count
 4845                             		.loc 1 2366 0
 4846 0077 F6                      		clrw	ax
 4847 0078 BF 00 00                		movw	!_Tick_Count, ax
2367:../DGC_A230_Functions/DGC_A230_Motor_Functions.c **** 		Machine_State = MACHINE_STATE_NORMAL_CLOSING;
 4848                             		.loc 1 2367 0
 4849 007b 51 02                   		mov	a, #2
 4850 007d 9F 00 00                		mov	!_Machine_State, a
2368:../DGC_A230_Functions/DGC_A230_Motor_Functions.c **** 
2369:../DGC_A230_Functions/DGC_A230_Motor_Functions.c **** 		R_TAU0_Channel1_Start();					// Start Timer channel 1
 4851                             		.loc 1 2369 0
 4852 0080 FC 00 00 00             		call	!!%code(_R_TAU0_Channel1_Start)
 4853                             	.L234:
 4854                             	.LBE16:
2370:../DGC_A230_Functions/DGC_A230_Motor_Functions.c **** 	}
2371:../DGC_A230_Functions/DGC_A230_Motor_Functions.c **** }
 4855                             		.loc 1 2371 0
 4856 0084 10 02                   		addw	sp, #2
 4857 0086 D7                      		ret
 4858                             	.LFE40:
 4860                             		.section	.text.__Do_Close_Gate_Motor2,"ax",@progbits
 4861                             		.global	___Do_Close_Gate_Motor2
 4863                             	___Do_Close_Gate_Motor2:
 4864                             	.LFB41:
2372:../DGC_A230_Functions/DGC_A230_Motor_Functions.c **** void __Do_Close_Gate_Motor2 (void)
2373:../DGC_A230_Functions/DGC_A230_Motor_Functions.c **** {
 4865                             		.loc 1 2373 0
 4866                             		; start of function
 4867                             		; outgoing: 2 bytes
 4868                             		; uses ES register
 4869 0000 20 02                   		subw	sp, #2
 4870                             	.LCFI16:
2374:../DGC_A230_Functions/DGC_A230_Motor_Functions.c **** 
2375:../DGC_A230_Functions/DGC_A230_Motor_Functions.c **** 	Prepare_To_Moving_Motor2(CLOSE_MOVING_DIRECTION);		// Prepare to moving
 4871                             		.loc 1 2375 0
 4872 0002 E1                      		oneb	a
 4873 0003 98 00                   		mov	[sp], a
 4874 0005 FC 00 00 00             		call	!!%code(_Prepare_To_Moving_Motor2)
2376:../DGC_A230_Functions/DGC_A230_Motor_Functions.c **** 	if(TRIG_EN != 1)
 4875                             		.loc 1 2376 0
 4876 0009 C9 F0 03 FF             		movw	r8, #-253
 4877 000d AD F0                   		movw	ax, r8
 4878 000f BD F2                   		movw	r10, ax
 4879 0011 EA F2                   		movw	de, r10
 4880 0013 89                      		mov	a, [de]
 4881 0014 5C 01                   		and	a, #1
 4882 0016 9D F0                   		mov	r8, a
 4883 0018 4A F0 01                		cmp	r8, #1
 4884 001b 61 F8                   		 sknz
 4885 001d EC 3C 00 00             		 br	!!.L239
 4886                             	.LBB17:
2377:../DGC_A230_Functions/DGC_A230_Motor_Functions.c **** 	{
2378:../DGC_A230_Functions/DGC_A230_Motor_Functions.c **** 		TRIG_EN = 1;			// Enable Pulse out to control Motor
 4887                             		.loc 1 2378 0
 4888 0021 C9 F0 03 FF             		movw	r8, #-253
 4889 0025 AD F0                   		movw	ax, r8
 4890 0027 BD F4                   		movw	r12, ax
 4891 0029 FA F4                   		movw	hl, r12
 4892 002b 8B                      		mov	a, [hl]
 4893 002c 9D F2                   		mov	r10, a
 4894 002e 6A F2 01                		or	r10, #1
 4895 0031 AD F0                   		movw	ax, r8
 4896 0033 EA F4                   		movw	de, r12
 4897 0035 8D F2                   		mov	a, r10
 4898 0037 99                      		mov	[de], a
2379:../DGC_A230_Functions/DGC_A230_Motor_Functions.c **** 		R_INTC0_Start();
 4899                             		.loc 1 2379 0
 4900 0038 FC 00 00 00             		call	!!%code(_R_INTC0_Start)
 4901                             	.L239:
 4902                             	.LBE17:
2380:../DGC_A230_Functions/DGC_A230_Motor_Functions.c **** 	}
2381:../DGC_A230_Functions/DGC_A230_Motor_Functions.c **** 
2382:../DGC_A230_Functions/DGC_A230_Motor_Functions.c **** 	if (CFG_parameter.Number_Of_Motors == 0x02)
 4903                             		.loc 1 2382 0
 4904 003c 8F 00 00                		mov	a, !_CFG_parameter+1
 4905 003f 9D F0                   		mov	r8, a
 4906 0041 4A F0 02                		cmp	r8, #2
 4907 0044 61 E8                   		 skz
 4908 0046 EC 61 00 00             		 br	!!.L240
2383:../DGC_A230_Functions/DGC_A230_Motor_Functions.c **** 	{
2384:../DGC_A230_Functions/DGC_A230_Motor_Functions.c **** 		if (Leaf_No2_State != GATE_STATE_CLOSED)
 4909                             		.loc 1 2384 0
 4910 004a 8F 00 00                		mov	a, !_Leaf_No2_State
 4911 004d 9D F0                   		mov	r8, a
 4912 004f 4A F0 01                		cmp	r8, #1
 4913 0052 61 F8                   		 sknz
 4914 0054 EC 61 00 00             		 br	!!.L240
2385:../DGC_A230_Functions/DGC_A230_Motor_Functions.c **** 		{
2386:../DGC_A230_Functions/DGC_A230_Motor_Functions.c **** 			Motor2_Close_Enable();										// Enable Motor #2 to Open
 4915                             		.loc 1 2386 0
 4916 0058 FC 00 00 00             		call	!!%code(_Motor2_Close_Enable)
2387:../DGC_A230_Functions/DGC_A230_Motor_Functions.c **** 			Leaf_No2_State = GATE_STATE_CLOSING;
 4917                             		.loc 1 2387 0
 4918 005c 51 04                   		mov	a, #4
 4919 005e 9F 00 00                		mov	!_Leaf_No2_State, a
 4920                             	.L240:
2388:../DGC_A230_Functions/DGC_A230_Motor_Functions.c **** 		}
2389:../DGC_A230_Functions/DGC_A230_Motor_Functions.c **** 	}
2390:../DGC_A230_Functions/DGC_A230_Motor_Functions.c **** 
2391:../DGC_A230_Functions/DGC_A230_Motor_Functions.c **** 	M2_Tick_Count = 0;
 4921                             		.loc 1 2391 0
 4922 0061 F6                      		clrw	ax
 4923 0062 BF 00 00                		movw	!_M2_Tick_Count, ax
2392:../DGC_A230_Functions/DGC_A230_Motor_Functions.c **** 	M2_Position_Count = 0;
 4924                             		.loc 1 2392 0
 4925 0065 F6                      		clrw	ax
 4926 0066 BF 00 00                		movw	!_M2_Position_Count, ax
2393:../DGC_A230_Functions/DGC_A230_Motor_Functions.c **** 
2394:../DGC_A230_Functions/DGC_A230_Motor_Functions.c **** 	if(Machine_State != MACHINE_STATE_NORMAL_CLOSING)
 4927                             		.loc 1 2394 0
 4928 0069 8F 00 00                		mov	a, !_Machine_State
 4929 006c 9D F0                   		mov	r8, a
 4930 006e 4A F0 02                		cmp	r8, #2
 4931 0071 61 F8                   		 sknz
 4932 0073 EC 84 00 00             		 br	!!.L238
 4933                             	.LBB18:
2395:../DGC_A230_Functions/DGC_A230_Motor_Functions.c **** 	{
2396:../DGC_A230_Functions/DGC_A230_Motor_Functions.c **** 		Tick_Count = 0;								// Reset Tick count
 4934                             		.loc 1 2396 0
 4935 0077 F6                      		clrw	ax
 4936 0078 BF 00 00                		movw	!_Tick_Count, ax
2397:../DGC_A230_Functions/DGC_A230_Motor_Functions.c **** 		Machine_State = MACHINE_STATE_NORMAL_CLOSING;
 4937                             		.loc 1 2397 0
 4938 007b 51 02                   		mov	a, #2
 4939 007d 9F 00 00                		mov	!_Machine_State, a
2398:../DGC_A230_Functions/DGC_A230_Motor_Functions.c **** 
2399:../DGC_A230_Functions/DGC_A230_Motor_Functions.c **** 		R_TAU0_Channel1_Start();					// Start Timer channel 1
 4940                             		.loc 1 2399 0
 4941 0080 FC 00 00 00             		call	!!%code(_R_TAU0_Channel1_Start)
 4942                             	.L238:
 4943                             	.LBE18:
2400:../DGC_A230_Functions/DGC_A230_Motor_Functions.c **** 	}
2401:../DGC_A230_Functions/DGC_A230_Motor_Functions.c **** }
 4944                             		.loc 1 2401 0
 4945 0084 10 02                   		addw	sp, #2
 4946 0086 D7                      		ret
 4947                             	.LFE41:
 4949                             		.section	.text.__Do_Close_Gate,"ax",@progbits
 4950                             		.global	___Do_Close_Gate
 4952                             	___Do_Close_Gate:
 4953                             	.LFB42:
2402:../DGC_A230_Functions/DGC_A230_Motor_Functions.c **** void __Do_Close_Gate (void)
2403:../DGC_A230_Functions/DGC_A230_Motor_Functions.c **** {
 4954                             		.loc 1 2403 0
 4955                             		; start of function
 4956                             		; outgoing: 2 bytes
 4957                             		; uses ES register
 4958 0000 20 02                   		subw	sp, #2
 4959                             	.LCFI17:
2404:../DGC_A230_Functions/DGC_A230_Motor_Functions.c **** 	Prepare_To_Moving(CLOSE_MOVING_DIRECTION);		// Prepare to moving
 4960                             		.loc 1 2404 0
 4961 0002 E1                      		oneb	a
 4962 0003 98 00                   		mov	[sp], a
 4963 0005 FC 00 00 00             		call	!!%code(_Prepare_To_Moving)
2405:../DGC_A230_Functions/DGC_A230_Motor_Functions.c **** 
2406:../DGC_A230_Functions/DGC_A230_Motor_Functions.c **** 	TRIG_EN = 1;			// Enable Pulse out to control Motor
 4964                             		.loc 1 2406 0
 4965 0009 C9 F0 03 FF             		movw	r8, #-253
 4966 000d AD F0                   		movw	ax, r8
 4967 000f BD F4                   		movw	r12, ax
 4968 0011 FA F4                   		movw	hl, r12
 4969 0013 8B                      		mov	a, [hl]
 4970 0014 9D F2                   		mov	r10, a
 4971 0016 6A F2 01                		or	r10, #1
 4972 0019 AD F0                   		movw	ax, r8
 4973 001b EA F4                   		movw	de, r12
 4974 001d 8D F2                   		mov	a, r10
 4975 001f 99                      		mov	[de], a
2407:../DGC_A230_Functions/DGC_A230_Motor_Functions.c **** 	R_INTC0_Start();												// Enable Sync to control, Motor 1 start opening
 4976                             		.loc 1 2407 0
 4977 0020 FC 00 00 00             		call	!!%code(_R_INTC0_Start)
2408:../DGC_A230_Functions/DGC_A230_Motor_Functions.c **** 
2409:../DGC_A230_Functions/DGC_A230_Motor_Functions.c **** 	if (CFG_parameter.Number_Of_Motors == 0x02)
 4978                             		.loc 1 2409 0
 4979 0024 8F 00 00                		mov	a, !_CFG_parameter+1
 4980 0027 9D F0                   		mov	r8, a
 4981 0029 4A F0 02                		cmp	r8, #2
 4982 002c 61 E8                   		 skz
 4983 002e EC 4D 00 00             		 br	!!.L243
2410:../DGC_A230_Functions/DGC_A230_Motor_Functions.c **** 	{
2411:../DGC_A230_Functions/DGC_A230_Motor_Functions.c **** 		if (Leaf_No2_State != GATE_STATE_CLOSED)
 4984                             		.loc 1 2411 0
 4985 0032 8F 00 00                		mov	a, !_Leaf_No2_State
 4986 0035 9D F0                   		mov	r8, a
 4987 0037 4A F0 01                		cmp	r8, #1
 4988 003a 61 F8                   		 sknz
 4989 003c EC 64 00 00             		 br	!!.L245
2412:../DGC_A230_Functions/DGC_A230_Motor_Functions.c **** 		{
2413:../DGC_A230_Functions/DGC_A230_Motor_Functions.c **** 			Motor2_Close_Enable();										// Enable Motor #2 to Close
 4990                             		.loc 1 2413 0
 4991 0040 FC 00 00 00             		call	!!%code(_Motor2_Close_Enable)
2414:../DGC_A230_Functions/DGC_A230_Motor_Functions.c **** 			Leaf_No2_State = GATE_STATE_CLOSING;
 4992                             		.loc 1 2414 0
 4993 0044 51 04                   		mov	a, #4
 4994 0046 9F 00 00                		mov	!_Leaf_No2_State, a
 4995 0049 EC 64 00 00             		br	!!.L245
 4996                             	.L243:
2415:../DGC_A230_Functions/DGC_A230_Motor_Functions.c **** 		}
2416:../DGC_A230_Functions/DGC_A230_Motor_Functions.c **** 	}
2417:../DGC_A230_Functions/DGC_A230_Motor_Functions.c **** 	else
2418:../DGC_A230_Functions/DGC_A230_Motor_Functions.c **** 	{
2419:../DGC_A230_Functions/DGC_A230_Motor_Functions.c **** 		if (Leaf_No1_State != GATE_STATE_CLOSED)
 4997                             		.loc 1 2419 0
 4998 004d 8F 00 00                		mov	a, !_Leaf_No1_State
 4999 0050 9D F0                   		mov	r8, a
 5000 0052 4A F0 01                		cmp	r8, #1
 5001 0055 61 F8                   		 sknz
 5002 0057 EC 64 00 00             		 br	!!.L245
2420:../DGC_A230_Functions/DGC_A230_Motor_Functions.c **** 		{
2421:../DGC_A230_Functions/DGC_A230_Motor_Functions.c **** 			Motor1_Close_Enable();										// Enable Motor #1 to Close
 5003                             		.loc 1 2421 0
 5004 005b FC 00 00 00             		call	!!%code(_Motor1_Close_Enable)
2422:../DGC_A230_Functions/DGC_A230_Motor_Functions.c **** 			Leaf_No1_State = GATE_STATE_CLOSING;
 5005                             		.loc 1 2422 0
 5006 005f 51 04                   		mov	a, #4
 5007 0061 9F 00 00                		mov	!_Leaf_No1_State, a
 5008                             	.L245:
2423:../DGC_A230_Functions/DGC_A230_Motor_Functions.c **** 		}
2424:../DGC_A230_Functions/DGC_A230_Motor_Functions.c **** 	}
2425:../DGC_A230_Functions/DGC_A230_Motor_Functions.c **** 
2426:../DGC_A230_Functions/DGC_A230_Motor_Functions.c **** 	Tick_Count = 0;								// Reset Tick count
 5009                             		.loc 1 2426 0
 5010 0064 F6                      		clrw	ax
 5011 0065 BF 00 00                		movw	!_Tick_Count, ax
2427:../DGC_A230_Functions/DGC_A230_Motor_Functions.c **** 	M1_Tick_Count = 0;
 5012                             		.loc 1 2427 0
 5013 0068 F6                      		clrw	ax
 5014 0069 BF 00 00                		movw	!_M1_Tick_Count, ax
2428:../DGC_A230_Functions/DGC_A230_Motor_Functions.c **** 	M2_Tick_Count = 0;
 5015                             		.loc 1 2428 0
 5016 006c F6                      		clrw	ax
 5017 006d BF 00 00                		movw	!_M2_Tick_Count, ax
2429:../DGC_A230_Functions/DGC_A230_Motor_Functions.c **** 	M1_Position_Count = 0;
 5018                             		.loc 1 2429 0
 5019 0070 F6                      		clrw	ax
 5020 0071 BF 00 00                		movw	!_M1_Position_Count, ax
2430:../DGC_A230_Functions/DGC_A230_Motor_Functions.c **** 	M2_Position_Count = 0;
 5021                             		.loc 1 2430 0
 5022 0074 F6                      		clrw	ax
 5023 0075 BF 00 00                		movw	!_M2_Position_Count, ax
2431:../DGC_A230_Functions/DGC_A230_Motor_Functions.c **** 
2432:../DGC_A230_Functions/DGC_A230_Motor_Functions.c **** 	Machine_State = MACHINE_STATE_NORMAL_CLOSING;
 5024                             		.loc 1 2432 0
 5025 0078 51 02                   		mov	a, #2
 5026 007a 9F 00 00                		mov	!_Machine_State, a
2433:../DGC_A230_Functions/DGC_A230_Motor_Functions.c **** 
2434:../DGC_A230_Functions/DGC_A230_Motor_Functions.c **** 	R_TAU0_Channel1_Start();					// Start Timer channel 1
 5027                             		.loc 1 2434 0
 5028 007d FC 00 00 00             		call	!!%code(_R_TAU0_Channel1_Start)
2435:../DGC_A230_Functions/DGC_A230_Motor_Functions.c **** }
 5029                             		.loc 1 2435 0
 5030 0081 10 02                   		addw	sp, #2
 5031 0083 D7                      		ret
 5032                             	.LFE42:
 5034                             		.section	.text.__Do_Stop_Gate_Motor1,"ax",@progbits
 5035                             		.global	___Do_Stop_Gate_Motor1
 5037                             	___Do_Stop_Gate_Motor1:
 5038                             	.LFB43:
2436:../DGC_A230_Functions/DGC_A230_Motor_Functions.c **** 
2437:../DGC_A230_Functions/DGC_A230_Motor_Functions.c **** void __Do_Stop_Gate_Motor1 (uint8_t Moving_Direction)
2438:../DGC_A230_Functions/DGC_A230_Motor_Functions.c **** {
 5039                             		.loc 1 2438 0
2439:../DGC_A230_Functions/DGC_A230_Motor_Functions.c **** 	if(TRIG_EN != 0)
 5040                             		.loc 1 2439 0
 5041 0000 C9 F0 03 FF             		movw	r8, #-253
 5042 0004 AD F0                   		movw	ax, r8
 5043 0006 BD F2                   		movw	r10, ax
 5044 0008 EA F2                   		movw	de, r10
 5045 000a 89                      		mov	a, [de]
 5046 000b 5C 01                   		and	a, #1
 5047 000d 9D F0                   		mov	r8, a
 5048 000f D4 F0                   		cmp0	r8
 5049 0011 61 F8                   		 sknz
 5050 0013 EC 36 00 00             		 br	!!.L247
 5051                             	.LBB19:
2440:../DGC_A230_Functions/DGC_A230_Motor_Functions.c **** 	{
2441:../DGC_A230_Functions/DGC_A230_Motor_Functions.c **** 		R_TAU0_Channel1_Stop();										// Stop Timer channel 1
 5052                             		.loc 1 2441 0
 5053 0017 FC 00 00 00             		call	!!%code(_R_TAU0_Channel1_Stop)
2442:../DGC_A230_Functions/DGC_A230_Motor_Functions.c **** 		R_INTC0_Stop();												// Enable Sync to control, Motor 1 start opening
 5054                             		.loc 1 2442 0
 5055 001b FC 00 00 00             		call	!!%code(_R_INTC0_Stop)
2443:../DGC_A230_Functions/DGC_A230_Motor_Functions.c **** 		TRIG_EN = 0;			// Enable Pulse out to control Motor
 5056                             		.loc 1 2443 0
 5057 001f C9 F0 03 FF             		movw	r8, #-253
 5058 0023 AD F0                   		movw	ax, r8
 5059 0025 BD F4                   		movw	r12, ax
 5060 0027 FA F4                   		movw	hl, r12
 5061 0029 8B                      		mov	a, [hl]
 5062 002a 9D F2                   		mov	r10, a
 5063 002c 5A F2 FE                		and	r10, #-2
 5064 002f AD F0                   		movw	ax, r8
 5065 0031 EA F4                   		movw	de, r12
 5066 0033 8D F2                   		mov	a, r10
 5067 0035 99                      		mov	[de], a
 5068                             	.L247:
 5069                             	.LBE19:
2444:../DGC_A230_Functions/DGC_A230_Motor_Functions.c **** 	}
2445:../DGC_A230_Functions/DGC_A230_Motor_Functions.c **** 	M1_PWM = 1;					// Clear Trigger Pulse Output
 5070                             		.loc 1 2445 0
 5071 0036 C9 F0 00 FF             		movw	r8, #-256
 5072 003a AD F0                   		movw	ax, r8
 5073 003c BD F4                   		movw	r12, ax
 5074 003e FA F4                   		movw	hl, r12
 5075 0040 8B                      		mov	a, [hl]
 5076 0041 9D F2                   		mov	r10, a
 5077 0043 6A F2 40                		or	r10, #64
 5078 0046 AD F0                   		movw	ax, r8
 5079 0048 EA F4                   		movw	de, r12
 5080 004a 8D F2                   		mov	a, r10
 5081 004c 99                      		mov	[de], a
2446:../DGC_A230_Functions/DGC_A230_Motor_Functions.c **** 
2447:../DGC_A230_Functions/DGC_A230_Motor_Functions.c **** 	Motor1_Disable();
 5082                             		.loc 1 2447 0
 5083 004d FC 00 00 00             		call	!!%code(_Motor1_Disable)
2448:../DGC_A230_Functions/DGC_A230_Motor_Functions.c **** 
2449:../DGC_A230_Functions/DGC_A230_Motor_Functions.c **** 	Stop_Timer_Enable = 1;
 5084                             		.loc 1 2449 0
 5085 0051 E5 00 00                		oneb	!_Stop_Timer_Enable
2450:../DGC_A230_Functions/DGC_A230_Motor_Functions.c **** 	Stop_Timer_Counter = 0;
 5086                             		.loc 1 2450 0
 5087 0054 F5 00 00                		clrb	!_Stop_Timer_Counter
2451:../DGC_A230_Functions/DGC_A230_Motor_Functions.c **** 	while (Stop_Timer_Enable == 1);
 5088                             		.loc 1 2451 0
 5089 0057 00                      		nop
 5090                             	.L248:
 5091                             		.loc 1 2451 0 is_stmt 0 discriminator 1
 5092 0058 8F 00 00                		mov	a, !_Stop_Timer_Enable
 5093 005b 9D F0                   		mov	r8, a
 5094 005d 4A F0 01                		cmp	r8, #1
 5095 0060 61 F8                   		 sknz
 5096 0062 EC 58 00 00             		 br	!!.L248
2452:../DGC_A230_Functions/DGC_A230_Motor_Functions.c **** 
2453:../DGC_A230_Functions/DGC_A230_Motor_Functions.c **** 	if (Moving_Direction == OPEN_MOVING_DIRECTION)				// Calculate Position when stop Normal Opening
 5097                             		.loc 1 2453 0 is_stmt 1
 5098 0066 88 04                   		mov	a, [sp+4]
 5099 0068 D1                      		cmp0	a
 5100 0069 61 E8                   		 skz
 5101 006b EC AA 00 00             		 br	!!.L249
2454:../DGC_A230_Functions/DGC_A230_Motor_Functions.c **** 	{
2455:../DGC_A230_Functions/DGC_A230_Motor_Functions.c **** 		if (Leaf_No1_State != GATE_STATE_OPENED)
 5102                             		.loc 1 2455 0
 5103 006f 8F 00 00                		mov	a, !_Leaf_No1_State
 5104 0072 9D F0                   		mov	r8, a
 5105 0074 4A F0 03                		cmp	r8, #3
 5106 0077 61 F8                   		 sknz
 5107 0079 EC 99 00 00             		 br	!!.L250
2456:../DGC_A230_Functions/DGC_A230_Motor_Functions.c **** 		{
2457:../DGC_A230_Functions/DGC_A230_Motor_Functions.c **** //			if (M1_Tick_Count > CFG_parameter.Motor_Maximum_Boost_Time)
2458:../DGC_A230_Functions/DGC_A230_Motor_Functions.c **** //				M1_Tick_Count -= CFG_parameter.Motor_Maximum_Boost_Time;
2459:../DGC_A230_Functions/DGC_A230_Motor_Functions.c **** 
2460:../DGC_A230_Functions/DGC_A230_Motor_Functions.c **** 			M1_Time_Position = 	M1_Last_Time_Position +	M1_Position_Count;
 5108                             		.loc 1 2460 0
 5109 007d AF 00 00                		movw	ax, !_M1_Last_Time_Position
 5110 0080 BD F2                   		movw	r10, ax
 5111 0082 AF 00 00                		movw	ax, !_M1_Position_Count
 5112 0085 BD F0                   		movw	r8, ax
 5113 0087 AD F2                   		movw	ax, r10
 5114 0089 06 F0                   		addw	ax, r8
 5115 008b BD F0                   		movw	r8, ax
 5116 008d BF 00 00                		movw	!_M1_Time_Position, ax
2461:../DGC_A230_Functions/DGC_A230_Motor_Functions.c **** 			M1_Last_Time_Position = M1_Time_Position;
 5117                             		.loc 1 2461 0
 5118 0090 BD F0                   		movw	r8, ax
 5119 0092 BF 00 00                		movw	!_M1_Last_Time_Position, ax
 5120 0095 EC DD 00 00             		br	!!.L252
 5121                             	.L250:
2462:../DGC_A230_Functions/DGC_A230_Motor_Functions.c **** 		}
2463:../DGC_A230_Functions/DGC_A230_Motor_Functions.c **** 		else
2464:../DGC_A230_Functions/DGC_A230_Motor_Functions.c **** 		{
2465:../DGC_A230_Functions/DGC_A230_Motor_Functions.c **** 			M1_Time_Position = CFG_parameter.M1_Total_Space;
 5122                             		.loc 1 2465 0
 5123 0099 AF 00 00                		movw	ax, !_CFG_parameter+24
 5124 009c BD F0                   		movw	r8, ax
 5125 009e BF 00 00                		movw	!_M1_Time_Position, ax
2466:../DGC_A230_Functions/DGC_A230_Motor_Functions.c **** 			M1_Last_Time_Position = M1_Time_Position;
 5126                             		.loc 1 2466 0
 5127 00a1 BD F0                   		movw	r8, ax
 5128 00a3 BF 00 00                		movw	!_M1_Last_Time_Position, ax
 5129 00a6 EC DD 00 00             		br	!!.L252
 5130                             	.L249:
2467:../DGC_A230_Functions/DGC_A230_Motor_Functions.c **** 		}
2468:../DGC_A230_Functions/DGC_A230_Motor_Functions.c **** 	}
2469:../DGC_A230_Functions/DGC_A230_Motor_Functions.c **** 	else														// Calculate Position when stop Normal Closing
2470:../DGC_A230_Functions/DGC_A230_Motor_Functions.c **** 	{
2471:../DGC_A230_Functions/DGC_A230_Motor_Functions.c **** 		if (Leaf_No1_State != GATE_STATE_CLOSED)
 5131                             		.loc 1 2471 0
 5132 00aa 8F 00 00                		mov	a, !_Leaf_No1_State
 5133 00ad 9D F0                   		mov	r8, a
 5134 00af 4A F0 01                		cmp	r8, #1
 5135 00b2 61 F8                   		 sknz
 5136 00b4 EC D4 00 00             		 br	!!.L253
2472:../DGC_A230_Functions/DGC_A230_Motor_Functions.c **** 		{
2473:../DGC_A230_Functions/DGC_A230_Motor_Functions.c **** //			if (M1_Tick_Count > CFG_parameter.Motor_Maximum_Boost_Time) M1_Tick_Count -= CFG_parameter.Mot
2474:../DGC_A230_Functions/DGC_A230_Motor_Functions.c **** 
2475:../DGC_A230_Functions/DGC_A230_Motor_Functions.c **** 			M1_Time_Position = 	M1_Last_Time_Position -	M1_Position_Count;
 5137                             		.loc 1 2475 0
 5138 00b8 AF 00 00                		movw	ax, !_M1_Last_Time_Position
 5139 00bb BD F2                   		movw	r10, ax
 5140 00bd AF 00 00                		movw	ax, !_M1_Position_Count
 5141 00c0 BD F0                   		movw	r8, ax
 5142 00c2 AD F2                   		movw	ax, r10
 5143 00c4 26 F0                   		subw	ax, r8
 5144 00c6 BD F0                   		movw	r8, ax
 5145 00c8 BF 00 00                		movw	!_M1_Time_Position, ax
2476:../DGC_A230_Functions/DGC_A230_Motor_Functions.c **** 			M1_Last_Time_Position = M1_Time_Position;
 5146                             		.loc 1 2476 0
 5147 00cb BD F0                   		movw	r8, ax
 5148 00cd BF 00 00                		movw	!_M1_Last_Time_Position, ax
 5149 00d0 EC DD 00 00             		br	!!.L252
 5150                             	.L253:
2477:../DGC_A230_Functions/DGC_A230_Motor_Functions.c **** 		}
2478:../DGC_A230_Functions/DGC_A230_Motor_Functions.c **** 		else
2479:../DGC_A230_Functions/DGC_A230_Motor_Functions.c **** 		{
2480:../DGC_A230_Functions/DGC_A230_Motor_Functions.c **** 			M1_Time_Position = 0;
 5151                             		.loc 1 2480 0
 5152 00d4 F6                      		clrw	ax
 5153 00d5 BF 00 00                		movw	!_M1_Time_Position, ax
2481:../DGC_A230_Functions/DGC_A230_Motor_Functions.c **** 			M1_Last_Time_Position = M1_Time_Position;
 5154                             		.loc 1 2481 0
 5155 00d8 BD F0                   		movw	r8, ax
 5156 00da BF 00 00                		movw	!_M1_Last_Time_Position, ax
 5157                             	.L252:
2482:../DGC_A230_Functions/DGC_A230_Motor_Functions.c **** 		}
2483:../DGC_A230_Functions/DGC_A230_Motor_Functions.c **** 	}
2484:../DGC_A230_Functions/DGC_A230_Motor_Functions.c **** 
2485:../DGC_A230_Functions/DGC_A230_Motor_Functions.c **** 	if(Machine_State != MACHINE_STATE_STOP)
 5158                             		.loc 1 2485 0
 5159 00dd 8F 00 00                		mov	a, !_Machine_State
 5160 00e0 9D F0                   		mov	r8, a
 5161 00e2 D4 F0                   		cmp0	r8
 5162 00e4 61 F8                   		 sknz
 5163 00e6 EC 07 01 00             		 br	!!.L246
2486:../DGC_A230_Functions/DGC_A230_Motor_Functions.c **** 	{
2487:../DGC_A230_Functions/DGC_A230_Motor_Functions.c **** 		Machine_State = MACHINE_STATE_STOP;
 5164                             		.loc 1 2487 0
 5165 00ea F5 00 00                		clrb	!_Machine_State
2488:../DGC_A230_Functions/DGC_A230_Motor_Functions.c **** 
2489:../DGC_A230_Functions/DGC_A230_Motor_Functions.c **** 		Flash_Enable = 0;
 5166                             		.loc 1 2489 0
 5167 00ed F5 00 00                		clrb	!_Flash_Enable
2490:../DGC_A230_Functions/DGC_A230_Motor_Functions.c **** 		FLASH = 0;
 5168                             		.loc 1 2490 0
 5169 00f0 C9 F0 02 FF             		movw	r8, #-254
 5170 00f4 AD F0                   		movw	ax, r8
 5171 00f6 BD F4                   		movw	r12, ax
 5172 00f8 FA F4                   		movw	hl, r12
 5173 00fa 8B                      		mov	a, [hl]
 5174 00fb 9D F2                   		mov	r10, a
 5175 00fd 5A F2 FD                		and	r10, #-3
 5176 0100 AD F0                   		movw	ax, r8
 5177 0102 EA F4                   		movw	de, r12
 5178 0104 8D F2                   		mov	a, r10
 5179 0106 99                      		mov	[de], a
 5180                             	.L246:
2491:../DGC_A230_Functions/DGC_A230_Motor_Functions.c **** 	}
2492:../DGC_A230_Functions/DGC_A230_Motor_Functions.c **** 
2493:../DGC_A230_Functions/DGC_A230_Motor_Functions.c **** //	Courtesy_Light_After_Maneuver_Is_Complete();
2494:../DGC_A230_Functions/DGC_A230_Motor_Functions.c **** }
 5181                             		.loc 1 2494 0
 5182 0107 D7                      		ret
 5183                             	.LFE43:
 5185                             		.section	.text.__Do_Stop_Gate_Motor2,"ax",@progbits
 5186                             		.global	___Do_Stop_Gate_Motor2
 5188                             	___Do_Stop_Gate_Motor2:
 5189                             	.LFB44:
2495:../DGC_A230_Functions/DGC_A230_Motor_Functions.c **** void __Do_Stop_Gate_Motor2 (uint8_t Moving_Direction)
2496:../DGC_A230_Functions/DGC_A230_Motor_Functions.c **** {
 5190                             		.loc 1 2496 0
2497:../DGC_A230_Functions/DGC_A230_Motor_Functions.c **** 	if(TRIG_EN != 0)
 5191                             		.loc 1 2497 0
 5192 0000 C9 F0 03 FF             		movw	r8, #-253
 5193 0004 AD F0                   		movw	ax, r8
 5194 0006 BD F2                   		movw	r10, ax
 5195 0008 EA F2                   		movw	de, r10
 5196 000a 89                      		mov	a, [de]
 5197 000b 5C 01                   		and	a, #1
 5198 000d 9D F0                   		mov	r8, a
 5199 000f D4 F0                   		cmp0	r8
 5200 0011 61 F8                   		 sknz
 5201 0013 EC 36 00 00             		 br	!!.L256
 5202                             	.LBB20:
2498:../DGC_A230_Functions/DGC_A230_Motor_Functions.c **** 	{
2499:../DGC_A230_Functions/DGC_A230_Motor_Functions.c **** 		R_TAU0_Channel1_Stop();										// Stop Timer channel 1
 5203                             		.loc 1 2499 0
 5204 0017 FC 00 00 00             		call	!!%code(_R_TAU0_Channel1_Stop)
2500:../DGC_A230_Functions/DGC_A230_Motor_Functions.c **** 		R_INTC0_Stop();												// Enable Sync to control, Motor 1 start opening
 5205                             		.loc 1 2500 0
 5206 001b FC 00 00 00             		call	!!%code(_R_INTC0_Stop)
2501:../DGC_A230_Functions/DGC_A230_Motor_Functions.c **** 		TRIG_EN = 0;			// Enable Pulse out to control Motor
 5207                             		.loc 1 2501 0
 5208 001f C9 F0 03 FF             		movw	r8, #-253
 5209 0023 AD F0                   		movw	ax, r8
 5210 0025 BD F4                   		movw	r12, ax
 5211 0027 FA F4                   		movw	hl, r12
 5212 0029 8B                      		mov	a, [hl]
 5213 002a 9D F2                   		mov	r10, a
 5214 002c 5A F2 FE                		and	r10, #-2
 5215 002f AD F0                   		movw	ax, r8
 5216 0031 EA F4                   		movw	de, r12
 5217 0033 8D F2                   		mov	a, r10
 5218 0035 99                      		mov	[de], a
 5219                             	.L256:
 5220                             	.LBE20:
2502:../DGC_A230_Functions/DGC_A230_Motor_Functions.c **** 	}
2503:../DGC_A230_Functions/DGC_A230_Motor_Functions.c **** 
2504:../DGC_A230_Functions/DGC_A230_Motor_Functions.c **** 	M2_PWM = 1;					// Clear M2 PWM Pulse Output
 5221                             		.loc 1 2504 0
 5222 0036 C9 F0 00 FF             		movw	r8, #-256
 5223 003a AD F0                   		movw	ax, r8
 5224 003c BD F4                   		movw	r12, ax
 5225 003e FA F4                   		movw	hl, r12
 5226 0040 8B                      		mov	a, [hl]
 5227 0041 9D F2                   		mov	r10, a
 5228 0043 6A F2 20                		or	r10, #32
 5229 0046 AD F0                   		movw	ax, r8
 5230 0048 EA F4                   		movw	de, r12
 5231 004a 8D F2                   		mov	a, r10
 5232 004c 99                      		mov	[de], a
2505:../DGC_A230_Functions/DGC_A230_Motor_Functions.c **** 
2506:../DGC_A230_Functions/DGC_A230_Motor_Functions.c **** 	Motor2_Disable();
 5233                             		.loc 1 2506 0
 5234 004d FC 00 00 00             		call	!!%code(_Motor2_Disable)
2507:../DGC_A230_Functions/DGC_A230_Motor_Functions.c **** 
2508:../DGC_A230_Functions/DGC_A230_Motor_Functions.c **** 	Stop_Timer_Enable = 1;
 5235                             		.loc 1 2508 0
 5236 0051 E5 00 00                		oneb	!_Stop_Timer_Enable
2509:../DGC_A230_Functions/DGC_A230_Motor_Functions.c **** 	Stop_Timer_Counter = 0;
 5237                             		.loc 1 2509 0
 5238 0054 F5 00 00                		clrb	!_Stop_Timer_Counter
2510:../DGC_A230_Functions/DGC_A230_Motor_Functions.c **** 	while (Stop_Timer_Enable == 1);
 5239                             		.loc 1 2510 0
 5240 0057 00                      		nop
 5241                             	.L257:
 5242                             		.loc 1 2510 0 is_stmt 0 discriminator 1
 5243 0058 8F 00 00                		mov	a, !_Stop_Timer_Enable
 5244 005b 9D F0                   		mov	r8, a
 5245 005d 4A F0 01                		cmp	r8, #1
 5246 0060 61 F8                   		 sknz
 5247 0062 EC 58 00 00             		 br	!!.L257
2511:../DGC_A230_Functions/DGC_A230_Motor_Functions.c **** 
2512:../DGC_A230_Functions/DGC_A230_Motor_Functions.c **** 	if (Moving_Direction == OPEN_MOVING_DIRECTION)				// Calculate Position when stop Normal Opening
 5248                             		.loc 1 2512 0 is_stmt 1
 5249 0066 88 04                   		mov	a, [sp+4]
 5250 0068 D1                      		cmp0	a
 5251 0069 61 E8                   		 skz
 5252 006b EC AA 00 00             		 br	!!.L258
2513:../DGC_A230_Functions/DGC_A230_Motor_Functions.c **** 	{
2514:../DGC_A230_Functions/DGC_A230_Motor_Functions.c **** 		if (Leaf_No2_State != GATE_STATE_OPENED)
 5253                             		.loc 1 2514 0
 5254 006f 8F 00 00                		mov	a, !_Leaf_No2_State
 5255 0072 9D F0                   		mov	r8, a
 5256 0074 4A F0 03                		cmp	r8, #3
 5257 0077 61 F8                   		 sknz
 5258 0079 EC 99 00 00             		 br	!!.L259
2515:../DGC_A230_Functions/DGC_A230_Motor_Functions.c **** 		{
2516:../DGC_A230_Functions/DGC_A230_Motor_Functions.c **** 			M2_Time_Position = 	M2_Last_Time_Position +	M2_Position_Count;
 5259                             		.loc 1 2516 0
 5260 007d AF 00 00                		movw	ax, !_M2_Last_Time_Position
 5261 0080 BD F2                   		movw	r10, ax
 5262 0082 AF 00 00                		movw	ax, !_M2_Position_Count
 5263 0085 BD F0                   		movw	r8, ax
 5264 0087 AD F2                   		movw	ax, r10
 5265 0089 06 F0                   		addw	ax, r8
 5266 008b BD F0                   		movw	r8, ax
 5267 008d BF 00 00                		movw	!_M2_Time_Position, ax
2517:../DGC_A230_Functions/DGC_A230_Motor_Functions.c **** 			M2_Last_Time_Position = M2_Time_Position;
 5268                             		.loc 1 2517 0
 5269 0090 BD F0                   		movw	r8, ax
 5270 0092 BF 00 00                		movw	!_M2_Last_Time_Position, ax
 5271 0095 EC DD 00 00             		br	!!.L261
 5272                             	.L259:
2518:../DGC_A230_Functions/DGC_A230_Motor_Functions.c **** 		}
2519:../DGC_A230_Functions/DGC_A230_Motor_Functions.c **** 		else
2520:../DGC_A230_Functions/DGC_A230_Motor_Functions.c **** 		{
2521:../DGC_A230_Functions/DGC_A230_Motor_Functions.c **** 			M2_Time_Position = CFG_parameter.M2_Total_Space;
 5273                             		.loc 1 2521 0
 5274 0099 AF 00 00                		movw	ax, !_CFG_parameter+26
 5275 009c BD F0                   		movw	r8, ax
 5276 009e BF 00 00                		movw	!_M2_Time_Position, ax
2522:../DGC_A230_Functions/DGC_A230_Motor_Functions.c **** 			M2_Last_Time_Position = M2_Time_Position;
 5277                             		.loc 1 2522 0
 5278 00a1 BD F0                   		movw	r8, ax
 5279 00a3 BF 00 00                		movw	!_M2_Last_Time_Position, ax
 5280 00a6 EC DD 00 00             		br	!!.L261
 5281                             	.L258:
2523:../DGC_A230_Functions/DGC_A230_Motor_Functions.c **** 		}
2524:../DGC_A230_Functions/DGC_A230_Motor_Functions.c **** 	}
2525:../DGC_A230_Functions/DGC_A230_Motor_Functions.c **** 	else														// Calculate Position when stop Normal Closing
2526:../DGC_A230_Functions/DGC_A230_Motor_Functions.c **** 	{
2527:../DGC_A230_Functions/DGC_A230_Motor_Functions.c **** 		if (Leaf_No2_State != GATE_STATE_CLOSED)
 5282                             		.loc 1 2527 0
 5283 00aa 8F 00 00                		mov	a, !_Leaf_No2_State
 5284 00ad 9D F0                   		mov	r8, a
 5285 00af 4A F0 01                		cmp	r8, #1
 5286 00b2 61 F8                   		 sknz
 5287 00b4 EC D4 00 00             		 br	!!.L262
2528:../DGC_A230_Functions/DGC_A230_Motor_Functions.c **** 		{
2529:../DGC_A230_Functions/DGC_A230_Motor_Functions.c **** 			M2_Time_Position = 	M2_Last_Time_Position -	M2_Position_Count;
 5288                             		.loc 1 2529 0
 5289 00b8 AF 00 00                		movw	ax, !_M2_Last_Time_Position
 5290 00bb BD F2                   		movw	r10, ax
 5291 00bd AF 00 00                		movw	ax, !_M2_Position_Count
 5292 00c0 BD F0                   		movw	r8, ax
 5293 00c2 AD F2                   		movw	ax, r10
 5294 00c4 26 F0                   		subw	ax, r8
 5295 00c6 BD F0                   		movw	r8, ax
 5296 00c8 BF 00 00                		movw	!_M2_Time_Position, ax
2530:../DGC_A230_Functions/DGC_A230_Motor_Functions.c **** 			M2_Last_Time_Position = M2_Time_Position;
 5297                             		.loc 1 2530 0
 5298 00cb BD F0                   		movw	r8, ax
 5299 00cd BF 00 00                		movw	!_M2_Last_Time_Position, ax
 5300 00d0 EC DD 00 00             		br	!!.L261
 5301                             	.L262:
2531:../DGC_A230_Functions/DGC_A230_Motor_Functions.c **** 		}
2532:../DGC_A230_Functions/DGC_A230_Motor_Functions.c **** 		else
2533:../DGC_A230_Functions/DGC_A230_Motor_Functions.c **** 		{
2534:../DGC_A230_Functions/DGC_A230_Motor_Functions.c **** 			M2_Time_Position = 0;
 5302                             		.loc 1 2534 0
 5303 00d4 F6                      		clrw	ax
 5304 00d5 BF 00 00                		movw	!_M2_Time_Position, ax
2535:../DGC_A230_Functions/DGC_A230_Motor_Functions.c **** 			M2_Last_Time_Position = M2_Time_Position;
 5305                             		.loc 1 2535 0
 5306 00d8 BD F0                   		movw	r8, ax
 5307 00da BF 00 00                		movw	!_M2_Last_Time_Position, ax
 5308                             	.L261:
2536:../DGC_A230_Functions/DGC_A230_Motor_Functions.c **** 		}
2537:../DGC_A230_Functions/DGC_A230_Motor_Functions.c **** 	}
2538:../DGC_A230_Functions/DGC_A230_Motor_Functions.c **** 
2539:../DGC_A230_Functions/DGC_A230_Motor_Functions.c **** 	if(Machine_State != MACHINE_STATE_STOP)
 5309                             		.loc 1 2539 0
 5310 00dd 8F 00 00                		mov	a, !_Machine_State
 5311 00e0 9D F0                   		mov	r8, a
 5312 00e2 D4 F0                   		cmp0	r8
 5313 00e4 61 F8                   		 sknz
 5314 00e6 EC 07 01 00             		 br	!!.L263
2540:../DGC_A230_Functions/DGC_A230_Motor_Functions.c **** 	{
2541:../DGC_A230_Functions/DGC_A230_Motor_Functions.c **** 		Machine_State = MACHINE_STATE_STOP;
 5315                             		.loc 1 2541 0
 5316 00ea F5 00 00                		clrb	!_Machine_State
2542:../DGC_A230_Functions/DGC_A230_Motor_Functions.c **** 
2543:../DGC_A230_Functions/DGC_A230_Motor_Functions.c **** 		Flash_Enable = 0;
 5317                             		.loc 1 2543 0
 5318 00ed F5 00 00                		clrb	!_Flash_Enable
2544:../DGC_A230_Functions/DGC_A230_Motor_Functions.c **** 		FLASH = 0;
 5319                             		.loc 1 2544 0
 5320 00f0 C9 F0 02 FF             		movw	r8, #-254
 5321 00f4 AD F0                   		movw	ax, r8
 5322 00f6 BD F4                   		movw	r12, ax
 5323 00f8 FA F4                   		movw	hl, r12
 5324 00fa 8B                      		mov	a, [hl]
 5325 00fb 9D F2                   		mov	r10, a
 5326 00fd 5A F2 FD                		and	r10, #-3
 5327 0100 AD F0                   		movw	ax, r8
 5328 0102 EA F4                   		movw	de, r12
 5329 0104 8D F2                   		mov	a, r10
 5330 0106 99                      		mov	[de], a
 5331                             	.L263:
2545:../DGC_A230_Functions/DGC_A230_Motor_Functions.c **** 	}
2546:../DGC_A230_Functions/DGC_A230_Motor_Functions.c **** 
2547:../DGC_A230_Functions/DGC_A230_Motor_Functions.c **** 	Courtesy_Light_After_Maneuver_Is_Complete();
 5332                             		.loc 1 2547 0
 5333 0107 FC 00 00 00             		call	!!%code(_Courtesy_Light_After_Maneuver_Is_Complete)
2548:../DGC_A230_Functions/DGC_A230_Motor_Functions.c **** 
2549:../DGC_A230_Functions/DGC_A230_Motor_Functions.c **** }
 5334                             		.loc 1 2549 0
 5335 010b D7                      		ret
 5336                             	.LFE44:
 5338                             		.section	.text.__Do_Brake_Motor_Type_1,"ax",@progbits
 5339                             		.global	___Do_Brake_Motor_Type_1
 5341                             	___Do_Brake_Motor_Type_1:
 5342                             	.LFB45:
2550:../DGC_A230_Functions/DGC_A230_Motor_Functions.c **** //void __Do_Stop_Gate (uint8_t Moving_Direction)
2551:../DGC_A230_Functions/DGC_A230_Motor_Functions.c **** //{
2552:../DGC_A230_Functions/DGC_A230_Motor_Functions.c **** //	R_TAU0_Channel1_Stop();										// Stop Timer channel 1
2553:../DGC_A230_Functions/DGC_A230_Motor_Functions.c **** //	R_INTC0_Stop();												// Enable Sync to control, Motor 1 start opening
2554:../DGC_A230_Functions/DGC_A230_Motor_Functions.c **** //	TRIG_EN = 0;			// Enable Pulse out to control Motor
2555:../DGC_A230_Functions/DGC_A230_Motor_Functions.c **** //	M1_PWM = 1;					// Clear Trigger Pulse Output
2556:../DGC_A230_Functions/DGC_A230_Motor_Functions.c **** //	M2_PWM = 1;					// Clear M2 PWM Pulse Output
2557:../DGC_A230_Functions/DGC_A230_Motor_Functions.c **** //
2558:../DGC_A230_Functions/DGC_A230_Motor_Functions.c **** //	Motor1_Disable();
2559:../DGC_A230_Functions/DGC_A230_Motor_Functions.c **** //	Motor2_Disable();
2560:../DGC_A230_Functions/DGC_A230_Motor_Functions.c **** //
2561:../DGC_A230_Functions/DGC_A230_Motor_Functions.c **** //	Stop_Timer_Enable = 1;
2562:../DGC_A230_Functions/DGC_A230_Motor_Functions.c **** //	Stop_Timer_Counter = 0;
2563:../DGC_A230_Functions/DGC_A230_Motor_Functions.c **** //	while (Stop_Timer_Enable == 1);
2564:../DGC_A230_Functions/DGC_A230_Motor_Functions.c **** //
2565:../DGC_A230_Functions/DGC_A230_Motor_Functions.c **** //	if (Moving_Direction == OPEN_MOVING_DIRECTION)				// Calculate Position when stop Normal Opening
2566:../DGC_A230_Functions/DGC_A230_Motor_Functions.c **** //	{
2567:../DGC_A230_Functions/DGC_A230_Motor_Functions.c **** //		if (Leaf_No1_State != GATE_STATE_OPENED)
2568:../DGC_A230_Functions/DGC_A230_Motor_Functions.c **** //		{
2569:../DGC_A230_Functions/DGC_A230_Motor_Functions.c **** ////			if (M1_Tick_Count > CFG_parameter.Motor_Maximum_Boost_Time)
2570:../DGC_A230_Functions/DGC_A230_Motor_Functions.c **** ////				M1_Tick_Count -= CFG_parameter.Motor_Maximum_Boost_Time;
2571:../DGC_A230_Functions/DGC_A230_Motor_Functions.c **** //
2572:../DGC_A230_Functions/DGC_A230_Motor_Functions.c **** //			M1_Time_Position = 	M1_Last_Time_Position +	M1_Position_Count;
2573:../DGC_A230_Functions/DGC_A230_Motor_Functions.c **** //			M1_Last_Time_Position = M1_Time_Position;
2574:../DGC_A230_Functions/DGC_A230_Motor_Functions.c **** //		}
2575:../DGC_A230_Functions/DGC_A230_Motor_Functions.c **** //		else
2576:../DGC_A230_Functions/DGC_A230_Motor_Functions.c **** //		{
2577:../DGC_A230_Functions/DGC_A230_Motor_Functions.c **** //			M1_Time_Position = CFG_parameter.M1_Total_Space;
2578:../DGC_A230_Functions/DGC_A230_Motor_Functions.c **** //			M1_Last_Time_Position = M1_Time_Position;
2579:../DGC_A230_Functions/DGC_A230_Motor_Functions.c **** //		}
2580:../DGC_A230_Functions/DGC_A230_Motor_Functions.c **** //
2581:../DGC_A230_Functions/DGC_A230_Motor_Functions.c **** //		if (Leaf_No2_State != GATE_STATE_OPENED)
2582:../DGC_A230_Functions/DGC_A230_Motor_Functions.c **** //		{
2583:../DGC_A230_Functions/DGC_A230_Motor_Functions.c **** ////			if (M2_Tick_Count > CFG_parameter.Motor_Maximum_Boost_Time)
2584:../DGC_A230_Functions/DGC_A230_Motor_Functions.c **** ////				M2_Tick_Count -= CFG_parameter.Motor_Maximum_Boost_Time;
2585:../DGC_A230_Functions/DGC_A230_Motor_Functions.c **** //
2586:../DGC_A230_Functions/DGC_A230_Motor_Functions.c **** //			M2_Time_Position = 	M2_Last_Time_Position +	M2_Position_Count;
2587:../DGC_A230_Functions/DGC_A230_Motor_Functions.c **** //			M2_Last_Time_Position = M2_Time_Position;
2588:../DGC_A230_Functions/DGC_A230_Motor_Functions.c **** //		}
2589:../DGC_A230_Functions/DGC_A230_Motor_Functions.c **** //		else
2590:../DGC_A230_Functions/DGC_A230_Motor_Functions.c **** //		{
2591:../DGC_A230_Functions/DGC_A230_Motor_Functions.c **** //			M2_Time_Position = CFG_parameter.M2_Total_Space;
2592:../DGC_A230_Functions/DGC_A230_Motor_Functions.c **** //			M2_Last_Time_Position = M2_Time_Position;
2593:../DGC_A230_Functions/DGC_A230_Motor_Functions.c **** //		}
2594:../DGC_A230_Functions/DGC_A230_Motor_Functions.c **** //	}
2595:../DGC_A230_Functions/DGC_A230_Motor_Functions.c **** //	else														// Calculate Position when stop Normal Closing
2596:../DGC_A230_Functions/DGC_A230_Motor_Functions.c **** //	{
2597:../DGC_A230_Functions/DGC_A230_Motor_Functions.c **** //		if (Leaf_No1_State != GATE_STATE_CLOSED)
2598:../DGC_A230_Functions/DGC_A230_Motor_Functions.c **** //		{
2599:../DGC_A230_Functions/DGC_A230_Motor_Functions.c **** ////			if (M1_Tick_Count > CFG_parameter.Motor_Maximum_Boost_Time) M1_Tick_Count -= CFG_parameter.M
2600:../DGC_A230_Functions/DGC_A230_Motor_Functions.c **** //
2601:../DGC_A230_Functions/DGC_A230_Motor_Functions.c **** //			M1_Time_Position = 	M1_Last_Time_Position -	M1_Position_Count;
2602:../DGC_A230_Functions/DGC_A230_Motor_Functions.c **** //			M1_Last_Time_Position = M1_Time_Position;
2603:../DGC_A230_Functions/DGC_A230_Motor_Functions.c **** //		}
2604:../DGC_A230_Functions/DGC_A230_Motor_Functions.c **** //		else
2605:../DGC_A230_Functions/DGC_A230_Motor_Functions.c **** //		{
2606:../DGC_A230_Functions/DGC_A230_Motor_Functions.c **** //			M1_Time_Position = 0;
2607:../DGC_A230_Functions/DGC_A230_Motor_Functions.c **** //			M1_Last_Time_Position = M1_Time_Position;
2608:../DGC_A230_Functions/DGC_A230_Motor_Functions.c **** //		}
2609:../DGC_A230_Functions/DGC_A230_Motor_Functions.c **** //
2610:../DGC_A230_Functions/DGC_A230_Motor_Functions.c **** //		if (Leaf_No2_State != GATE_STATE_CLOSED)
2611:../DGC_A230_Functions/DGC_A230_Motor_Functions.c **** //		{
2612:../DGC_A230_Functions/DGC_A230_Motor_Functions.c **** ////			if (M2_Tick_Count > CFG_parameter.Motor_Maximum_Boost_Time) M2_Tick_Count -= CFG_parameter.M
2613:../DGC_A230_Functions/DGC_A230_Motor_Functions.c **** //
2614:../DGC_A230_Functions/DGC_A230_Motor_Functions.c **** //			M2_Time_Position = 	M2_Last_Time_Position -	M2_Position_Count;
2615:../DGC_A230_Functions/DGC_A230_Motor_Functions.c **** //			M2_Last_Time_Position = M2_Time_Position;
2616:../DGC_A230_Functions/DGC_A230_Motor_Functions.c **** //		}
2617:../DGC_A230_Functions/DGC_A230_Motor_Functions.c **** //		else
2618:../DGC_A230_Functions/DGC_A230_Motor_Functions.c **** //		{
2619:../DGC_A230_Functions/DGC_A230_Motor_Functions.c **** //			M2_Time_Position = 0;
2620:../DGC_A230_Functions/DGC_A230_Motor_Functions.c **** //			M2_Last_Time_Position = M2_Time_Position;
2621:../DGC_A230_Functions/DGC_A230_Motor_Functions.c **** //		}
2622:../DGC_A230_Functions/DGC_A230_Motor_Functions.c **** //	}
2623:../DGC_A230_Functions/DGC_A230_Motor_Functions.c **** //
2624:../DGC_A230_Functions/DGC_A230_Motor_Functions.c **** //
2625:../DGC_A230_Functions/DGC_A230_Motor_Functions.c **** //	Machine_State = MACHINE_STATE_STOP;
2626:../DGC_A230_Functions/DGC_A230_Motor_Functions.c **** //
2627:../DGC_A230_Functions/DGC_A230_Motor_Functions.c **** //
2628:../DGC_A230_Functions/DGC_A230_Motor_Functions.c **** //	Flash_Enable = 0;
2629:../DGC_A230_Functions/DGC_A230_Motor_Functions.c **** //	FLASH = 0;
2630:../DGC_A230_Functions/DGC_A230_Motor_Functions.c **** //
2631:../DGC_A230_Functions/DGC_A230_Motor_Functions.c **** //	Courtesy_Light_After_Maneuver_Is_Complete();
2632:../DGC_A230_Functions/DGC_A230_Motor_Functions.c **** //
2633:../DGC_A230_Functions/DGC_A230_Motor_Functions.c **** ////	if (((CFG_parameter.Number_Of_Motors == 0x02) && (Leaf_No1_State == GATE_STATE_CLOSED) && (Lea
2634:../DGC_A230_Functions/DGC_A230_Motor_Functions.c **** ////		|| ((CFG_parameter.Number_Of_Motors == 0x02) && (Leaf_No1_State == GATE_STATE_OPENED) && (Lea
2635:../DGC_A230_Functions/DGC_A230_Motor_Functions.c **** ////		|| ((CFG_parameter.Number_Of_Motors == 0x01) && (Leaf_No1_State == GATE_STATE_CLOSED))
2636:../DGC_A230_Functions/DGC_A230_Motor_Functions.c **** ////		|| ((CFG_parameter.Number_Of_Motors == 0x01) && (Leaf_No1_State == GATE_STATE_OPENED)))
2637:../DGC_A230_Functions/DGC_A230_Motor_Functions.c **** ////	{
2638:../DGC_A230_Functions/DGC_A230_Motor_Functions.c **** ////		Courtesy_Light_After_Maneuver_Is_Complete();
2639:../DGC_A230_Functions/DGC_A230_Motor_Functions.c **** ////	}
2640:../DGC_A230_Functions/DGC_A230_Motor_Functions.c **** //}
2641:../DGC_A230_Functions/DGC_A230_Motor_Functions.c **** 
2642:../DGC_A230_Functions/DGC_A230_Motor_Functions.c **** void __Do_Brake_Motor_Type_1 (uint8_t Current_Direction)
2643:../DGC_A230_Functions/DGC_A230_Motor_Functions.c **** {
 5343                             		.loc 1 2643 0
2644:../DGC_A230_Functions/DGC_A230_Motor_Functions.c **** 	Motor1_Disable();
 5344                             		.loc 1 2644 0
 5345 0000 FC 00 00 00             		call	!!%code(_Motor1_Disable)
2645:../DGC_A230_Functions/DGC_A230_Motor_Functions.c **** 
2646:../DGC_A230_Functions/DGC_A230_Motor_Functions.c **** 	Disable_Tick_Count = 0;
 5346                             		.loc 1 2646 0
 5347 0004 F6                      		clrw	ax
 5348 0005 BF 00 00                		movw	!_Disable_Tick_Count, ax
2647:../DGC_A230_Functions/DGC_A230_Motor_Functions.c **** 	Disable_Time_Enable = 0x01;
 5349                             		.loc 1 2647 0
 5350 0008 E5 00 00                		oneb	!_Disable_Time_Enable
2648:../DGC_A230_Functions/DGC_A230_Motor_Functions.c **** 	while (Disable_Time_Enable == 0x01);
 5351                             		.loc 1 2648 0
 5352 000b 00                      		nop
 5353                             	.L265:
 5354                             		.loc 1 2648 0 is_stmt 0 discriminator 1
 5355 000c 8F 00 00                		mov	a, !_Disable_Time_Enable
 5356 000f 9D F0                   		mov	r8, a
 5357 0011 4A F0 01                		cmp	r8, #1
 5358 0014 61 F8                   		 sknz
 5359 0016 EC 0C 00 00             		 br	!!.L265
2649:../DGC_A230_Functions/DGC_A230_Motor_Functions.c **** 
2650:../DGC_A230_Functions/DGC_A230_Motor_Functions.c **** 	M1_Timestamp = BRAKING_TIMESTAMP;
 5360                             		.loc 1 2650 0 is_stmt 1
 5361 001a 51 06                   		mov	a, #6
 5362 001c 9F 00 00                		mov	!_M1_Timestamp, a
2651:../DGC_A230_Functions/DGC_A230_Motor_Functions.c **** 	M1_Torque_Setting = CFG_parameter.Braking_Force;
 5363                             		.loc 1 2651 0
 5364 001f AF 00 00                		movw	ax, !_CFG_parameter+94
 5365 0022 BD F0                   		movw	r8, ax
 5366 0024 BF 00 00                		movw	!_M1_Torque_Setting, ax
2652:../DGC_A230_Functions/DGC_A230_Motor_Functions.c **** 	if (Current_Direction == OPEN_MOVING_DIRECTION)
 5367                             		.loc 1 2652 0
 5368 0027 88 04                   		mov	a, [sp+4]
 5369 0029 D1                      		cmp0	a
 5370 002a 61 E8                   		 skz
 5371 002c EC 38 00 00             		 br	!!.L266
2653:../DGC_A230_Functions/DGC_A230_Motor_Functions.c **** 	{
2654:../DGC_A230_Functions/DGC_A230_Motor_Functions.c **** 		Motor1_Close_Enable();
 5372                             		.loc 1 2654 0
 5373 0030 FC 00 00 00             		call	!!%code(_Motor1_Close_Enable)
 5374 0034 EC 3C 00 00             		br	!!.L267
 5375                             	.L266:
2655:../DGC_A230_Functions/DGC_A230_Motor_Functions.c **** 	}
2656:../DGC_A230_Functions/DGC_A230_Motor_Functions.c **** 	else
2657:../DGC_A230_Functions/DGC_A230_Motor_Functions.c **** 	{
2658:../DGC_A230_Functions/DGC_A230_Motor_Functions.c **** 		Motor1_Open_Enable();
 5376                             		.loc 1 2658 0
 5377 0038 FC 00 00 00             		call	!!%code(_Motor1_Open_Enable)
 5378                             	.L267:
2659:../DGC_A230_Functions/DGC_A230_Motor_Functions.c **** 	}
2660:../DGC_A230_Functions/DGC_A230_Motor_Functions.c **** 
2661:../DGC_A230_Functions/DGC_A230_Motor_Functions.c **** 	Brake_Tick_Count = 0;
 5379                             		.loc 1 2661 0
 5380 003c F6                      		clrw	ax
 5381 003d BF 00 00                		movw	!_Brake_Tick_Count, ax
2662:../DGC_A230_Functions/DGC_A230_Motor_Functions.c **** 	Braking_Time_Enable = 0x01;
 5382                             		.loc 1 2662 0
 5383 0040 E5 00 00                		oneb	!_Braking_Time_Enable
2663:../DGC_A230_Functions/DGC_A230_Motor_Functions.c **** 	while(Braking_Time_Enable == 0x01);
 5384                             		.loc 1 2663 0
 5385 0043 00                      		nop
 5386                             	.L268:
 5387                             		.loc 1 2663 0 is_stmt 0 discriminator 1
 5388 0044 8F 00 00                		mov	a, !_Braking_Time_Enable
 5389 0047 9D F0                   		mov	r8, a
 5390 0049 4A F0 01                		cmp	r8, #1
 5391 004c 61 F8                   		 sknz
 5392 004e EC 44 00 00             		 br	!!.L268
2664:../DGC_A230_Functions/DGC_A230_Motor_Functions.c **** }
 5393                             		.loc 1 2664 0 is_stmt 1
 5394 0052 D7                      		ret
 5395                             	.LFE45:
 5397                             		.section	.text.__Do_Brake_Motor_Type_2,"ax",@progbits
 5398                             		.global	___Do_Brake_Motor_Type_2
 5400                             	___Do_Brake_Motor_Type_2:
 5401                             	.LFB46:
2665:../DGC_A230_Functions/DGC_A230_Motor_Functions.c **** 
2666:../DGC_A230_Functions/DGC_A230_Motor_Functions.c **** void __Do_Brake_Motor_Type_2 (uint8_t Current_Direction)
2667:../DGC_A230_Functions/DGC_A230_Motor_Functions.c **** {
 5402                             		.loc 1 2667 0
2668:../DGC_A230_Functions/DGC_A230_Motor_Functions.c **** 	Motor2_Disable();
 5403                             		.loc 1 2668 0
 5404 0000 FC 00 00 00             		call	!!%code(_Motor2_Disable)
2669:../DGC_A230_Functions/DGC_A230_Motor_Functions.c **** 	Motor1_Disable();
 5405                             		.loc 1 2669 0
 5406 0004 FC 00 00 00             		call	!!%code(_Motor1_Disable)
2670:../DGC_A230_Functions/DGC_A230_Motor_Functions.c **** 
2671:../DGC_A230_Functions/DGC_A230_Motor_Functions.c **** 	Disable_Tick_Count = 0;
 5407                             		.loc 1 2671 0
 5408 0008 F6                      		clrw	ax
 5409 0009 BF 00 00                		movw	!_Disable_Tick_Count, ax
2672:../DGC_A230_Functions/DGC_A230_Motor_Functions.c **** 	Disable_Time_Enable = 0x01;
 5410                             		.loc 1 2672 0
 5411 000c E5 00 00                		oneb	!_Disable_Time_Enable
2673:../DGC_A230_Functions/DGC_A230_Motor_Functions.c **** 	while (Disable_Time_Enable == 0x01);
 5412                             		.loc 1 2673 0
 5413 000f 00                      		nop
 5414                             	.L270:
 5415                             		.loc 1 2673 0 is_stmt 0 discriminator 1
 5416 0010 8F 00 00                		mov	a, !_Disable_Time_Enable
 5417 0013 9D F0                   		mov	r8, a
 5418 0015 4A F0 01                		cmp	r8, #1
 5419 0018 61 F8                   		 sknz
 5420 001a EC 10 00 00             		 br	!!.L270
2674:../DGC_A230_Functions/DGC_A230_Motor_Functions.c **** 
2675:../DGC_A230_Functions/DGC_A230_Motor_Functions.c **** 	M1_Timestamp = BRAKING_TIMESTAMP;
 5421                             		.loc 1 2675 0 is_stmt 1
 5422 001e 51 06                   		mov	a, #6
 5423 0020 9F 00 00                		mov	!_M1_Timestamp, a
2676:../DGC_A230_Functions/DGC_A230_Motor_Functions.c **** 	M2_Timestamp = BRAKING_TIMESTAMP;
 5424                             		.loc 1 2676 0
 5425 0023 51 06                   		mov	a, #6
 5426 0025 9F 00 00                		mov	!_M2_Timestamp, a
2677:../DGC_A230_Functions/DGC_A230_Motor_Functions.c **** 	M1_Torque_Setting = CFG_parameter.Braking_Force;
 5427                             		.loc 1 2677 0
 5428 0028 AF 00 00                		movw	ax, !_CFG_parameter+94
 5429 002b BD F0                   		movw	r8, ax
 5430 002d BF 00 00                		movw	!_M1_Torque_Setting, ax
2678:../DGC_A230_Functions/DGC_A230_Motor_Functions.c **** 	M2_Torque_Setting = CFG_parameter.Braking_Force;
 5431                             		.loc 1 2678 0
 5432 0030 AF 00 00                		movw	ax, !_CFG_parameter+94
 5433 0033 BD F0                   		movw	r8, ax
 5434 0035 BF 00 00                		movw	!_M2_Torque_Setting, ax
2679:../DGC_A230_Functions/DGC_A230_Motor_Functions.c **** 
2680:../DGC_A230_Functions/DGC_A230_Motor_Functions.c **** 	if (Current_Direction == OPEN_MOVING_DIRECTION)
 5435                             		.loc 1 2680 0
 5436 0038 88 04                   		mov	a, [sp+4]
 5437 003a D1                      		cmp0	a
 5438 003b 61 E8                   		 skz
 5439 003d EC 4D 00 00             		 br	!!.L271
2681:../DGC_A230_Functions/DGC_A230_Motor_Functions.c **** 	{
2682:../DGC_A230_Functions/DGC_A230_Motor_Functions.c **** 		Motor1_Close_Enable();
 5440                             		.loc 1 2682 0
 5441 0041 FC 00 00 00             		call	!!%code(_Motor1_Close_Enable)
2683:../DGC_A230_Functions/DGC_A230_Motor_Functions.c **** 		Motor2_Close_Enable();
 5442                             		.loc 1 2683 0
 5443 0045 FC 00 00 00             		call	!!%code(_Motor2_Close_Enable)
 5444 0049 EC 55 00 00             		br	!!.L272
 5445                             	.L271:
2684:../DGC_A230_Functions/DGC_A230_Motor_Functions.c **** 	}
2685:../DGC_A230_Functions/DGC_A230_Motor_Functions.c **** 	else
2686:../DGC_A230_Functions/DGC_A230_Motor_Functions.c **** 	{
2687:../DGC_A230_Functions/DGC_A230_Motor_Functions.c **** 		Motor1_Open_Enable();
 5446                             		.loc 1 2687 0
 5447 004d FC 00 00 00             		call	!!%code(_Motor1_Open_Enable)
2688:../DGC_A230_Functions/DGC_A230_Motor_Functions.c **** 		Motor2_Open_Enable();
 5448                             		.loc 1 2688 0
 5449 0051 FC 00 00 00             		call	!!%code(_Motor2_Open_Enable)
 5450                             	.L272:
2689:../DGC_A230_Functions/DGC_A230_Motor_Functions.c **** 	}
2690:../DGC_A230_Functions/DGC_A230_Motor_Functions.c **** 
2691:../DGC_A230_Functions/DGC_A230_Motor_Functions.c **** 	Brake_Tick_Count = 0;
 5451                             		.loc 1 2691 0
 5452 0055 F6                      		clrw	ax
 5453 0056 BF 00 00                		movw	!_Brake_Tick_Count, ax
2692:../DGC_A230_Functions/DGC_A230_Motor_Functions.c **** 	Braking_Time_Enable = 0x01;
 5454                             		.loc 1 2692 0
 5455 0059 E5 00 00                		oneb	!_Braking_Time_Enable
2693:../DGC_A230_Functions/DGC_A230_Motor_Functions.c **** 	while(Braking_Time_Enable == 0x01);
 5456                             		.loc 1 2693 0
 5457 005c 00                      		nop
 5458                             	.L273:
 5459                             		.loc 1 2693 0 is_stmt 0 discriminator 1
 5460 005d 8F 00 00                		mov	a, !_Braking_Time_Enable
 5461 0060 9D F0                   		mov	r8, a
 5462 0062 4A F0 01                		cmp	r8, #1
 5463 0065 61 F8                   		 sknz
 5464 0067 EC 5D 00 00             		 br	!!.L273
2694:../DGC_A230_Functions/DGC_A230_Motor_Functions.c **** }
 5465                             		.loc 1 2694 0 is_stmt 1
 5466 006b D7                      		ret
 5467                             	.LFE46:
 5469                             		.section	.text.__Do_Brake_Motor_Type_3,"ax",@progbits
 5470                             		.global	___Do_Brake_Motor_Type_3
 5472                             	___Do_Brake_Motor_Type_3:
 5473                             	.LFB47:
2695:../DGC_A230_Functions/DGC_A230_Motor_Functions.c **** 
2696:../DGC_A230_Functions/DGC_A230_Motor_Functions.c **** void __Do_Brake_Motor_Type_3 (uint8_t Current_Direction)
2697:../DGC_A230_Functions/DGC_A230_Motor_Functions.c **** {
 5474                             		.loc 1 2697 0
2698:../DGC_A230_Functions/DGC_A230_Motor_Functions.c **** 	Motor2_Disable();
 5475                             		.loc 1 2698 0
 5476 0000 FC 00 00 00             		call	!!%code(_Motor2_Disable)
2699:../DGC_A230_Functions/DGC_A230_Motor_Functions.c **** 
2700:../DGC_A230_Functions/DGC_A230_Motor_Functions.c **** 	Disable_Tick_Count = 0;
 5477                             		.loc 1 2700 0
 5478 0004 F6                      		clrw	ax
 5479 0005 BF 00 00                		movw	!_Disable_Tick_Count, ax
2701:../DGC_A230_Functions/DGC_A230_Motor_Functions.c **** 	Disable_Time_Enable = 0x01;
 5480                             		.loc 1 2701 0
 5481 0008 E5 00 00                		oneb	!_Disable_Time_Enable
2702:../DGC_A230_Functions/DGC_A230_Motor_Functions.c **** 	while (Disable_Time_Enable == 0x01);
 5482                             		.loc 1 2702 0
 5483 000b 00                      		nop
 5484                             	.L275:
 5485                             		.loc 1 2702 0 is_stmt 0 discriminator 1
 5486 000c 8F 00 00                		mov	a, !_Disable_Time_Enable
 5487 000f 9D F0                   		mov	r8, a
 5488 0011 4A F0 01                		cmp	r8, #1
 5489 0014 61 F8                   		 sknz
 5490 0016 EC 0C 00 00             		 br	!!.L275
2703:../DGC_A230_Functions/DGC_A230_Motor_Functions.c **** 
2704:../DGC_A230_Functions/DGC_A230_Motor_Functions.c **** 	M2_Timestamp = BRAKING_TIMESTAMP;
 5491                             		.loc 1 2704 0 is_stmt 1
 5492 001a 51 06                   		mov	a, #6
 5493 001c 9F 00 00                		mov	!_M2_Timestamp, a
2705:../DGC_A230_Functions/DGC_A230_Motor_Functions.c **** 	M2_Torque_Setting = CFG_parameter.Braking_Force;
 5494                             		.loc 1 2705 0
 5495 001f AF 00 00                		movw	ax, !_CFG_parameter+94
 5496 0022 BD F0                   		movw	r8, ax
 5497 0024 BF 00 00                		movw	!_M2_Torque_Setting, ax
2706:../DGC_A230_Functions/DGC_A230_Motor_Functions.c **** 
2707:../DGC_A230_Functions/DGC_A230_Motor_Functions.c **** 	if (Current_Direction == OPEN_MOVING_DIRECTION)
 5498                             		.loc 1 2707 0
 5499 0027 88 04                   		mov	a, [sp+4]
 5500 0029 D1                      		cmp0	a
 5501 002a 61 E8                   		 skz
 5502 002c EC 38 00 00             		 br	!!.L276
2708:../DGC_A230_Functions/DGC_A230_Motor_Functions.c **** 	{
2709:../DGC_A230_Functions/DGC_A230_Motor_Functions.c **** 		Motor2_Close_Enable();
 5503                             		.loc 1 2709 0
 5504 0030 FC 00 00 00             		call	!!%code(_Motor2_Close_Enable)
 5505 0034 EC 3C 00 00             		br	!!.L277
 5506                             	.L276:
2710:../DGC_A230_Functions/DGC_A230_Motor_Functions.c **** 	}
2711:../DGC_A230_Functions/DGC_A230_Motor_Functions.c **** 	else
2712:../DGC_A230_Functions/DGC_A230_Motor_Functions.c **** 	{
2713:../DGC_A230_Functions/DGC_A230_Motor_Functions.c **** 		Motor2_Open_Enable();
 5507                             		.loc 1 2713 0
 5508 0038 FC 00 00 00             		call	!!%code(_Motor2_Open_Enable)
 5509                             	.L277:
2714:../DGC_A230_Functions/DGC_A230_Motor_Functions.c **** 	}
2715:../DGC_A230_Functions/DGC_A230_Motor_Functions.c **** 
2716:../DGC_A230_Functions/DGC_A230_Motor_Functions.c **** 	Brake_Tick_Count = 0;
 5510                             		.loc 1 2716 0
 5511 003c F6                      		clrw	ax
 5512 003d BF 00 00                		movw	!_Brake_Tick_Count, ax
2717:../DGC_A230_Functions/DGC_A230_Motor_Functions.c **** 	Braking_Time_Enable = 0x01;
 5513                             		.loc 1 2717 0
 5514 0040 E5 00 00                		oneb	!_Braking_Time_Enable
2718:../DGC_A230_Functions/DGC_A230_Motor_Functions.c **** 	while(Braking_Time_Enable == 0x01);
 5515                             		.loc 1 2718 0
 5516 0043 00                      		nop
 5517                             	.L278:
 5518                             		.loc 1 2718 0 is_stmt 0 discriminator 1
 5519 0044 8F 00 00                		mov	a, !_Braking_Time_Enable
 5520 0047 9D F0                   		mov	r8, a
 5521 0049 4A F0 01                		cmp	r8, #1
 5522 004c 61 F8                   		 sknz
 5523 004e EC 44 00 00             		 br	!!.L278
2719:../DGC_A230_Functions/DGC_A230_Motor_Functions.c **** }
 5524                             		.loc 1 2719 0 is_stmt 1
 5525 0052 D7                      		ret
 5526                             	.LFE47:
 5528                             		.section	.text.__Do_Partial_Open_Gate,"ax",@progbits
 5529                             		.global	___Do_Partial_Open_Gate
 5531                             	___Do_Partial_Open_Gate:
 5532                             	.LFB48:
2720:../DGC_A230_Functions/DGC_A230_Motor_Functions.c **** 
2721:../DGC_A230_Functions/DGC_A230_Motor_Functions.c **** void __Do_Partial_Open_Gate (void)
2722:../DGC_A230_Functions/DGC_A230_Motor_Functions.c **** {
 5533                             		.loc 1 2722 0
 5534                             		; start of function
 5535                             		; outgoing: 2 bytes
 5536                             		; uses ES register
 5537 0000 20 02                   		subw	sp, #2
 5538                             	.LCFI18:
2723:../DGC_A230_Functions/DGC_A230_Motor_Functions.c **** 	Prepare_To_Partial_Moving(OPEN_MOVING_DIRECTION);
 5539                             		.loc 1 2723 0
 5540 0002 F1                      		clrb	a
 5541 0003 98 00                   		mov	[sp], a
 5542 0005 FC 00 00 00             		call	!!%code(_Prepare_To_Partial_Moving)
2724:../DGC_A230_Functions/DGC_A230_Motor_Functions.c **** 
2725:../DGC_A230_Functions/DGC_A230_Motor_Functions.c **** 	TRIG_EN = 1;			// Enable Pulse out to control Motor
 5543                             		.loc 1 2725 0
 5544 0009 C9 F0 03 FF             		movw	r8, #-253
 5545 000d AD F0                   		movw	ax, r8
 5546 000f BD F4                   		movw	r12, ax
 5547 0011 FA F4                   		movw	hl, r12
 5548 0013 8B                      		mov	a, [hl]
 5549 0014 9D F2                   		mov	r10, a
 5550 0016 6A F2 01                		or	r10, #1
 5551 0019 AD F0                   		movw	ax, r8
 5552 001b EA F4                   		movw	de, r12
 5553 001d 8D F2                   		mov	a, r10
 5554 001f 99                      		mov	[de], a
2726:../DGC_A230_Functions/DGC_A230_Motor_Functions.c **** 	R_INTC0_Start();												// Enable Sync to control, Motor 1 start opening
 5555                             		.loc 1 2726 0
 5556 0020 FC 00 00 00             		call	!!%code(_R_INTC0_Start)
2727:../DGC_A230_Functions/DGC_A230_Motor_Functions.c **** 
2728:../DGC_A230_Functions/DGC_A230_Motor_Functions.c **** 	Motor1_Open_Enable();										// Enable Motor #1 to Open
 5557                             		.loc 1 2728 0
 5558 0024 FC 00 00 00             		call	!!%code(_Motor1_Open_Enable)
2729:../DGC_A230_Functions/DGC_A230_Motor_Functions.c **** 	Leaf_No1_State = GATE_STATE_OPENING;
 5559                             		.loc 1 2729 0
 5560 0028 51 02                   		mov	a, #2
 5561 002a 9F 00 00                		mov	!_Leaf_No1_State, a
2730:../DGC_A230_Functions/DGC_A230_Motor_Functions.c **** 
2731:../DGC_A230_Functions/DGC_A230_Motor_Functions.c **** 	Tick_Count = 0;								// Reset Tick count
 5562                             		.loc 1 2731 0
 5563 002d F6                      		clrw	ax
 5564 002e BF 00 00                		movw	!_Tick_Count, ax
2732:../DGC_A230_Functions/DGC_A230_Motor_Functions.c **** 	M1_Tick_Count = 0;
 5565                             		.loc 1 2732 0
 5566 0031 F6                      		clrw	ax
 5567 0032 BF 00 00                		movw	!_M1_Tick_Count, ax
2733:../DGC_A230_Functions/DGC_A230_Motor_Functions.c **** 	M1_Position_Count = 0;
 5568                             		.loc 1 2733 0
 5569 0035 F6                      		clrw	ax
 5570 0036 BF 00 00                		movw	!_M1_Position_Count, ax
2734:../DGC_A230_Functions/DGC_A230_Motor_Functions.c **** 
2735:../DGC_A230_Functions/DGC_A230_Motor_Functions.c **** 	Machine_State = MACHINE_STATE_PARTIAL_OPENING;
 5571                             		.loc 1 2735 0
 5572 0039 51 03                   		mov	a, #3
 5573 003b 9F 00 00                		mov	!_Machine_State, a
2736:../DGC_A230_Functions/DGC_A230_Motor_Functions.c **** 
2737:../DGC_A230_Functions/DGC_A230_Motor_Functions.c **** 	R_TAU0_Channel1_Start();					// Start Timer channel 1
 5574                             		.loc 1 2737 0
 5575 003e FC 00 00 00             		call	!!%code(_R_TAU0_Channel1_Start)
2738:../DGC_A230_Functions/DGC_A230_Motor_Functions.c **** }
 5576                             		.loc 1 2738 0
 5577 0042 10 02                   		addw	sp, #2
 5578 0044 D7                      		ret
 5579                             	.LFE48:
 5581                             		.section	.text.__Do_Partial_Close_Gate,"ax",@progbits
 5582                             		.global	___Do_Partial_Close_Gate
 5584                             	___Do_Partial_Close_Gate:
 5585                             	.LFB49:
2739:../DGC_A230_Functions/DGC_A230_Motor_Functions.c **** 
2740:../DGC_A230_Functions/DGC_A230_Motor_Functions.c **** void __Do_Partial_Close_Gate (void)
2741:../DGC_A230_Functions/DGC_A230_Motor_Functions.c **** {
 5586                             		.loc 1 2741 0
 5587                             		; start of function
 5588                             		; outgoing: 2 bytes
 5589                             		; uses ES register
 5590 0000 20 02                   		subw	sp, #2
 5591                             	.LCFI19:
2742:../DGC_A230_Functions/DGC_A230_Motor_Functions.c **** 	Prepare_To_Partial_Moving(CLOSE_MOVING_DIRECTION);
 5592                             		.loc 1 2742 0
 5593 0002 E1                      		oneb	a
 5594 0003 98 00                   		mov	[sp], a
 5595 0005 FC 00 00 00             		call	!!%code(_Prepare_To_Partial_Moving)
2743:../DGC_A230_Functions/DGC_A230_Motor_Functions.c **** 
2744:../DGC_A230_Functions/DGC_A230_Motor_Functions.c **** 	TRIG_EN = 1;			// Enable Pulse out to control Motor
 5596                             		.loc 1 2744 0
 5597 0009 C9 F0 03 FF             		movw	r8, #-253
 5598 000d AD F0                   		movw	ax, r8
 5599 000f BD F4                   		movw	r12, ax
 5600 0011 FA F4                   		movw	hl, r12
 5601 0013 8B                      		mov	a, [hl]
 5602 0014 9D F2                   		mov	r10, a
 5603 0016 6A F2 01                		or	r10, #1
 5604 0019 AD F0                   		movw	ax, r8
 5605 001b EA F4                   		movw	de, r12
 5606 001d 8D F2                   		mov	a, r10
 5607 001f 99                      		mov	[de], a
2745:../DGC_A230_Functions/DGC_A230_Motor_Functions.c **** 	R_INTC0_Start();												// Enable Sync to control, Motor 1 start opening
 5608                             		.loc 1 2745 0
 5609 0020 FC 00 00 00             		call	!!%code(_R_INTC0_Start)
2746:../DGC_A230_Functions/DGC_A230_Motor_Functions.c **** 
2747:../DGC_A230_Functions/DGC_A230_Motor_Functions.c **** 	Motor1_Close_Enable();										// Enable Motor #1 to Open
 5610                             		.loc 1 2747 0
 5611 0024 FC 00 00 00             		call	!!%code(_Motor1_Close_Enable)
2748:../DGC_A230_Functions/DGC_A230_Motor_Functions.c **** 	Leaf_No1_State = GATE_STATE_CLOSING;
 5612                             		.loc 1 2748 0
 5613 0028 51 04                   		mov	a, #4
 5614 002a 9F 00 00                		mov	!_Leaf_No1_State, a
2749:../DGC_A230_Functions/DGC_A230_Motor_Functions.c **** 
2750:../DGC_A230_Functions/DGC_A230_Motor_Functions.c **** 	Tick_Count = 0;								// Reset Tick count
 5615                             		.loc 1 2750 0
 5616 002d F6                      		clrw	ax
 5617 002e BF 00 00                		movw	!_Tick_Count, ax
2751:../DGC_A230_Functions/DGC_A230_Motor_Functions.c **** 	M1_Tick_Count = 0;
 5618                             		.loc 1 2751 0
 5619 0031 F6                      		clrw	ax
 5620 0032 BF 00 00                		movw	!_M1_Tick_Count, ax
2752:../DGC_A230_Functions/DGC_A230_Motor_Functions.c **** 	M1_Position_Count = 0;
 5621                             		.loc 1 2752 0
 5622 0035 F6                      		clrw	ax
 5623 0036 BF 00 00                		movw	!_M1_Position_Count, ax
2753:../DGC_A230_Functions/DGC_A230_Motor_Functions.c **** 
2754:../DGC_A230_Functions/DGC_A230_Motor_Functions.c **** 	Machine_State = MACHINE_STATE_PARTIAL_CLOSING;
 5624                             		.loc 1 2754 0
 5625 0039 51 04                   		mov	a, #4
 5626 003b 9F 00 00                		mov	!_Machine_State, a
2755:../DGC_A230_Functions/DGC_A230_Motor_Functions.c **** 
2756:../DGC_A230_Functions/DGC_A230_Motor_Functions.c **** 	R_TAU0_Channel1_Start();					// Start Timer channel 1
 5627                             		.loc 1 2756 0
 5628 003e FC 00 00 00             		call	!!%code(_R_TAU0_Channel1_Start)
2757:../DGC_A230_Functions/DGC_A230_Motor_Functions.c **** }
 5629                             		.loc 1 2757 0
 5630 0042 10 02                   		addw	sp, #2
 5631 0044 D7                      		ret
 5632                             	.LFE49:
 5634                             		.section	.text.__Do_Partial_Stop_Gate,"ax",@progbits
 5635                             		.global	___Do_Partial_Stop_Gate
 5637                             	___Do_Partial_Stop_Gate:
 5638                             	.LFB50:
2758:../DGC_A230_Functions/DGC_A230_Motor_Functions.c **** 
2759:../DGC_A230_Functions/DGC_A230_Motor_Functions.c **** void __Do_Partial_Stop_Gate (uint8_t Moving_Direction)
2760:../DGC_A230_Functions/DGC_A230_Motor_Functions.c **** {
 5639                             		.loc 1 2760 0
2761:../DGC_A230_Functions/DGC_A230_Motor_Functions.c **** 	R_TAU0_Channel1_Stop();										// Stop Timer channel 1
 5640                             		.loc 1 2761 0
 5641 0000 FC 00 00 00             		call	!!%code(_R_TAU0_Channel1_Stop)
2762:../DGC_A230_Functions/DGC_A230_Motor_Functions.c **** 	R_INTC0_Stop();												// Enable Sync to control, Motor 1 start opening
 5642                             		.loc 1 2762 0
 5643 0004 FC 00 00 00             		call	!!%code(_R_INTC0_Stop)
2763:../DGC_A230_Functions/DGC_A230_Motor_Functions.c **** 	TRIG_EN = 0;			// Enable Pulse out to control Motor
 5644                             		.loc 1 2763 0
 5645 0008 C9 F0 03 FF             		movw	r8, #-253
 5646 000c AD F0                   		movw	ax, r8
 5647 000e BD F4                   		movw	r12, ax
 5648 0010 FA F4                   		movw	hl, r12
 5649 0012 8B                      		mov	a, [hl]
 5650 0013 9D F2                   		mov	r10, a
 5651 0015 5A F2 FE                		and	r10, #-2
 5652 0018 AD F0                   		movw	ax, r8
 5653 001a EA F4                   		movw	de, r12
 5654 001c 8D F2                   		mov	a, r10
 5655 001e 99                      		mov	[de], a
2764:../DGC_A230_Functions/DGC_A230_Motor_Functions.c **** 	M1_PWM = 1;					// Clear Trigger Pulse Output
 5656                             		.loc 1 2764 0
 5657 001f C9 F0 00 FF             		movw	r8, #-256
 5658 0023 AD F0                   		movw	ax, r8
 5659 0025 BD F4                   		movw	r12, ax
 5660 0027 FA F4                   		movw	hl, r12
 5661 0029 8B                      		mov	a, [hl]
 5662 002a 9D F2                   		mov	r10, a
 5663 002c 6A F2 40                		or	r10, #64
 5664 002f AD F0                   		movw	ax, r8
 5665 0031 EA F4                   		movw	de, r12
 5666 0033 8D F2                   		mov	a, r10
 5667 0035 99                      		mov	[de], a
2765:../DGC_A230_Functions/DGC_A230_Motor_Functions.c **** 	M2_PWM = 1;					// Clear M2 PWM Pulse Output
 5668                             		.loc 1 2765 0
 5669 0036 C9 F0 00 FF             		movw	r8, #-256
 5670 003a AD F0                   		movw	ax, r8
 5671 003c BD F4                   		movw	r12, ax
 5672 003e FA F4                   		movw	hl, r12
 5673 0040 8B                      		mov	a, [hl]
 5674 0041 9D F2                   		mov	r10, a
 5675 0043 6A F2 20                		or	r10, #32
 5676 0046 AD F0                   		movw	ax, r8
 5677 0048 EA F4                   		movw	de, r12
 5678 004a 8D F2                   		mov	a, r10
 5679 004c 99                      		mov	[de], a
2766:../DGC_A230_Functions/DGC_A230_Motor_Functions.c **** 
2767:../DGC_A230_Functions/DGC_A230_Motor_Functions.c **** 	Motor1_Disable();
 5680                             		.loc 1 2767 0
 5681 004d FC 00 00 00             		call	!!%code(_Motor1_Disable)
2768:../DGC_A230_Functions/DGC_A230_Motor_Functions.c **** 
2769:../DGC_A230_Functions/DGC_A230_Motor_Functions.c **** 	Stop_Timer_Enable = 1;
 5682                             		.loc 1 2769 0
 5683 0051 E5 00 00                		oneb	!_Stop_Timer_Enable
2770:../DGC_A230_Functions/DGC_A230_Motor_Functions.c **** 	Stop_Timer_Counter = 0;
 5684                             		.loc 1 2770 0
 5685 0054 F5 00 00                		clrb	!_Stop_Timer_Counter
2771:../DGC_A230_Functions/DGC_A230_Motor_Functions.c **** 	while (Stop_Timer_Enable == 1);
 5686                             		.loc 1 2771 0
 5687 0057 00                      		nop
 5688                             	.L282:
 5689                             		.loc 1 2771 0 is_stmt 0 discriminator 1
 5690 0058 8F 00 00                		mov	a, !_Stop_Timer_Enable
 5691 005b 9D F0                   		mov	r8, a
 5692 005d 4A F0 01                		cmp	r8, #1
 5693 0060 61 F8                   		 sknz
 5694 0062 EC 58 00 00             		 br	!!.L282
2772:../DGC_A230_Functions/DGC_A230_Motor_Functions.c **** 
2773:../DGC_A230_Functions/DGC_A230_Motor_Functions.c **** 	if (Moving_Direction == OPEN_MOVING_DIRECTION)
 5695                             		.loc 1 2773 0 is_stmt 1
 5696 0066 88 04                   		mov	a, [sp+4]
 5697 0068 D1                      		cmp0	a
 5698 0069 61 E8                   		 skz
 5699 006b EC AA 00 00             		 br	!!.L283
2774:../DGC_A230_Functions/DGC_A230_Motor_Functions.c **** 	{
2775:../DGC_A230_Functions/DGC_A230_Motor_Functions.c **** 		if (Leaf_No1_State != GATE_STATE_PARTIAL)
 5700                             		.loc 1 2775 0
 5701 006f 8F 00 00                		mov	a, !_Leaf_No1_State
 5702 0072 9D F0                   		mov	r8, a
 5703 0074 4A F0 05                		cmp	r8, #5
 5704 0077 61 F8                   		 sknz
 5705 0079 EC 99 00 00             		 br	!!.L284
2776:../DGC_A230_Functions/DGC_A230_Motor_Functions.c **** 		{
2777:../DGC_A230_Functions/DGC_A230_Motor_Functions.c **** //			if (M1_Tick_Count > CFG_parameter.Motor_Maximum_Boost_Time)
2778:../DGC_A230_Functions/DGC_A230_Motor_Functions.c **** //				M1_Tick_Count -= CFG_parameter.Motor_Maximum_Boost_Time;
2779:../DGC_A230_Functions/DGC_A230_Motor_Functions.c **** 			M1_Time_Position = 	M1_Last_Time_Position +	M1_Position_Count;
 5706                             		.loc 1 2779 0
 5707 007d AF 00 00                		movw	ax, !_M1_Last_Time_Position
 5708 0080 BD F2                   		movw	r10, ax
 5709 0082 AF 00 00                		movw	ax, !_M1_Position_Count
 5710 0085 BD F0                   		movw	r8, ax
 5711 0087 AD F2                   		movw	ax, r10
 5712 0089 06 F0                   		addw	ax, r8
 5713 008b BD F0                   		movw	r8, ax
 5714 008d BF 00 00                		movw	!_M1_Time_Position, ax
2780:../DGC_A230_Functions/DGC_A230_Motor_Functions.c **** 			M1_Last_Time_Position = M1_Time_Position;
 5715                             		.loc 1 2780 0
 5716 0090 BD F0                   		movw	r8, ax
 5717 0092 BF 00 00                		movw	!_M1_Last_Time_Position, ax
 5718 0095 EC DD 00 00             		br	!!.L286
 5719                             	.L284:
2781:../DGC_A230_Functions/DGC_A230_Motor_Functions.c **** 		}
2782:../DGC_A230_Functions/DGC_A230_Motor_Functions.c **** 		else
2783:../DGC_A230_Functions/DGC_A230_Motor_Functions.c **** 		{
2784:../DGC_A230_Functions/DGC_A230_Motor_Functions.c **** 			M1_Time_Position = CFG_parameter.M1_Partial_Space;
 5720                             		.loc 1 2784 0
 5721 0099 AF 00 00                		movw	ax, !_CFG_parameter+28
 5722 009c BD F0                   		movw	r8, ax
 5723 009e BF 00 00                		movw	!_M1_Time_Position, ax
2785:../DGC_A230_Functions/DGC_A230_Motor_Functions.c **** 			M1_Last_Time_Position = M1_Time_Position;
 5724                             		.loc 1 2785 0
 5725 00a1 BD F0                   		movw	r8, ax
 5726 00a3 BF 00 00                		movw	!_M1_Last_Time_Position, ax
 5727 00a6 EC DD 00 00             		br	!!.L286
 5728                             	.L283:
2786:../DGC_A230_Functions/DGC_A230_Motor_Functions.c **** 		}
2787:../DGC_A230_Functions/DGC_A230_Motor_Functions.c **** 	}
2788:../DGC_A230_Functions/DGC_A230_Motor_Functions.c **** 	else
2789:../DGC_A230_Functions/DGC_A230_Motor_Functions.c **** 	{
2790:../DGC_A230_Functions/DGC_A230_Motor_Functions.c **** 		if (Leaf_No1_State != GATE_STATE_CLOSED)
 5729                             		.loc 1 2790 0
 5730 00aa 8F 00 00                		mov	a, !_Leaf_No1_State
 5731 00ad 9D F0                   		mov	r8, a
 5732 00af 4A F0 01                		cmp	r8, #1
 5733 00b2 61 F8                   		 sknz
 5734 00b4 EC D4 00 00             		 br	!!.L287
2791:../DGC_A230_Functions/DGC_A230_Motor_Functions.c **** 		{
2792:../DGC_A230_Functions/DGC_A230_Motor_Functions.c **** //			if (M1_Tick_Count > CFG_parameter.Motor_Maximum_Boost_Time) M1_Tick_Count -= CFG_parameter.Mot
2793:../DGC_A230_Functions/DGC_A230_Motor_Functions.c **** 			M1_Time_Position = 	M1_Last_Time_Position -	M1_Position_Count;
 5735                             		.loc 1 2793 0
 5736 00b8 AF 00 00                		movw	ax, !_M1_Last_Time_Position
 5737 00bb BD F2                   		movw	r10, ax
 5738 00bd AF 00 00                		movw	ax, !_M1_Position_Count
 5739 00c0 BD F0                   		movw	r8, ax
 5740 00c2 AD F2                   		movw	ax, r10
 5741 00c4 26 F0                   		subw	ax, r8
 5742 00c6 BD F0                   		movw	r8, ax
 5743 00c8 BF 00 00                		movw	!_M1_Time_Position, ax
2794:../DGC_A230_Functions/DGC_A230_Motor_Functions.c **** 			M1_Last_Time_Position = M1_Time_Position;
 5744                             		.loc 1 2794 0
 5745 00cb BD F0                   		movw	r8, ax
 5746 00cd BF 00 00                		movw	!_M1_Last_Time_Position, ax
 5747 00d0 EC DD 00 00             		br	!!.L286
 5748                             	.L287:
2795:../DGC_A230_Functions/DGC_A230_Motor_Functions.c **** 		}
2796:../DGC_A230_Functions/DGC_A230_Motor_Functions.c **** 		else
2797:../DGC_A230_Functions/DGC_A230_Motor_Functions.c **** 		{
2798:../DGC_A230_Functions/DGC_A230_Motor_Functions.c **** 			M1_Time_Position = 0;
 5749                             		.loc 1 2798 0
 5750 00d4 F6                      		clrw	ax
 5751 00d5 BF 00 00                		movw	!_M1_Time_Position, ax
2799:../DGC_A230_Functions/DGC_A230_Motor_Functions.c **** 			M1_Last_Time_Position = M1_Time_Position;
 5752                             		.loc 1 2799 0
 5753 00d8 BD F0                   		movw	r8, ax
 5754 00da BF 00 00                		movw	!_M1_Last_Time_Position, ax
 5755                             	.L286:
2800:../DGC_A230_Functions/DGC_A230_Motor_Functions.c **** 		}
2801:../DGC_A230_Functions/DGC_A230_Motor_Functions.c **** 	}
2802:../DGC_A230_Functions/DGC_A230_Motor_Functions.c **** 
2803:../DGC_A230_Functions/DGC_A230_Motor_Functions.c **** 	Machine_State = MACHINE_STATE_STOP;
 5756                             		.loc 1 2803 0
 5757 00dd F5 00 00                		clrb	!_Machine_State
2804:../DGC_A230_Functions/DGC_A230_Motor_Functions.c **** 
2805:../DGC_A230_Functions/DGC_A230_Motor_Functions.c **** 	Flash_Enable = 0;
 5758                             		.loc 1 2805 0
 5759 00e0 F5 00 00                		clrb	!_Flash_Enable
2806:../DGC_A230_Functions/DGC_A230_Motor_Functions.c **** 	FLASH = 0;
 5760                             		.loc 1 2806 0
 5761 00e3 C9 F0 02 FF             		movw	r8, #-254
 5762 00e7 AD F0                   		movw	ax, r8
 5763 00e9 BD F4                   		movw	r12, ax
 5764 00eb FA F4                   		movw	hl, r12
 5765 00ed 8B                      		mov	a, [hl]
 5766 00ee 9D F2                   		mov	r10, a
 5767 00f0 5A F2 FD                		and	r10, #-3
 5768 00f3 AD F0                   		movw	ax, r8
 5769 00f5 EA F4                   		movw	de, r12
 5770 00f7 8D F2                   		mov	a, r10
 5771 00f9 99                      		mov	[de], a
2807:../DGC_A230_Functions/DGC_A230_Motor_Functions.c **** 	Courtesy_Light_After_Maneuver_Is_Complete();
 5772                             		.loc 1 2807 0
 5773 00fa FC 00 00 00             		call	!!%code(_Courtesy_Light_After_Maneuver_Is_Complete)
2808:../DGC_A230_Functions/DGC_A230_Motor_Functions.c **** 
2809:../DGC_A230_Functions/DGC_A230_Motor_Functions.c **** //	if ((Leaf_No1_State == GATE_STATE_CLOSED)
2810:../DGC_A230_Functions/DGC_A230_Motor_Functions.c **** //		|| (Leaf_No1_State == GATE_STATE_OPENED)
2811:../DGC_A230_Functions/DGC_A230_Motor_Functions.c **** //		|| (Leaf_No1_State == GATE_STATE_PARTIAL))
2812:../DGC_A230_Functions/DGC_A230_Motor_Functions.c **** //	{
2813:../DGC_A230_Functions/DGC_A230_Motor_Functions.c **** //		Flash_Enable = 0;
2814:../DGC_A230_Functions/DGC_A230_Motor_Functions.c **** //		FLASH = 0;
2815:../DGC_A230_Functions/DGC_A230_Motor_Functions.c **** //		Courtesy_Light_After_Maneuver_Is_Complete();
2816:../DGC_A230_Functions/DGC_A230_Motor_Functions.c **** //	}
2817:../DGC_A230_Functions/DGC_A230_Motor_Functions.c **** }
 5774                             		.loc 1 2817 0
 5775 00fe D7                      		ret
 5776                             	.LFE50:
 6284                             	.Letext0:
 6285                             		.file 2 "E:/AIoT/Code/Rogger/Test_new/DGC_A230_6_Rev_1_0_Software/generate/iodefine.h"
 6286                             		.file 3 "E:\\AIoT\\Code\\Rogger\\Test_new\\DGC_A230_6_Rev_1_0_Software\\src/r_cg_macrodriver.h"
 6287                             		.file 4 "E:\\AIoT\\Code\\Rogger\\Test_new\\DGC_A230_6_Rev_1_0_Software\\DGC_A230_Functions/DGC_A23
