   1                             	r8	=	0xffef0
   2                             	r16	=	0xffee8
   3                             	r24	=	0xffee0
   4                             	r9	=	0xffef1
   5                             	r17	=	0xffee9
   6                             	r25	=	0xffee1
   7                             	r10	=	0xffef2
   8                             	r18	=	0xffeea
   9                             	r26	=	0xffee2
  10                             	r11	=	0xffef3
  11                             	r19	=	0xffeeb
  12                             	r27	=	0xffee3
  13                             	r12	=	0xffef4
  14                             	r20	=	0xffeec
  15                             	r28	=	0xffee4
  16                             	r13	=	0xffef5
  17                             	r21	=	0xffeed
  18                             	r29	=	0xffee5
  19                             	r14	=	0xffef6
  20                             	r22	=	0xffeee
  21                             	r30	=	0xffee6
  22                             	r15	=	0xffef7
  23                             	r23	=	0xffeef
  24                             	r31	=	0xffee7
  25                             	MDUC	=	0xf00e8
  26                             	MDAL	=	0xffff0
  27                             	MDAH	=	0xffff2
  28                             	MDBL	=	0xffff6
  29                             	MDBH	=	0xffff4
  30                             	MDCL	=	0xf00e0
  31                             	MDCH	=	0xf00e2
  32                             	.text
  33                             	.Ltext0:
  34                             		.comm	_Key_Tick_Count,2,2
  35                             		.comm	_CFG_parameter,114,2
  36                             		.global	_CFG_Paramenters_Index
  37                             		.section	.data.CFG_Paramenters_Index,"aw",@progbits
  40                             	_CFG_Paramenters_Index:
  41 0000 01                      		.byte	1
  42                             		.comm	_CFG_Parameters_Value,128,1
  43                             		.global	_CFG_Parameters_Name
  44                             		.section	.rodata.CFG_Parameters_Name,"a",@progbits
  47                             	_CFG_Parameters_Name:
  48 0000 2D 2D                   		.ascii	"--"
  49 0002 41 31                   		.ascii	"A1"
  50 0004 41 32                   		.ascii	"A2"
  51 0006 41 33                   		.ascii	"A3"
  52 0008 41 34                   		.ascii	"A4"
  53 000a 41 35                   		.ascii	"A5"
  54 000c 41 36                   		.ascii	"A6"
  55 000e 41 37                   		.ascii	"A7"
  56 0010 41 38                   		.ascii	"A8"
  57 0012 2D 2D                   		.ascii	"--"
  58 0014 2D 2D                   		.ascii	"--"
  59 0016 31 31                   		.ascii	"11"
  60 0018 31 32                   		.ascii	"12"
  61 001a 2D 2D                   		.ascii	"--"
  62 001c 2D 2D                   		.ascii	"--"
  63 001e 31 35                   		.ascii	"15"
  64 0020 31 36                   		.ascii	"16"
  65 0022 2D 2D                   		.ascii	"--"
  66 0024 2D 2D                   		.ascii	"--"
  67 0026 2D 2D                   		.ascii	"--"
  68 0028 2D 2D                   		.ascii	"--"
  69 002a 32 31                   		.ascii	"21"
  70 002c 32 32                   		.ascii	"22"
  71 002e 32 33                   		.ascii	"23"
  72 0030 32 34                   		.ascii	"24"
  73 0032 32 35                   		.ascii	"25"
  74 0034 32 36                   		.ascii	"26"
  75 0036 32 37                   		.ascii	"27"
  76 0038 32 38                   		.ascii	"28"
  77 003a 32 39                   		.ascii	"29"
  78 003c 33 30                   		.ascii	"30"
  79 003e 33 31                   		.ascii	"31"
  80 0040 33 32                   		.ascii	"32"
  81 0042 33 33                   		.ascii	"33"
  82 0044 33 34                   		.ascii	"34"
  83 0046 33 35                   		.ascii	"35"
  84 0048 33 36                   		.ascii	"36"
  85 004a 33 37                   		.ascii	"37"
  86 004c 33 38                   		.ascii	"38"
  87 004e 2D 2D                   		.ascii	"--"
  88 0050 2D 2D                   		.ascii	"--"
  89 0052 34 31                   		.ascii	"41"
  90 0054 2D 2D                   		.ascii	"--"
  91 0056 2D 2D                   		.ascii	"--"
  92 0058 2D 2D                   		.ascii	"--"
  93 005a 2D 2D                   		.ascii	"--"
  94 005c 2D 2D                   		.ascii	"--"
  95 005e 2D 2D                   		.ascii	"--"
  96 0060 2D 2D                   		.ascii	"--"
  97 0062 34 39                   		.ascii	"49"
  98 0064 35 30                   		.ascii	"50"
  99 0066 35 31                   		.ascii	"51"
 100 0068 35 32                   		.ascii	"52"
 101 006a 35 33                   		.ascii	"53"
 102 006c 35 34                   		.ascii	"54"
 103 006e 35 35                   		.ascii	"55"
 104 0070 35 36                   		.ascii	"56"
 105 0072 2D 2D                   		.ascii	"--"
 106 0074 2D 2D                   		.ascii	"--"
 107 0076 2D 2D                   		.ascii	"--"
 108 0078 36 30                   		.ascii	"60"
 109 007a 36 31                   		.ascii	"61"
 110 007c 36 32                   		.ascii	"62"
 111 007e 36 33                   		.ascii	"63"
 112 0080 36 34                   		.ascii	"64"
 113 0082 36 35                   		.ascii	"65"
 114 0084 2D 2D                   		.ascii	"--"
 115 0086 2D 2D                   		.ascii	"--"
 116 0088 2D 2D                   		.ascii	"--"
 117 008a 2D 2D                   		.ascii	"--"
 118 008c 37 30                   		.ascii	"70"
 119 008e 2D 2D                   		.ascii	"--"
 120 0090 37 32                   		.ascii	"72"
 121 0092 37 33                   		.ascii	"73"
 122 0094 37 34                   		.ascii	"74"
 123 0096 37 35                   		.ascii	"75"
 124 0098 37 36                   		.ascii	"76"
 125 009a 37 37                   		.ascii	"77"
 126 009c 37 38                   		.ascii	"78"
 127 009e 37 39                   		.ascii	"79"
 128 00a0 38 30                   		.ascii	"80"
 129 00a2 2D 2D                   		.ascii	"--"
 130 00a4 2D 2D                   		.ascii	"--"
 131 00a6 2D 2D                   		.ascii	"--"
 132 00a8 2D 2D                   		.ascii	"--"
 133 00aa 2D 2D                   		.ascii	"--"
 134 00ac 2D 2D                   		.ascii	"--"
 135 00ae 2D 2D                   		.ascii	"--"
 136 00b0 2D 2D                   		.ascii	"--"
 137 00b2 2D 2D                   		.ascii	"--"
 138 00b4 39 30                   		.ascii	"90"
 139 00b6 2D 2D                   		.ascii	"--"
 140 00b8 2D 2D                   		.ascii	"--"
 141 00ba 2D 2D                   		.ascii	"--"
 142 00bc 2D 2D                   		.ascii	"--"
 143 00be 2D 2D                   		.ascii	"--"
 144 00c0 2D 2D                   		.ascii	"--"
 145 00c2 2D 2D                   		.ascii	"--"
 146 00c4 2D 2D                   		.ascii	"--"
 147 00c6 2D 2D                   		.ascii	"--"
 148 00c8 6E 30                   		.ascii	"n0"
 149 00ca 6E 31                   		.ascii	"n1"
 150 00cc 6E 32                   		.ascii	"n2"
 151 00ce 6E 33                   		.ascii	"n3"
 152 00d0 6E 34                   		.ascii	"n4"
 153 00d2 6E 35                   		.ascii	"n5"
 154 00d4 6E 36                   		.ascii	"n6"
 155 00d6 6E 37                   		.ascii	"n7"
 156 00d8 6E 38                   		.ascii	"n8"
 157 00da 6E 39                   		.ascii	"n9"
 158 00dc 6F 30                   		.ascii	"o0"
 159 00de 6F 31                   		.ascii	"o1"
 160 00e0 2D 2D                   		.ascii	"--"
 161 00e2 68 30                   		.ascii	"h0"
 162 00e4 68 31                   		.ascii	"h1"
 163 00e6 64 30                   		.ascii	"d0"
 164 00e8 64 31                   		.ascii	"d1"
 165 00ea 2D 2D                   		.ascii	"--"
 166 00ec 2D 2D                   		.ascii	"--"
 167 00ee 2D 2D                   		.ascii	"--"
 168 00f0 50 31                   		.ascii	"P1"
 169 00f2 50 32                   		.ascii	"P2"
 170 00f4 50 33                   		.ascii	"P3"
 171 00f6 50 34                   		.ascii	"P4"
 172 00f8 43 50                   		.ascii	"CP"
 173 00fa 2D 2D                   		.ascii	"--"
 174 00fc 2D 2D                   		.ascii	"--"
 175 00fe 2D 2D                   		.ascii	"--"
 176                             		.global	_CFG_Parameters_Min_Value
 177                             		.section	.rodata.CFG_Parameters_Min_Value,"a",@progbits
 180                             	_CFG_Parameters_Min_Value:
 181 0000 00                      		.byte	0
 182 0001 00                      		.byte	0
 183 0002 99                      		.byte	-103
 184 0003 00                      		.byte	0
 185 0004 00                      		.byte	0
 186 0005 99                      		.byte	-103
 187 0006 00                      		.byte	0
 188 0007 00                      		.byte	0
 189 0008 00                      		.byte	0
 190 0009 00                      		.byte	0
 191 000a 00                      		.byte	0
 192 000b 01                      		.byte	1
 193 000c 01                      		.byte	1
 194 000d 01                      		.byte	1
 195 000e 01                      		.byte	1
 196 000f 01                      		.byte	1
 197 0010 00                      		.byte	0
 198 0011 00                      		.byte	0
 199 0012 00                      		.byte	0
 200 0013 00                      		.byte	0
 201 0014 00                      		.byte	0
 202 0015 00                      		.byte	0
 203 0016 01                      		.byte	1
 204 0017 01                      		.byte	1
 205 0018 00                      		.byte	0
 206 0019 00                      		.byte	0
 207 001a 00                      		.byte	0
 208 001b 00                      		.byte	0
 209 001c 00                      		.byte	0
 210 001d 00                      		.byte	0
 211 001e 00                      		.byte	0
 212 001f 04                      		.byte	4
 213 0020 04                      		.byte	4
 214 0021 01                      		.byte	1
 215 0022 00                      		.byte	0
 216 0023 00                      		.byte	0
 217 0024 00                      		.byte	0
 218 0025 00                      		.byte	0
 219 0026 00                      		.byte	0
 220 0027 00                      		.byte	0
 221 0028 00                      		.byte	0
 222 0029 00                      		.byte	0
 223 002a 01                      		.byte	1
 224 002b 01                      		.byte	1
 225 002c 00                      		.byte	0
 226 002d 00                      		.byte	0
 227 002e 00                      		.byte	0
 228 002f 00                      		.byte	0
 229 0030 00                      		.byte	0
 230 0031 00                      		.byte	0
 231 0032 00                      		.byte	0
 232 0033 00                      		.byte	0
 233 0034 00                      		.byte	0
 234 0035 00                      		.byte	0
 235 0036 00                      		.byte	0
 236 0037 00                      		.byte	0
 237 0038 00                      		.byte	0
 238 0039 00                      		.byte	0
 239 003a 00                      		.byte	0
 240 003b 00                      		.byte	0
 241 003c 00                      		.byte	0
 242 003d 00                      		.byte	0
 243 003e 00                      		.byte	0
 244 003f 00                      		.byte	0
 245 0040 01                      		.byte	1
 246 0041 05                      		.byte	5
 247 0042 00                      		.byte	0
 248 0043 00                      		.byte	0
 249 0044 00                      		.byte	0
 250 0045 00                      		.byte	0
 251 0046 01                      		.byte	1
 252 0047 00                      		.byte	0
 253 0048 00                      		.byte	0
 254 0049 00                      		.byte	0
 255 004a 00                      		.byte	0
 256 004b 00                      		.byte	0
 257 004c 00                      		.byte	0
 258 004d 00                      		.byte	0
 259 004e 00                      		.byte	0
 260 004f 00                      		.byte	0
 261 0050 00                      		.byte	0
 262 0051 00                      		.byte	0
 263 0052 00                      		.byte	0
 264 0053 00                      		.byte	0
 265 0054 00                      		.byte	0
 266 0055 00                      		.byte	0
 267 0056 00                      		.byte	0
 268 0057 00                      		.byte	0
 269 0058 00                      		.byte	0
 270 0059 00                      		.byte	0
 271 005a 00                      		.byte	0
 272 005b 00                      		.byte	0
 273 005c 00                      		.byte	0
 274 005d 00                      		.byte	0
 275 005e 00                      		.byte	0
 276 005f 00                      		.byte	0
 277 0060 00                      		.byte	0
 278 0061 00                      		.byte	0
 279 0062 00                      		.byte	0
 280 0063 00                      		.byte	0
 281 0064 00                      		.byte	0
 282 0065 00                      		.byte	0
 283 0066 00                      		.byte	0
 284 0067 00                      		.byte	0
 285 0068 00                      		.byte	0
 286 0069 00                      		.byte	0
 287 006a 00                      		.byte	0
 288 006b 00                      		.byte	0
 289 006c 00                      		.byte	0
 290 006d 00                      		.byte	0
 291 006e 00                      		.byte	0
 292 006f 00                      		.byte	0
 293 0070 00                      		.byte	0
 294 0071 00                      		.byte	0
 295 0072 00                      		.byte	0
 296 0073 00                      		.byte	0
 297 0074 00                      		.byte	0
 298 0075 00                      		.byte	0
 299 0076 00                      		.byte	0
 300 0077 00                      		.byte	0
 301 0078 00                      		.byte	0
 302 0079 00                      		.byte	0
 303 007a 00                      		.byte	0
 304 007b 00                      		.byte	0
 305 007c 00                      		.byte	0
 306 007d 00                      		.byte	0
 307 007e 00                      		.byte	0
 308 007f 00                      		.byte	0
 309                             		.global	_CFG_Parameters_Max_Value
 310                             		.section	.rodata.CFG_Parameters_Max_Value,"a",@progbits
 313                             	_CFG_Parameters_Max_Value:
 314 0000 99                      		.byte	-103
 315 0001 01                      		.byte	1
 316 0002 15                      		.byte	21
 317 0003 01                      		.byte	1
 318 0004 04                      		.byte	4
 319 0005 10                      		.byte	16
 320 0006 01                      		.byte	1
 321 0007 01                      		.byte	1
 322 0008 02                      		.byte	2
 323 0009 99                      		.byte	-103
 324 000a 99                      		.byte	-103
 325 000b 30                      		.byte	48
 326 000c 30                      		.byte	48
 327 000d 40                      		.byte	64
 328 000e 40                      		.byte	64
 329 000f 99                      		.byte	-103
 330 0010 01                      		.byte	1
 331 0011 99                      		.byte	-103
 332 0012 99                      		.byte	-103
 333 0013 99                      		.byte	-103
 334 0014 99                      		.byte	-103
 335 0015 99                      		.byte	-103
 336 0016 10                      		.byte	16
 337 0017 10                      		.byte	16
 338 0018 01                      		.byte	1
 339 0019 10                      		.byte	16
 340 001a 60                      		.byte	96
 341 001b 60                      		.byte	96
 342 001c 02                      		.byte	2
 343 001d 06                      		.byte	6
 344 001e 01                      		.byte	1
 345 001f 08                      		.byte	8
 346 0020 08                      		.byte	8
 347 0021 08                      		.byte	8
 348 0022 04                      		.byte	4
 349 0023 08                      		.byte	8
 350 0024 20                      		.byte	32
 351 0025 05                      		.byte	5
 352 0026 04                      		.byte	4
 353 0027 99                      		.byte	-103
 354 0028 99                      		.byte	-103
 355 0029 02                      		.byte	2
 356 002a 99                      		.byte	-103
 357 002b 99                      		.byte	-103
 358 002c 99                      		.byte	-103
 359 002d 99                      		.byte	-103
 360 002e 99                      		.byte	-103
 361 002f 99                      		.byte	-103
 362 0030 99                      		.byte	-103
 363 0031 03                      		.byte	3
 364 0032 04                      		.byte	4
 365 0033 04                      		.byte	4
 366 0034 02                      		.byte	2
 367 0035 04                      		.byte	4
 368 0036 04                      		.byte	4
 369 0037 02                      		.byte	2
 370 0038 02                      		.byte	2
 371 0039 99                      		.byte	-103
 372 003a 99                      		.byte	-103
 373 003b 99                      		.byte	-103
 374 003c 01                      		.byte	1
 375 003d 01                      		.byte	1
 376 003e 01                      		.byte	1
 377 003f 01                      		.byte	1
 378 0040 20                      		.byte	32
 379 0041 08                      		.byte	8
 380 0042 99                      		.byte	-103
 381 0043 99                      		.byte	-103
 382 0044 99                      		.byte	-103
 383 0045 99                      		.byte	-103
 384 0046 02                      		.byte	2
 385 0047 99                      		.byte	-103
 386 0048 02                      		.byte	2
 387 0049 04                      		.byte	4
 388 004a 04                      		.byte	4
 389 004b 00                      		.byte	0
 390 004c 08                      		.byte	8
 391 004d 08                      		.byte	8
 392 004e 02                      		.byte	2
 393 004f 99                      		.byte	-103
 394 0050 01                      		.byte	1
 395 0051 99                      		.byte	-103
 396 0052 99                      		.byte	-103
 397 0053 99                      		.byte	-103
 398 0054 99                      		.byte	-103
 399 0055 99                      		.byte	-103
 400 0056 99                      		.byte	-103
 401 0057 99                      		.byte	-103
 402 0058 99                      		.byte	-103
 403 0059 99                      		.byte	-103
 404 005a 00                      		.byte	0
 405 005b 99                      		.byte	-103
 406 005c 99                      		.byte	-103
 407 005d 99                      		.byte	-103
 408 005e 99                      		.byte	-103
 409 005f 99                      		.byte	-103
 410 0060 99                      		.byte	-103
 411 0061 99                      		.byte	-103
 412 0062 99                      		.byte	-103
 413 0063 99                      		.byte	-103
 414 0064 99                      		.byte	-103
 415 0065 99                      		.byte	-103
 416 0066 99                      		.byte	-103
 417 0067 99                      		.byte	-103
 418 0068 99                      		.byte	-103
 419 0069 99                      		.byte	-103
 420 006a 99                      		.byte	-103
 421 006b 99                      		.byte	-103
 422 006c 99                      		.byte	-103
 423 006d 99                      		.byte	-103
 424 006e 99                      		.byte	-103
 425 006f 99                      		.byte	-103
 426 0070 99                      		.byte	-103
 427 0071 99                      		.byte	-103
 428 0072 99                      		.byte	-103
 429 0073 99                      		.byte	-103
 430 0074 99                      		.byte	-103
 431 0075 99                      		.byte	-103
 432 0076 99                      		.byte	-103
 433 0077 99                      		.byte	-103
 434 0078 99                      		.byte	-103
 435 0079 99                      		.byte	-103
 436 007a 99                      		.byte	-103
 437 007b 99                      		.byte	-103
 438 007c 01                      		.byte	1
 439 007d 99                      		.byte	-103
 440 007e 99                      		.byte	-103
 441 007f 99                      		.byte	-103
 442                             		.section	.text.Factory_Default_Setting,"ax",@progbits
 443                             		.global	_Factory_Default_Setting
 445                             	_Factory_Default_Setting:
 446                             	.LFB0:
 447                             		.file 1 "../DGC_A230_Functions/DGC_A230_Parameters_Functions.c"
   1:../DGC_A230_Functions/DGC_A230_Parameters_Functions.c **** /*
   2:../DGC_A230_Functions/DGC_A230_Parameters_Functions.c ****  * DGC_A230_Parameters_Functions.c
   3:../DGC_A230_Functions/DGC_A230_Parameters_Functions.c ****  *
   4:../DGC_A230_Functions/DGC_A230_Parameters_Functions.c ****  *  Created on: Dec 22, 2023
   5:../DGC_A230_Functions/DGC_A230_Parameters_Functions.c ****  *      Author: Mr. Han
   6:../DGC_A230_Functions/DGC_A230_Parameters_Functions.c ****  */
   7:../DGC_A230_Functions/DGC_A230_Parameters_Functions.c **** 
   8:../DGC_A230_Functions/DGC_A230_Parameters_Functions.c **** #include "r_cg_macrodriver.h"
   9:../DGC_A230_Functions/DGC_A230_Parameters_Functions.c **** #include "r_cg_userdefine.h"
  10:../DGC_A230_Functions/DGC_A230_Parameters_Functions.c **** #include "r_cg_pfdl.h"
  11:../DGC_A230_Functions/DGC_A230_Parameters_Functions.c **** 
  12:../DGC_A230_Functions/DGC_A230_Parameters_Functions.c **** #include "string.h"
  13:../DGC_A230_Functions/DGC_A230_Parameters_Functions.c **** 
  14:../DGC_A230_Functions/DGC_A230_Parameters_Functions.c **** #include <DGC_A230_Define.h>
  15:../DGC_A230_Functions/DGC_A230_Parameters_Functions.c **** #include <Common.h>
  16:../DGC_A230_Functions/DGC_A230_Parameters_Functions.c **** 
  17:../DGC_A230_Functions/DGC_A230_Parameters_Functions.c **** extern uint8_t Display_Mode;
  18:../DGC_A230_Functions/DGC_A230_Parameters_Functions.c **** extern char Parameter_Name[2];
  19:../DGC_A230_Functions/DGC_A230_Parameters_Functions.c **** extern char Parameter_Value[2];
  20:../DGC_A230_Functions/DGC_A230_Parameters_Functions.c **** extern uint8_t	HMI_Flash_Count;
  21:../DGC_A230_Functions/DGC_A230_Parameters_Functions.c **** uint16_t Key_Tick_Count;
  22:../DGC_A230_Functions/DGC_A230_Parameters_Functions.c **** extern uint8_t Mask;
  23:../DGC_A230_Functions/DGC_A230_Parameters_Functions.c **** extern uint8_t HMI_Flash_Enable;
  24:../DGC_A230_Functions/DGC_A230_Parameters_Functions.c **** 
  25:../DGC_A230_Functions/DGC_A230_Parameters_Functions.c **** struct Device_Config_Parameters CFG_parameter;
  26:../DGC_A230_Functions/DGC_A230_Parameters_Functions.c **** 
  27:../DGC_A230_Functions/DGC_A230_Parameters_Functions.c **** extern uint8_t Machine_State;
  28:../DGC_A230_Functions/DGC_A230_Parameters_Functions.c **** 
  29:../DGC_A230_Functions/DGC_A230_Parameters_Functions.c **** extern uint8_t Auto_Close_Retry_Number;
  30:../DGC_A230_Functions/DGC_A230_Parameters_Functions.c **** extern uint8_t Auto_Close_Gate_Retry_Number;
  31:../DGC_A230_Functions/DGC_A230_Parameters_Functions.c **** extern uint8_t Auto_Close_Gate_Timer_Enable;
  32:../DGC_A230_Functions/DGC_A230_Parameters_Functions.c **** extern uint16_t Auto_Close_Gate_Timer_Counter;
  33:../DGC_A230_Functions/DGC_A230_Parameters_Functions.c **** 
  34:../DGC_A230_Functions/DGC_A230_Parameters_Functions.c **** uint8_t		CFG_Paramenters_Index = 1;
  35:../DGC_A230_Functions/DGC_A230_Parameters_Functions.c **** uint8_t    	CFG_Parameters_Value[128];
  36:../DGC_A230_Functions/DGC_A230_Parameters_Functions.c **** const char 	CFG_Parameters_Name[128][2] =  {"--", "A1", "A2", "A3", "A4", "A5", "A6", "A7", "A8", "
  37:../DGC_A230_Functions/DGC_A230_Parameters_Functions.c **** 											"--", "11", "12", "--", "--", "15", "16", "--", "--", "--",
  38:../DGC_A230_Functions/DGC_A230_Parameters_Functions.c **** 											"--", "21", "22", "23", "24", "25", "26", "27", "28", "29",
  39:../DGC_A230_Functions/DGC_A230_Parameters_Functions.c **** 											"30", "31", "32", "33", "34", "35", "36", "37", "38", "--",
  40:../DGC_A230_Functions/DGC_A230_Parameters_Functions.c **** 											"--", "41", "--", "--", "--", "--", "--", "--", "--", "49",
  41:../DGC_A230_Functions/DGC_A230_Parameters_Functions.c **** 											"50", "51", "52", "53", "54", "55", "56", "--", "--", "--",
  42:../DGC_A230_Functions/DGC_A230_Parameters_Functions.c **** 											"60", "61", "62", "63", "64", "65", "--", "--", "--", "--",
  43:../DGC_A230_Functions/DGC_A230_Parameters_Functions.c **** 											"70", "--", "72", "73", "74", "75", "76", "77", "78", "79",
  44:../DGC_A230_Functions/DGC_A230_Parameters_Functions.c **** 											"80", "--", "--", "--", "--", "--", "--", "--", "--", "--",
  45:../DGC_A230_Functions/DGC_A230_Parameters_Functions.c **** 											"90", "--", "--", "--", "--", "--", "--", "--", "--", "--",
  46:../DGC_A230_Functions/DGC_A230_Parameters_Functions.c **** 											"n0", "n1", "n2", "n3", "n4", "n5", "n6", "n7", "n8", "n9",
  47:../DGC_A230_Functions/DGC_A230_Parameters_Functions.c **** 											"o0", "o1", "--", "h0", "h1", "d0", "d1", "--", "--", "--",
  48:../DGC_A230_Functions/DGC_A230_Parameters_Functions.c **** 											"P1", "P2", "P3", "P4", "CP", "--", "--", "--"};
  49:../DGC_A230_Functions/DGC_A230_Parameters_Functions.c **** const char	CFG_Parameters_Min_Value[128]= {0x00, 0x00, 0x99, 0x00, 0x00, 0x99, 0x00, 0x00, 0x00, 0x
  50:../DGC_A230_Functions/DGC_A230_Parameters_Functions.c **** 											0x00, 0x01, 0x01, 0x01, 0x01, 0x01, 0x00, 0x00, 0x00, 0x00,
  51:../DGC_A230_Functions/DGC_A230_Parameters_Functions.c **** 											0x00, 0x00, 0x01, 0x01, 0x00, 0x00, 0x00, 0x00, 0x00, 0x00,
  52:../DGC_A230_Functions/DGC_A230_Parameters_Functions.c **** 											0x00, 0x04, 0x04, 0x01, 0x00, 0x00, 0x00, 0x00, 0x00, 0x00,
  53:../DGC_A230_Functions/DGC_A230_Parameters_Functions.c **** 											0x00, 0x00, 0x01, 0x01, 0x00, 0x00, 0x00, 0x00, 0x00, 0x00,
  54:../DGC_A230_Functions/DGC_A230_Parameters_Functions.c **** 											0x00, 0x00, 0x00, 0x00, 0x00, 0x00, 0x00, 0x00, 0x00, 0x00,
  55:../DGC_A230_Functions/DGC_A230_Parameters_Functions.c **** 											0x00, 0x00, 0x00, 0x00, 0x01, 0x05, 0x00, 0x00, 0x00, 0x00,
  56:../DGC_A230_Functions/DGC_A230_Parameters_Functions.c **** 											0x01, 0x00, 0x00, 0x00, 0x00, 0x00, 0x00, 0x00, 0x00, 0x00,
  57:../DGC_A230_Functions/DGC_A230_Parameters_Functions.c **** 											0x00, 0x00, 0x00, 0x00, 0x00, 0x00, 0x00, 0x00, 0x00, 0x00,
  58:../DGC_A230_Functions/DGC_A230_Parameters_Functions.c **** 											0x00, 0x00, 0x00, 0x00, 0x00, 0x00, 0x00, 0x00, 0x00, 0x00,
  59:../DGC_A230_Functions/DGC_A230_Parameters_Functions.c **** 											0x00, 0x00, 0x00, 0x00, 0x00, 0x00, 0x00, 0x00, 0x00, 0x00,
  60:../DGC_A230_Functions/DGC_A230_Parameters_Functions.c **** 											0x00, 0x00, 0x00, 0x00, 0x00, 0x00, 0x00, 0x00, 0x00, 0x00,
  61:../DGC_A230_Functions/DGC_A230_Parameters_Functions.c **** 											0x00, 0x00, 0x00, 0x00, 0x00, 0x00, 0x00, 0x00};
  62:../DGC_A230_Functions/DGC_A230_Parameters_Functions.c **** 
  63:../DGC_A230_Functions/DGC_A230_Parameters_Functions.c **** const char	CFG_Parameters_Max_Value[128]= {0x99, 0x01, 0x15, 0x01, 0x04, 0x10, 0x01, 0x01, 0x02, 0x
  64:../DGC_A230_Functions/DGC_A230_Parameters_Functions.c **** 											0x99, 0x30, 0x30, 0x40, 0x40, 0x99, 0x01, 0x99, 0x99, 0x99,
  65:../DGC_A230_Functions/DGC_A230_Parameters_Functions.c **** 											0x99, 0x99, 0x10, 0x10, 0x01, 0x10, 0x60, 0x60, 0x02, 0x06,
  66:../DGC_A230_Functions/DGC_A230_Parameters_Functions.c **** 											0x01, 0x08, 0x08, 0x08, 0x04, 0x08, 0x20, 0x05, 0x04, 0x99,
  67:../DGC_A230_Functions/DGC_A230_Parameters_Functions.c **** 											0x99, 0x02, 0x99, 0x99, 0x99, 0x99, 0x99, 0x99, 0x99, 0x03,
  68:../DGC_A230_Functions/DGC_A230_Parameters_Functions.c **** 											0x04, 0x04, 0x02, 0x04, 0x04, 0x02, 0x02, 0x99, 0x99, 0x99,
  69:../DGC_A230_Functions/DGC_A230_Parameters_Functions.c **** 											0x01, 0x01, 0x01, 0x01, 0x20, 0x08, 0x99, 0x99, 0x99, 0x99,
  70:../DGC_A230_Functions/DGC_A230_Parameters_Functions.c **** 											0x02, 0x99, 0x02, 0x04, 0x04, 0x00, 0x08, 0x08, 0x02, 0x99,
  71:../DGC_A230_Functions/DGC_A230_Parameters_Functions.c **** 											0x01, 0x99, 0x99, 0x99, 0x99, 0x99, 0x99, 0x99, 0x99, 0x99,
  72:../DGC_A230_Functions/DGC_A230_Parameters_Functions.c **** 											0x00, 0x99, 0x99, 0x99, 0x99, 0x99, 0x99, 0x99, 0x99, 0x99,
  73:../DGC_A230_Functions/DGC_A230_Parameters_Functions.c **** 											0x99, 0x99, 0x99, 0x99, 0x99, 0x99, 0x99, 0x99, 0x99, 0x99,
  74:../DGC_A230_Functions/DGC_A230_Parameters_Functions.c **** 											0x99, 0x99, 0x99, 0x99, 0x99, 0x99, 0x99, 0x99, 0x99, 0x99,
  75:../DGC_A230_Functions/DGC_A230_Parameters_Functions.c **** 											0x99, 0x99, 0x99, 0x99, 0x01, 0x99, 0x99, 0x99};
  76:../DGC_A230_Functions/DGC_A230_Parameters_Functions.c **** 
  77:../DGC_A230_Functions/DGC_A230_Parameters_Functions.c **** void Factory_Default_Setting(uint8_t The_First_Time)
  78:../DGC_A230_Functions/DGC_A230_Parameters_Functions.c **** {
 448                             		.loc 1 78 0
  79:../DGC_A230_Functions/DGC_A230_Parameters_Functions.c **** 
  80:../DGC_A230_Functions/DGC_A230_Parameters_Functions.c **** 	CFG_Parameters_Value[0] = 0xff;			// A0: Reserved #1
 449                             		.loc 1 80 0
 450 0000 51 FF                   		mov	a, #-1
 451 0002 9F 00 00                		mov	!_CFG_Parameters_Value, a
  81:../DGC_A230_Functions/DGC_A230_Parameters_Functions.c **** 	if (The_First_Time == 0x01)
 452                             		.loc 1 81 0
 453 0005 88 04                   		mov	a, [sp+4]
 454 0007 4C 01                   		cmp	a, #1
 455 0009 61 E8                   		 skz
 456 000b EC 12 00 00             		 br	!!.L2
  82:../DGC_A230_Functions/DGC_A230_Parameters_Functions.c **** 	{
  83:../DGC_A230_Functions/DGC_A230_Parameters_Functions.c **** 		CFG_Parameters_Value[1] = 0x00;			// A1: Motor type selection
 457                             		.loc 1 83 0
 458 000f F5 00 00                		clrb	!_CFG_Parameters_Value+1
 459                             	.L2:
  84:../DGC_A230_Functions/DGC_A230_Parameters_Functions.c **** 	}
  85:../DGC_A230_Functions/DGC_A230_Parameters_Functions.c **** 	CFG_Parameters_Value[2] = 0x00;			// A2: Automatic close after pause time (from gate completely op
 460                             		.loc 1 85 0
 461 0012 F5 00 00                		clrb	!_CFG_Parameters_Value+2
  86:../DGC_A230_Functions/DGC_A230_Parameters_Functions.c **** 	CFG_Parameters_Value[3] = 0x00;			// A3: Automatic gate closing after mains power outage (black-ou
 462                             		.loc 1 86 0
 463 0015 F5 00 00                		clrb	!_CFG_Parameters_Value+3
  87:../DGC_A230_Functions/DGC_A230_Parameters_Functions.c **** 	CFG_Parameters_Value[4] = 0x00;			// A4: Selecting step mode control function (PP)
 464                             		.loc 1 87 0
 465 0018 F5 00 00                		clrb	!_CFG_Parameters_Value+4
  88:../DGC_A230_Functions/DGC_A230_Parameters_Functions.c **** 	CFG_Parameters_Value[5] = 0x00;			// A5: Pre-Flashing
 466                             		.loc 1 88 0
 467 001b F5 00 00                		clrb	!_CFG_Parameters_Value+5
  89:../DGC_A230_Functions/DGC_A230_Parameters_Functions.c **** 	CFG_Parameters_Value[6] = 0x00;			// A6: Common function for partial open command (PED)
 468                             		.loc 1 89 0
 469 001e F5 00 00                		clrb	!_CFG_Parameters_Value+6
  90:../DGC_A230_Functions/DGC_A230_Parameters_Functions.c **** 	CFG_Parameters_Value[7] = 0x00;			// A7: Enabling operator present function
 470                             		.loc 1 90 0
 471 0021 F5 00 00                		clrb	!_CFG_Parameters_Value+7
  91:../DGC_A230_Functions/DGC_A230_Parameters_Functions.c **** 	CFG_Parameters_Value[8] = 0x00;			// A8: Gate open indicator / photo cell test function
 472                             		.loc 1 91 0
 473 0024 F5 00 00                		clrb	!_CFG_Parameters_Value+8
  92:../DGC_A230_Functions/DGC_A230_Parameters_Functions.c **** 	CFG_Parameters_Value[9] = 0xff;			// A9: Reserved #2
 474                             		.loc 1 92 0
 475 0027 51 FF                   		mov	a, #-1
 476 0029 9F 00 00                		mov	!_CFG_Parameters_Value+9, a
  93:../DGC_A230_Functions/DGC_A230_Parameters_Functions.c **** 
  94:../DGC_A230_Functions/DGC_A230_Parameters_Functions.c **** 	CFG_Parameters_Value[10] = 0xff;		// 10: Reserved #3
 477                             		.loc 1 94 0
 478 002c 51 FF                   		mov	a, #-1
 479 002e 9F 00 00                		mov	!_CFG_Parameters_Value+10, a
  95:../DGC_A230_Functions/DGC_A230_Parameters_Functions.c **** 	CFG_Parameters_Value[11] = 0x25;		// 11: Set MOTOR 1 deceleration space (%)
 480                             		.loc 1 95 0
 481 0031 51 25                   		mov	a, #37
 482 0033 9F 00 00                		mov	!_CFG_Parameters_Value+11, a
  96:../DGC_A230_Functions/DGC_A230_Parameters_Functions.c **** 	CFG_Parameters_Value[12] = 0x25;		// 12: Set MOTOR 2 deceleration space (%)
 483                             		.loc 1 96 0
 484 0036 51 25                   		mov	a, #37
 485 0038 9F 00 00                		mov	!_CFG_Parameters_Value+12, a
  97:../DGC_A230_Functions/DGC_A230_Parameters_Functions.c **** 	CFG_Parameters_Value[13] = 0x10;		// 13: Adjusting LEAF 1 position control
 486                             		.loc 1 97 0
 487 003b 51 10                   		mov	a, #16
 488 003d 9F 00 00                		mov	!_CFG_Parameters_Value+13, a
  98:../DGC_A230_Functions/DGC_A230_Parameters_Functions.c **** 	CFG_Parameters_Value[14] = 0x10;		// 14: Adjusting LEAF 2 position control
 489                             		.loc 1 98 0
 490 0040 51 10                   		mov	a, #16
 491 0042 9F 00 00                		mov	!_CFG_Parameters_Value+14, a
  99:../DGC_A230_Functions/DGC_A230_Parameters_Functions.c **** 	CFG_Parameters_Value[15] = 0x50;		// 15: Partial opening adjustment (%)
 492                             		.loc 1 99 0
 493 0045 51 50                   		mov	a, #80
 494 0047 9F 00 00                		mov	!_CFG_Parameters_Value+15, a
 100:../DGC_A230_Functions/DGC_A230_Parameters_Functions.c **** 	CFG_Parameters_Value[16] = 0x00;		// 16: Setting additional time after direction inversion, with n
 495                             		.loc 1 100 0
 496 004a F5 00 00                		clrb	!_CFG_Parameters_Value+16
 101:../DGC_A230_Functions/DGC_A230_Parameters_Functions.c **** 	CFG_Parameters_Value[17] = 0x10;		// 17: Motor #1 maneuver time
 497                             		.loc 1 101 0
 498 004d 51 10                   		mov	a, #16
 499 004f 9F 00 00                		mov	!_CFG_Parameters_Value+17, a
 102:../DGC_A230_Functions/DGC_A230_Parameters_Functions.c **** 	CFG_Parameters_Value[18] = 0xff;		// 18:
 500                             		.loc 1 102 0
 501 0052 51 FF                   		mov	a, #-1
 502 0054 9F 00 00                		mov	!_CFG_Parameters_Value+18, a
 103:../DGC_A230_Functions/DGC_A230_Parameters_Functions.c **** 	CFG_Parameters_Value[19] = 0x10;		// 19: Motor #2 maneuver time
 503                             		.loc 1 103 0
 504 0057 51 10                   		mov	a, #16
 505 0059 9F 00 00                		mov	!_CFG_Parameters_Value+19, a
 104:../DGC_A230_Functions/DGC_A230_Parameters_Functions.c **** 
 105:../DGC_A230_Functions/DGC_A230_Parameters_Functions.c **** 	CFG_Parameters_Value[20] = 0xff;		// 20: Reserved #7
 506                             		.loc 1 105 0
 507 005c 51 FF                   		mov	a, #-1
 508 005e 9F 00 00                		mov	!_CFG_Parameters_Value+20, a
 106:../DGC_A230_Functions/DGC_A230_Parameters_Functions.c **** 	CFG_Parameters_Value[21] = 0x30;		// 21: Setting automatic closing time
 509                             		.loc 1 106 0
 510 0061 51 30                   		mov	a, #48
 511 0063 9F 00 00                		mov	!_CFG_Parameters_Value+21, a
 107:../DGC_A230_Functions/DGC_A230_Parameters_Functions.c **** 	CFG_Parameters_Value[22] = 0x02;		// 22: MOTOR 1 operating time increase
 512                             		.loc 1 107 0
 513 0066 51 02                   		mov	a, #2
 514 0068 9F 00 00                		mov	!_CFG_Parameters_Value+22, a
 108:../DGC_A230_Functions/DGC_A230_Parameters_Functions.c **** 	CFG_Parameters_Value[23] = 0x02;		// 23: MOTOR 2 operating time increase
 515                             		.loc 1 108 0
 516 006b 51 02                   		mov	a, #2
 517 006d 9F 00 00                		mov	!_CFG_Parameters_Value+23, a
 109:../DGC_A230_Functions/DGC_A230_Parameters_Functions.c **** 	CFG_Parameters_Value[24] = 0x00;		// 24: Enable double maneuver time
 518                             		.loc 1 109 0
 519 0070 F5 00 00                		clrb	!_CFG_Parameters_Value+24
 110:../DGC_A230_Functions/DGC_A230_Parameters_Functions.c **** 	CFG_Parameters_Value[25] = 0x03; 		// 25: Adjusting opening delay of MOTOR 2
 520                             		.loc 1 110 0
 521 0073 51 03                   		mov	a, #3
 522 0075 9F 00 00                		mov	!_CFG_Parameters_Value+25, a
 111:../DGC_A230_Functions/DGC_A230_Parameters_Functions.c **** 	CFG_Parameters_Value[26] = 0x05;		// 26: Adjusting closing delay of MOTOR 1
 523                             		.loc 1 111 0
 524 0078 51 05                   		mov	a, #5
 525 007a 9F 00 00                		mov	!_CFG_Parameters_Value+26, a
 112:../DGC_A230_Functions/DGC_A230_Parameters_Functions.c **** 	CFG_Parameters_Value[27] = 0x02;		// 27: Setting reverse time after activation of sensing edge or 
 526                             		.loc 1 112 0
 527 007d 51 02                   		mov	a, #2
 528 007f 9F 00 00                		mov	!_CFG_Parameters_Value+27, a
 113:../DGC_A230_Functions/DGC_A230_Parameters_Functions.c **** 	CFG_Parameters_Value[28] = 0x01;		// 28: Setting electric lock activation lead time
 529                             		.loc 1 113 0
 530 0082 E5 00 00                		oneb	!_CFG_Parameters_Value+28
 114:../DGC_A230_Functions/DGC_A230_Parameters_Functions.c **** 	CFG_Parameters_Value[29] = 0x03;		// 29: Setting electric lock activation time
 531                             		.loc 1 114 0
 532 0085 51 03                   		mov	a, #3
 533 0087 9F 00 00                		mov	!_CFG_Parameters_Value+29, a
 115:../DGC_A230_Functions/DGC_A230_Parameters_Functions.c **** 
 116:../DGC_A230_Functions/DGC_A230_Parameters_Functions.c **** 	CFG_Parameters_Value[30] = 0x00;		// 30: Enable anti-disturbance filter for power from generator
 534                             		.loc 1 116 0
 535 008a F5 00 00                		clrb	!_CFG_Parameters_Value+30
 117:../DGC_A230_Functions/DGC_A230_Parameters_Functions.c **** 	CFG_Parameters_Value[31] = 0x06;		// 31: Set motor torque during maneuver
 536                             		.loc 1 117 0
 537 008d 51 06                   		mov	a, #6
 538 008f 9F 00 00                		mov	!_CFG_Parameters_Value+31, a
 118:../DGC_A230_Functions/DGC_A230_Parameters_Functions.c **** 	CFG_Parameters_Value[32] = 0x04;		// 32: Set motor torque during deceleration
 539                             		.loc 1 118 0
 540 0092 51 04                   		mov	a, #4
 541 0094 9F 00 00                		mov	!_CFG_Parameters_Value+32, a
 119:../DGC_A230_Functions/DGC_A230_Parameters_Functions.c **** 	CFG_Parameters_Value[33] = 0x08;		// 33: Adjusting of motor torque
 542                             		.loc 1 119 0
 543 0097 51 08                   		mov	a, #8
 544 0099 9F 00 00                		mov	!_CFG_Parameters_Value+33, a
 120:../DGC_A230_Functions/DGC_A230_Parameters_Functions.c **** 	CFG_Parameters_Value[34] = 0x02;		// 34: Set initial acceleration when opening/closing (soft-start
 545                             		.loc 1 120 0
 546 009c 51 02                   		mov	a, #2
 547 009e 9F 00 00                		mov	!_CFG_Parameters_Value+34, a
 121:../DGC_A230_Functions/DGC_A230_Parameters_Functions.c **** 	CFG_Parameters_Value[35] = 0x08;    	// 35: Set torque after activation of sensing edge or obstacl
 548                             		.loc 1 121 0
 549 00a1 51 08                   		mov	a, #8
 550 00a3 9F 00 00                		mov	!_CFG_Parameters_Value+35, a
 122:../DGC_A230_Functions/DGC_A230_Parameters_Functions.c **** 	CFG_Parameters_Value[36] = 0x03;		// 36: Set initial maximum torque boost time
 551                             		.loc 1 122 0
 552 00a6 51 03                   		mov	a, #3
 553 00a8 9F 00 00                		mov	!_CFG_Parameters_Value+36, a
 123:../DGC_A230_Functions/DGC_A230_Parameters_Functions.c **** 	CFG_Parameters_Value[37] = 0x00;		// 37: Set open/closed stop approach distance
 554                             		.loc 1 123 0
 555 00ab F5 00 00                		clrb	!_CFG_Parameters_Value+37
 124:../DGC_A230_Functions/DGC_A230_Parameters_Functions.c **** 	CFG_Parameters_Value[38] = 0x00;		// 38: Enable lock release reverse impulse
 556                             		.loc 1 124 0
 557 00ae F5 00 00                		clrb	!_CFG_Parameters_Value+38
 125:../DGC_A230_Functions/DGC_A230_Parameters_Functions.c **** 	CFG_Parameters_Value[39] = 0xff;		// 39: Reserved #8
 558                             		.loc 1 125 0
 559 00b1 51 FF                   		mov	a, #-1
 560 00b3 9F 00 00                		mov	!_CFG_Parameters_Value+39, a
 126:../DGC_A230_Functions/DGC_A230_Parameters_Functions.c **** 
 127:../DGC_A230_Functions/DGC_A230_Parameters_Functions.c **** 	CFG_Parameters_Value[40] = 0xff;		// 40: Reserved #9
 561                             		.loc 1 127 0
 562 00b6 51 FF                   		mov	a, #-1
 563 00b8 9F 00 00                		mov	!_CFG_Parameters_Value+40, a
 128:../DGC_A230_Functions/DGC_A230_Parameters_Functions.c **** 	CFG_Parameters_Value[41] = 0x01;		// 41: Set deceleration during opening/closure
 564                             		.loc 1 128 0
 565 00bb E5 00 00                		oneb	!_CFG_Parameters_Value+41
 129:../DGC_A230_Functions/DGC_A230_Parameters_Functions.c **** 	CFG_Parameters_Value[42] = 0x20;		// 42: Set obstacle detection sensitivity during maneuvers
 566                             		.loc 1 129 0
 567 00be 51 20                   		mov	a, #32
 568 00c0 9F 00 00                		mov	!_CFG_Parameters_Value+42, a
 130:../DGC_A230_Functions/DGC_A230_Parameters_Functions.c **** 	CFG_Parameters_Value[43] = 0x50;		// 43: Set obstacle detection sensitivity during deceleration
 569                             		.loc 1 130 0
 570 00c3 51 50                   		mov	a, #80
 571 00c5 9F 00 00                		mov	!_CFG_Parameters_Value+43, a
 131:../DGC_A230_Functions/DGC_A230_Parameters_Functions.c **** 	CFG_Parameters_Value[44] = 0xff;		// 44: Reserved #10
 572                             		.loc 1 131 0
 573 00c8 51 FF                   		mov	a, #-1
 574 00ca 9F 00 00                		mov	!_CFG_Parameters_Value+44, a
 132:../DGC_A230_Functions/DGC_A230_Parameters_Functions.c **** 	CFG_Parameters_Value[45] = 0xff;		// 45: Reserved #11
 575                             		.loc 1 132 0
 576 00cd 51 FF                   		mov	a, #-1
 577 00cf 9F 00 00                		mov	!_CFG_Parameters_Value+45, a
 133:../DGC_A230_Functions/DGC_A230_Parameters_Functions.c **** 	CFG_Parameters_Value[46] = 0xff;		// 46: Reserved #12
 578                             		.loc 1 133 0
 579 00d2 51 FF                   		mov	a, #-1
 580 00d4 9F 00 00                		mov	!_CFG_Parameters_Value+46, a
 134:../DGC_A230_Functions/DGC_A230_Parameters_Functions.c **** 	CFG_Parameters_Value[47] = 0xff;		// 47: Reserved #13
 581                             		.loc 1 134 0
 582 00d7 51 FF                   		mov	a, #-1
 583 00d9 9F 00 00                		mov	!_CFG_Parameters_Value+47, a
 135:../DGC_A230_Functions/DGC_A230_Parameters_Functions.c **** 	CFG_Parameters_Value[48] = 0xff;		// 48: Reserved #14
 584                             		.loc 1 135 0
 585 00dc 51 FF                   		mov	a, #-1
 586 00de 9F 00 00                		mov	!_CFG_Parameters_Value+48, a
 136:../DGC_A230_Functions/DGC_A230_Parameters_Functions.c **** 	CFG_Parameters_Value[49] = 0x00;		// 49: Number of automatic closure attempts after activation of 
 587                             		.loc 1 136 0
 588 00e1 F5 00 00                		clrb	!_CFG_Parameters_Value+49
 137:../DGC_A230_Functions/DGC_A230_Parameters_Functions.c **** 
 138:../DGC_A230_Functions/DGC_A230_Parameters_Functions.c **** 	CFG_Parameters_Value[50] = 0x00;		// 50: Setting photocell mode during gate opening (FT1)
 589                             		.loc 1 138 0
 590 00e4 F5 00 00                		clrb	!_CFG_Parameters_Value+50
 139:../DGC_A230_Functions/DGC_A230_Parameters_Functions.c **** 	CFG_Parameters_Value[51] = 0x00;		// 51: Setting photocell mode during gate closing (FT1)
 591                             		.loc 1 139 0
 592 00e7 F5 00 00                		clrb	!_CFG_Parameters_Value+51
 140:../DGC_A230_Functions/DGC_A230_Parameters_Functions.c **** 	CFG_Parameters_Value[52] = 0x01;		// 52: Photocell (FT1) mode with gate closed
 593                             		.loc 1 140 0
 594 00ea E5 00 00                		oneb	!_CFG_Parameters_Value+52
 141:../DGC_A230_Functions/DGC_A230_Parameters_Functions.c **** 	CFG_Parameters_Value[53] = 0x00;		// 53: Setting photocell mode during gate opening (FT2)
 595                             		.loc 1 141 0
 596 00ed F5 00 00                		clrb	!_CFG_Parameters_Value+53
 142:../DGC_A230_Functions/DGC_A230_Parameters_Functions.c **** 	CFG_Parameters_Value[54] = 0x00;		// 54: Setting photocell mode during gate closing (FT2)
 597                             		.loc 1 142 0
 598 00f0 F5 00 00                		clrb	!_CFG_Parameters_Value+54
 143:../DGC_A230_Functions/DGC_A230_Parameters_Functions.c **** 	CFG_Parameters_Value[55] = 0x01;		// 55: Photocell (FT2) mode with gate closed
 599                             		.loc 1 143 0
 600 00f3 E5 00 00                		oneb	!_CFG_Parameters_Value+55
 144:../DGC_A230_Functions/DGC_A230_Parameters_Functions.c **** 	CFG_Parameters_Value[56] = 0x00;		// 56: Enable close command 6s after activation of photo-cell (F
 601                             		.loc 1 144 0
 602 00f6 F5 00 00                		clrb	!_CFG_Parameters_Value+56
 145:../DGC_A230_Functions/DGC_A230_Parameters_Functions.c **** 	CFG_Parameters_Value[57] = 0xff;		// 57: Reserved #15
 603                             		.loc 1 145 0
 604 00f9 51 FF                   		mov	a, #-1
 605 00fb 9F 00 00                		mov	!_CFG_Parameters_Value+57, a
 146:../DGC_A230_Functions/DGC_A230_Parameters_Functions.c **** 	CFG_Parameters_Value[58] = 0xff;		// 58: Reserved #16
 606                             		.loc 1 146 0
 607 00fe 51 FF                   		mov	a, #-1
 608 0100 9F 00 00                		mov	!_CFG_Parameters_Value+58, a
 147:../DGC_A230_Functions/DGC_A230_Parameters_Functions.c **** 	CFG_Parameters_Value[59] = 0xff;		// 59: Reserved #17
 609                             		.loc 1 147 0
 610 0103 51 FF                   		mov	a, #-1
 611 0105 9F 00 00                		mov	!_CFG_Parameters_Value+59, a
 148:../DGC_A230_Functions/DGC_A230_Parameters_Functions.c **** 
 149:../DGC_A230_Functions/DGC_A230_Parameters_Functions.c **** 	CFG_Parameters_Value[60] = 0x00;		// 60: Enable braking at open and closed mechanical stop/limit s
 612                             		.loc 1 149 0
 613 0108 F5 00 00                		clrb	!_CFG_Parameters_Value+60
 150:../DGC_A230_Functions/DGC_A230_Parameters_Functions.c **** 	CFG_Parameters_Value[61] = 0x00;		// 61: Enable braking after activation of photo-cells
 614                             		.loc 1 150 0
 615 010b F5 00 00                		clrb	!_CFG_Parameters_Value+61
 151:../DGC_A230_Functions/DGC_A230_Parameters_Functions.c **** 	CFG_Parameters_Value[62] = 0x00;		// 62: Enable braking after STOP command
 616                             		.loc 1 151 0
 617 010e F5 00 00                		clrb	!_CFG_Parameters_Value+62
 152:../DGC_A230_Functions/DGC_A230_Parameters_Functions.c **** 	CFG_Parameters_Value[63] = 0x00;		// 63: Enable braking after open > close / close > open inversio
 618                             		.loc 1 152 0
 619 0111 F5 00 00                		clrb	!_CFG_Parameters_Value+63
 153:../DGC_A230_Functions/DGC_A230_Parameters_Functions.c **** 	CFG_Parameters_Value[64] = 0x05;		// 64: Set braking time
 620                             		.loc 1 153 0
 621 0114 51 05                   		mov	a, #5
 622 0116 9F 00 00                		mov	!_CFG_Parameters_Value+64, a
 154:../DGC_A230_Functions/DGC_A230_Parameters_Functions.c **** 	CFG_Parameters_Value[65] = 0x08;		// 65: Set braking force
 623                             		.loc 1 154 0
 624 0119 51 08                   		mov	a, #8
 625 011b 9F 00 00                		mov	!_CFG_Parameters_Value+65, a
 155:../DGC_A230_Functions/DGC_A230_Parameters_Functions.c **** 	CFG_Parameters_Value[66] = 0xff;		// 66: Reserved #18
 626                             		.loc 1 155 0
 627 011e 51 FF                   		mov	a, #-1
 628 0120 9F 00 00                		mov	!_CFG_Parameters_Value+66, a
 156:../DGC_A230_Functions/DGC_A230_Parameters_Functions.c **** 	CFG_Parameters_Value[67] = 0xff;		// 67: Reserved #19
 629                             		.loc 1 156 0
 630 0123 51 FF                   		mov	a, #-1
 631 0125 9F 00 00                		mov	!_CFG_Parameters_Value+67, a
 157:../DGC_A230_Functions/DGC_A230_Parameters_Functions.c **** 	CFG_Parameters_Value[68] = 0xff;		// 68: Reserved #20
 632                             		.loc 1 157 0
 633 0128 51 FF                   		mov	a, #-1
 634 012a 9F 00 00                		mov	!_CFG_Parameters_Value+68, a
 158:../DGC_A230_Functions/DGC_A230_Parameters_Functions.c **** 	CFG_Parameters_Value[69] = 0xff;		// 69: Reserved #21
 635                             		.loc 1 158 0
 636 012d 51 FF                   		mov	a, #-1
 637 012f 9F 00 00                		mov	!_CFG_Parameters_Value+69, a
 159:../DGC_A230_Functions/DGC_A230_Parameters_Functions.c **** 
 160:../DGC_A230_Functions/DGC_A230_Parameters_Functions.c **** 	CFG_Parameters_Value[70] = 0x02;		// 70: Select number of motors installed
 638                             		.loc 1 160 0
 639 0132 51 02                   		mov	a, #2
 640 0134 9F 00 00                		mov	!_CFG_Parameters_Value+70, a
 161:../DGC_A230_Functions/DGC_A230_Parameters_Functions.c **** 	CFG_Parameters_Value[71] = 0xff;		// 71: Reserved #22
 641                             		.loc 1 161 0
 642 0137 51 FF                   		mov	a, #-1
 643 0139 9F 00 00                		mov	!_CFG_Parameters_Value+71, a
 162:../DGC_A230_Functions/DGC_A230_Parameters_Functions.c **** 	CFG_Parameters_Value[72] = 0x00;		// 72: Configuring limit switches
 644                             		.loc 1 162 0
 645 013c F5 00 00                		clrb	!_CFG_Parameters_Value+72
 163:../DGC_A230_Functions/DGC_A230_Parameters_Functions.c **** 	CFG_Parameters_Value[73] = 0x00;		// 73: Configuring sensing edge COS1
 646                             		.loc 1 163 0
 647 013f F5 00 00                		clrb	!_CFG_Parameters_Value+73
 164:../DGC_A230_Functions/DGC_A230_Parameters_Functions.c **** 	CFG_Parameters_Value[74] = 0x00;		// 74: Configuring sensing edge COS2
 648                             		.loc 1 164 0
 649 0142 F5 00 00                		clrb	!_CFG_Parameters_Value+74
 165:../DGC_A230_Functions/DGC_A230_Parameters_Functions.c **** 	CFG_Parameters_Value[75] = 0x00;		// 75: Configuring encoder
 650                             		.loc 1 165 0
 651 0145 F5 00 00                		clrb	!_CFG_Parameters_Value+75
 166:../DGC_A230_Functions/DGC_A230_Parameters_Functions.c **** 	CFG_Parameters_Value[76] = 0x00;		// 76: Configuring Radio Key PB#1
 652                             		.loc 1 166 0
 653 0148 F5 00 00                		clrb	!_CFG_Parameters_Value+76
 167:../DGC_A230_Functions/DGC_A230_Parameters_Functions.c **** 	CFG_Parameters_Value[77] = 0x01;		// 77: Configuring Radio Key PB#2
 654                             		.loc 1 167 0
 655 014b E5 00 00                		oneb	!_CFG_Parameters_Value+77
 168:../DGC_A230_Functions/DGC_A230_Parameters_Functions.c **** 	CFG_Parameters_Value[78] = 0x00;		// 78: Configuring flashing light frequency
 656                             		.loc 1 168 0
 657 014e F5 00 00                		clrb	!_CFG_Parameters_Value+78
 169:../DGC_A230_Functions/DGC_A230_Parameters_Functions.c **** 	CFG_Parameters_Value[79] = 0x60;		// 79: Selecting courtesy light mode
 658                             		.loc 1 169 0
 659 0151 51 60                   		mov	a, #96
 660 0153 9F 00 00                		mov	!_CFG_Parameters_Value+79, a
 170:../DGC_A230_Functions/DGC_A230_Parameters_Functions.c **** 
 171:../DGC_A230_Functions/DGC_A230_Parameters_Functions.c **** 	CFG_Parameters_Value[80] = 0x00;		// 80: Configuring Clock contact
 661                             		.loc 1 171 0
 662 0156 F5 00 00                		clrb	!_CFG_Parameters_Value+80
 172:../DGC_A230_Functions/DGC_A230_Parameters_Functions.c **** 	CFG_Parameters_Value[81] = 0xff;		// 81: Reserved #22
 663                             		.loc 1 172 0
 664 0159 51 FF                   		mov	a, #-1
 665 015b 9F 00 00                		mov	!_CFG_Parameters_Value+81, a
 173:../DGC_A230_Functions/DGC_A230_Parameters_Functions.c **** 	CFG_Parameters_Value[82] = 0xff;		// 82: Reserved #23
 666                             		.loc 1 173 0
 667 015e 51 FF                   		mov	a, #-1
 668 0160 9F 00 00                		mov	!_CFG_Parameters_Value+82, a
 174:../DGC_A230_Functions/DGC_A230_Parameters_Functions.c **** 	CFG_Parameters_Value[83] = 0xff;		// 83: Reserved #24
 669                             		.loc 1 174 0
 670 0163 51 FF                   		mov	a, #-1
 671 0165 9F 00 00                		mov	!_CFG_Parameters_Value+83, a
 175:../DGC_A230_Functions/DGC_A230_Parameters_Functions.c **** 	CFG_Parameters_Value[84] = 0xff;		// 84: Reserved #25
 672                             		.loc 1 175 0
 673 0168 51 FF                   		mov	a, #-1
 674 016a 9F 00 00                		mov	!_CFG_Parameters_Value+84, a
 176:../DGC_A230_Functions/DGC_A230_Parameters_Functions.c **** 	CFG_Parameters_Value[85] = 0xff;		// 85: Reserved #26
 675                             		.loc 1 176 0
 676 016d 51 FF                   		mov	a, #-1
 677 016f 9F 00 00                		mov	!_CFG_Parameters_Value+85, a
 177:../DGC_A230_Functions/DGC_A230_Parameters_Functions.c **** 	CFG_Parameters_Value[86] = 0xff;		// 86: Reserved #27
 678                             		.loc 1 177 0
 679 0172 51 FF                   		mov	a, #-1
 680 0174 9F 00 00                		mov	!_CFG_Parameters_Value+86, a
 178:../DGC_A230_Functions/DGC_A230_Parameters_Functions.c **** 	CFG_Parameters_Value[87] = 0xff;		// 87: Reserved #28
 681                             		.loc 1 178 0
 682 0177 51 FF                   		mov	a, #-1
 683 0179 9F 00 00                		mov	!_CFG_Parameters_Value+87, a
 179:../DGC_A230_Functions/DGC_A230_Parameters_Functions.c **** 	CFG_Parameters_Value[88] = 0xff;		// 88: Reserved #29
 684                             		.loc 1 179 0
 685 017c 51 FF                   		mov	a, #-1
 686 017e 9F 00 00                		mov	!_CFG_Parameters_Value+88, a
 180:../DGC_A230_Functions/DGC_A230_Parameters_Functions.c **** 	CFG_Parameters_Value[89] = 0xff;		// 89: Reserved #30
 687                             		.loc 1 180 0
 688 0181 51 FF                   		mov	a, #-1
 689 0183 9F 00 00                		mov	!_CFG_Parameters_Value+89, a
 181:../DGC_A230_Functions/DGC_A230_Parameters_Functions.c **** 
 182:../DGC_A230_Functions/DGC_A230_Parameters_Functions.c **** 	CFG_Parameters_Value[90] = 0x00;		// 90: Restoring factory default values
 690                             		.loc 1 182 0
 691 0186 F5 00 00                		clrb	!_CFG_Parameters_Value+90
 183:../DGC_A230_Functions/DGC_A230_Parameters_Functions.c **** 	CFG_Parameters_Value[91] = 0xff;		// 91: Reserved #31
 692                             		.loc 1 183 0
 693 0189 51 FF                   		mov	a, #-1
 694 018b 9F 00 00                		mov	!_CFG_Parameters_Value+91, a
 184:../DGC_A230_Functions/DGC_A230_Parameters_Functions.c **** 	CFG_Parameters_Value[92] = 0xff;		// 92: Reserved #32
 695                             		.loc 1 184 0
 696 018e 51 FF                   		mov	a, #-1
 697 0190 9F 00 00                		mov	!_CFG_Parameters_Value+92, a
 185:../DGC_A230_Functions/DGC_A230_Parameters_Functions.c **** 	CFG_Parameters_Value[93] = 0xff;		// 93: Reserved #33
 698                             		.loc 1 185 0
 699 0193 51 FF                   		mov	a, #-1
 700 0195 9F 00 00                		mov	!_CFG_Parameters_Value+93, a
 186:../DGC_A230_Functions/DGC_A230_Parameters_Functions.c **** 	CFG_Parameters_Value[94] = 0xff;		// 94: Reserved #34
 701                             		.loc 1 186 0
 702 0198 51 FF                   		mov	a, #-1
 703 019a 9F 00 00                		mov	!_CFG_Parameters_Value+94, a
 187:../DGC_A230_Functions/DGC_A230_Parameters_Functions.c **** 	CFG_Parameters_Value[95] = 0xff;		// 95: Reserved #35
 704                             		.loc 1 187 0
 705 019d 51 FF                   		mov	a, #-1
 706 019f 9F 00 00                		mov	!_CFG_Parameters_Value+95, a
 188:../DGC_A230_Functions/DGC_A230_Parameters_Functions.c **** 	CFG_Parameters_Value[96] = 0xff;		// 96: Reserved #36
 707                             		.loc 1 188 0
 708 01a2 51 FF                   		mov	a, #-1
 709 01a4 9F 00 00                		mov	!_CFG_Parameters_Value+96, a
 189:../DGC_A230_Functions/DGC_A230_Parameters_Functions.c **** 	CFG_Parameters_Value[97] = 0xff;		// 97: Reserved #37
 710                             		.loc 1 189 0
 711 01a7 51 FF                   		mov	a, #-1
 712 01a9 9F 00 00                		mov	!_CFG_Parameters_Value+97, a
 190:../DGC_A230_Functions/DGC_A230_Parameters_Functions.c **** 	CFG_Parameters_Value[98] = 0xff;		// 98: Reserved #38
 713                             		.loc 1 190 0
 714 01ac 51 FF                   		mov	a, #-1
 715 01ae 9F 00 00                		mov	!_CFG_Parameters_Value+98, a
 191:../DGC_A230_Functions/DGC_A230_Parameters_Functions.c **** 	CFG_Parameters_Value[99] = 0xff;		// 99: Reserved #39
 716                             		.loc 1 191 0
 717 01b1 51 FF                   		mov	a, #-1
 718 01b3 9F 00 00                		mov	!_CFG_Parameters_Value+99, a
 192:../DGC_A230_Functions/DGC_A230_Parameters_Functions.c **** 
 193:../DGC_A230_Functions/DGC_A230_Parameters_Functions.c **** 	CFG_Parameters_Value[100] = 0x01;		// n0: Hardware version
 719                             		.loc 1 193 0
 720 01b6 E5 00 00                		oneb	!_CFG_Parameters_Value+100
 194:../DGC_A230_Functions/DGC_A230_Parameters_Functions.c **** 	CFG_Parameters_Value[101] = 0x24;		// n1: Year of Manufacture
 721                             		.loc 1 194 0
 722 01b9 51 24                   		mov	a, #36
 723 01bb 9F 00 00                		mov	!_CFG_Parameters_Value+101, a
 195:../DGC_A230_Functions/DGC_A230_Parameters_Functions.c **** 	CFG_Parameters_Value[102] = 0x01;		// n2: Week of Manufacture
 724                             		.loc 1 195 0
 725 01be E5 00 00                		oneb	!_CFG_Parameters_Value+102
 196:../DGC_A230_Functions/DGC_A230_Parameters_Functions.c **** 	CFG_Parameters_Value[103] = 0x01;		// n3: Serial number # 1
 726                             		.loc 1 196 0
 727 01c1 E5 00 00                		oneb	!_CFG_Parameters_Value+103
 197:../DGC_A230_Functions/DGC_A230_Parameters_Functions.c **** 	CFG_Parameters_Value[104] = 0x02;		// n4: Serial number # 2
 728                             		.loc 1 197 0
 729 01c4 51 02                   		mov	a, #2
 730 01c6 9F 00 00                		mov	!_CFG_Parameters_Value+104, a
 198:../DGC_A230_Functions/DGC_A230_Parameters_Functions.c **** 	CFG_Parameters_Value[105] = 0x03;		// n5: Serial number # 3
 731                             		.loc 1 198 0
 732 01c9 51 03                   		mov	a, #3
 733 01cb 9F 00 00                		mov	!_CFG_Parameters_Value+105, a
 199:../DGC_A230_Functions/DGC_A230_Parameters_Functions.c **** 	CFG_Parameters_Value[106] = 0x04;		// n6: Serial number # 4
 734                             		.loc 1 199 0
 735 01ce 51 04                   		mov	a, #4
 736 01d0 9F 00 00                		mov	!_CFG_Parameters_Value+106, a
 200:../DGC_A230_Functions/DGC_A230_Parameters_Functions.c **** 	CFG_Parameters_Value[107] = 0x01;		// n7: Firmware version
 737                             		.loc 1 200 0
 738 01d3 E5 00 00                		oneb	!_CFG_Parameters_Value+107
 201:../DGC_A230_Functions/DGC_A230_Parameters_Functions.c **** 	CFG_Parameters_Value[108] = 0x05;		// n8: AIoT Number No1
 739                             		.loc 1 201 0
 740 01d6 51 05                   		mov	a, #5
 741 01d8 9F 00 00                		mov	!_CFG_Parameters_Value+108, a
 202:../DGC_A230_Functions/DGC_A230_Parameters_Functions.c **** 	CFG_Parameters_Value[109] = 0x23;		// n9: AIoT Number No2
 742                             		.loc 1 202 0
 743 01db 51 23                   		mov	a, #35
 744 01dd 9F 00 00                		mov	!_CFG_Parameters_Value+109, a
 203:../DGC_A230_Functions/DGC_A230_Parameters_Functions.c **** 
 204:../DGC_A230_Functions/DGC_A230_Parameters_Functions.c **** 	CFG_Parameters_Value[110] = 0x00;		// o0: Maneuver Counter
 745                             		.loc 1 204 0
 746 01e0 F5 00 00                		clrb	!_CFG_Parameters_Value+110
 205:../DGC_A230_Functions/DGC_A230_Parameters_Functions.c **** 	CFG_Parameters_Value[111] = 0x00;		// o1: Maneuver Counter
 747                             		.loc 1 205 0
 748 01e3 F5 00 00                		clrb	!_CFG_Parameters_Value+111
 206:../DGC_A230_Functions/DGC_A230_Parameters_Functions.c **** 	CFG_Parameters_Value[112] = 0xff;		// o2: Maneuver Counter
 749                             		.loc 1 206 0
 750 01e6 51 FF                   		mov	a, #-1
 751 01e8 9F 00 00                		mov	!_CFG_Parameters_Value+112, a
 207:../DGC_A230_Functions/DGC_A230_Parameters_Functions.c **** 	CFG_Parameters_Value[113] = 0x00;		// h0: Maneuver hour counter
 752                             		.loc 1 207 0
 753 01eb F5 00 00                		clrb	!_CFG_Parameters_Value+113
 208:../DGC_A230_Functions/DGC_A230_Parameters_Functions.c **** 	CFG_Parameters_Value[114] = 0x00;		// h1: Maneuver hour counter
 754                             		.loc 1 208 0
 755 01ee F5 00 00                		clrb	!_CFG_Parameters_Value+114
 209:../DGC_A230_Functions/DGC_A230_Parameters_Functions.c **** 	CFG_Parameters_Value[115] = 0x00;		// d0: Days with unit switched on
 756                             		.loc 1 209 0
 757 01f1 F5 00 00                		clrb	!_CFG_Parameters_Value+115
 210:../DGC_A230_Functions/DGC_A230_Parameters_Functions.c **** 	CFG_Parameters_Value[116] = 0x00;		// d1: Days with unit switched on
 758                             		.loc 1 210 0
 759 01f4 F5 00 00                		clrb	!_CFG_Parameters_Value+116
 211:../DGC_A230_Functions/DGC_A230_Parameters_Functions.c **** 	CFG_Parameters_Value[117] = 0xff;		// J0: Reserved #40
 760                             		.loc 1 211 0
 761 01f7 51 FF                   		mov	a, #-1
 762 01f9 9F 00 00                		mov	!_CFG_Parameters_Value+117, a
 212:../DGC_A230_Functions/DGC_A230_Parameters_Functions.c **** 	CFG_Parameters_Value[118] = 0xff;		// J1: Reserved #41
 763                             		.loc 1 212 0
 764 01fc 51 FF                   		mov	a, #-1
 765 01fe 9F 00 00                		mov	!_CFG_Parameters_Value+118, a
 213:../DGC_A230_Functions/DGC_A230_Parameters_Functions.c **** 	CFG_Parameters_Value[119] = 0xff;		// J2: Reserved #42
 766                             		.loc 1 213 0
 767 0201 51 FF                   		mov	a, #-1
 768 0203 9F 00 00                		mov	!_CFG_Parameters_Value+119, a
 214:../DGC_A230_Functions/DGC_A230_Parameters_Functions.c **** 
 215:../DGC_A230_Functions/DGC_A230_Parameters_Functions.c **** 	CFG_Parameters_Value[120] = 0x00;		// P1: Password
 769                             		.loc 1 215 0
 770 0206 F5 00 00                		clrb	!_CFG_Parameters_Value+120
 216:../DGC_A230_Functions/DGC_A230_Parameters_Functions.c **** 	CFG_Parameters_Value[121] = 0x00;		// P2: Password
 771                             		.loc 1 216 0
 772 0209 F5 00 00                		clrb	!_CFG_Parameters_Value+121
 217:../DGC_A230_Functions/DGC_A230_Parameters_Functions.c **** 	CFG_Parameters_Value[122] = 0x00;		// P3: Password
 773                             		.loc 1 217 0
 774 020c F5 00 00                		clrb	!_CFG_Parameters_Value+122
 218:../DGC_A230_Functions/DGC_A230_Parameters_Functions.c **** 	CFG_Parameters_Value[123] = 0x00;		// P4: Password
 775                             		.loc 1 218 0
 776 020f F5 00 00                		clrb	!_CFG_Parameters_Value+123
 219:../DGC_A230_Functions/DGC_A230_Parameters_Functions.c **** 	CFG_Parameters_Value[124] = 0x00;		// CP: Password change protection
 777                             		.loc 1 219 0
 778 0212 F5 00 00                		clrb	!_CFG_Parameters_Value+124
 220:../DGC_A230_Functions/DGC_A230_Parameters_Functions.c **** 	CFG_Parameters_Value[125] = 0xff;		// i0: Reserved #43
 779                             		.loc 1 220 0
 780 0215 51 FF                   		mov	a, #-1
 781 0217 9F 00 00                		mov	!_CFG_Parameters_Value+125, a
 221:../DGC_A230_Functions/DGC_A230_Parameters_Functions.c **** 	CFG_Parameters_Value[126] = 0xff;		// i1: Reserved #44
 782                             		.loc 1 221 0
 783 021a 51 FF                   		mov	a, #-1
 784 021c 9F 00 00                		mov	!_CFG_Parameters_Value+126, a
 222:../DGC_A230_Functions/DGC_A230_Parameters_Functions.c **** 	CFG_Parameters_Value[127] = 0xff;		// i2: Reserved #45
 785                             		.loc 1 222 0
 786 021f 51 FF                   		mov	a, #-1
 787 0221 9F 00 00                		mov	!_CFG_Parameters_Value+127, a
 223:../DGC_A230_Functions/DGC_A230_Parameters_Functions.c **** }
 788                             		.loc 1 223 0
 789 0224 D7                      		ret
 790                             	.LFE0:
 792                             		.section	.text.Write_Config_Parameters,"ax",@progbits
 793                             		.global	_Write_Config_Parameters
 795                             	_Write_Config_Parameters:
 796                             	.LFB1:
 224:../DGC_A230_Functions/DGC_A230_Parameters_Functions.c **** 
 225:../DGC_A230_Functions/DGC_A230_Parameters_Functions.c **** uint8_t Write_Config_Parameters (void)
 226:../DGC_A230_Functions/DGC_A230_Parameters_Functions.c **** {
 797                             		.loc 1 226 0
 798                             		; start of function
 799                             		; locals: 130 bytes
 800                             		; outgoing: 6 bytes
 801                             		; uses ES register
 802 0000 20 88                   		subw	sp, #136
 803                             	.LCFI0:
 227:../DGC_A230_Functions/DGC_A230_Parameters_Functions.c **** 	uint8_t fdl_status_return;
 228:../DGC_A230_Functions/DGC_A230_Parameters_Functions.c **** 	uint8_t Temp_Read_Data[128], index;
 229:../DGC_A230_Functions/DGC_A230_Parameters_Functions.c **** 
 230:../DGC_A230_Functions/DGC_A230_Parameters_Functions.c **** //	R_FDL_Create();
 231:../DGC_A230_Functions/DGC_A230_Parameters_Functions.c **** 	R_FDL_Open();
 804                             		.loc 1 231 0
 805 0002 FC 00 00 00             		call	!!%code(_R_FDL_Open)
 232:../DGC_A230_Functions/DGC_A230_Parameters_Functions.c **** 
 233:../DGC_A230_Functions/DGC_A230_Parameters_Functions.c **** 	fdl_status_return = R_FDL_BlankCheck(0x0000, 128);		// Blank check
 806                             		.loc 1 233 0
 807 0006 F6                      		clrw	ax
 808 0007 B8 00                   		movw	[sp], ax
 809 0009 30 80 00                		movw	ax, #128
 810 000c B8 02                   		movw	[sp+2], ax
 811 000e FC 00 00 00             		call	!!%code(_R_FDL_BlankCheck)
 812 0012 8D F0                   		mov	a, r8
 813 0014 98 87                   		mov	[sp+135], a
 234:../DGC_A230_Functions/DGC_A230_Parameters_Functions.c **** 	if (fdl_status_return != PFDL_OK)
 814                             		.loc 1 234 0
 815 0016 D1                      		cmp0	a
 816 0017 61 F8                   		 sknz
 817 0019 EC 33 00 00             		 br	!!.L4
 235:../DGC_A230_Functions/DGC_A230_Parameters_Functions.c **** 	{
 236:../DGC_A230_Functions/DGC_A230_Parameters_Functions.c **** 		fdl_status_return = R_FDL_Erase(0);
 818                             		.loc 1 236 0
 819 001d F6                      		clrw	ax
 820 001e B8 00                   		movw	[sp], ax
 821 0020 FC 00 00 00             		call	!!%code(_R_FDL_Erase)
 822 0024 8D F0                   		mov	a, r8
 823 0026 98 87                   		mov	[sp+135], a
 237:../DGC_A230_Functions/DGC_A230_Parameters_Functions.c **** 		if (fdl_status_return != PFDL_OK)
 824                             		.loc 1 237 0
 825 0028 D1                      		cmp0	a
 826 0029 61 F8                   		 sknz
 827 002b EC 33 00 00             		 br	!!.L4
 238:../DGC_A230_Functions/DGC_A230_Parameters_Functions.c **** 			goto done;
 828                             		.loc 1 238 0
 829 002f EC E6 00 00             		br	!!.L5
 830                             	.L4:
 239:../DGC_A230_Functions/DGC_A230_Parameters_Functions.c **** 	}
 240:../DGC_A230_Functions/DGC_A230_Parameters_Functions.c **** 
 241:../DGC_A230_Functions/DGC_A230_Parameters_Functions.c **** 	fdl_status_return =	R_FDL_Write(0x0000, &CFG_Parameters_Value[0], 128);
 831                             		.loc 1 241 0
 832 0033 F6                      		clrw	ax
 833 0034 B8 00                   		movw	[sp], ax
 834 0036 30 00 00                		movw	ax, #_CFG_Parameters_Value
 835 0039 B8 02                   		movw	[sp+2], ax
 836 003b 30 80 00                		movw	ax, #128
 837 003e B8 04                   		movw	[sp+4], ax
 838 0040 FC 00 00 00             		call	!!%code(_R_FDL_Write)
 839 0044 8D F0                   		mov	a, r8
 840 0046 98 87                   		mov	[sp+135], a
 242:../DGC_A230_Functions/DGC_A230_Parameters_Functions.c **** 	if (fdl_status_return != PFDL_OK)
 841                             		.loc 1 242 0
 842 0048 D1                      		cmp0	a
 843 0049 61 F8                   		 sknz
 844 004b EC 53 00 00             		 br	!!.L6
 243:../DGC_A230_Functions/DGC_A230_Parameters_Functions.c **** 		goto done;
 845                             		.loc 1 243 0
 846 004f EC E6 00 00             		br	!!.L5
 847                             	.L6:
 244:../DGC_A230_Functions/DGC_A230_Parameters_Functions.c **** 
 245:../DGC_A230_Functions/DGC_A230_Parameters_Functions.c **** 	fdl_status_return =	R_FDL_IVerify(0x0000, 128);
 848                             		.loc 1 245 0
 849 0053 F6                      		clrw	ax
 850 0054 B8 00                   		movw	[sp], ax
 851 0056 30 80 00                		movw	ax, #128
 852 0059 B8 02                   		movw	[sp+2], ax
 853 005b FC 00 00 00             		call	!!%code(_R_FDL_IVerify)
 854 005f 8D F0                   		mov	a, r8
 855 0061 98 87                   		mov	[sp+135], a
 246:../DGC_A230_Functions/DGC_A230_Parameters_Functions.c **** 	if (fdl_status_return != PFDL_OK)
 856                             		.loc 1 246 0
 857 0063 D1                      		cmp0	a
 858 0064 61 F8                   		 sknz
 859 0066 EC 6E 00 00             		 br	!!.L7
 247:../DGC_A230_Functions/DGC_A230_Parameters_Functions.c **** 		goto done;
 860                             		.loc 1 247 0
 861 006a EC E6 00 00             		br	!!.L5
 862                             	.L7:
 248:../DGC_A230_Functions/DGC_A230_Parameters_Functions.c **** 
 249:../DGC_A230_Functions/DGC_A230_Parameters_Functions.c **** 	fdl_status_return =	R_FDL_Read(0x0000, &Temp_Read_Data[0], 128);
 863                             		.loc 1 249 0
 864 006e F6                      		clrw	ax
 865 006f B8 00                   		movw	[sp], ax
 866 0071 C9 F0 88 00             		movw	r8, #136
 867 0075 AE F8                   		movw	ax, sp
 868 0077 BD F0                   		movw	r8, ax
 869 0079 04 88 00                		addw	ax, #136
 870 007c BD F0                   		movw	r8, ax
 871 007e 04 7E FF                		addw	ax, #-130
 872 0081 B8 02                   		movw	[sp+2], ax
 873 0083 30 80 00                		movw	ax, #128
 874 0086 B8 04                   		movw	[sp+4], ax
 875 0088 FC 00 00 00             		call	!!%code(_R_FDL_Read)
 876 008c 8D F0                   		mov	a, r8
 877 008e 98 87                   		mov	[sp+135], a
 250:../DGC_A230_Functions/DGC_A230_Parameters_Functions.c **** 
 251:../DGC_A230_Functions/DGC_A230_Parameters_Functions.c **** 	fdl_status_return = PFDL_OK;
 878                             		.loc 1 251 0
 879 0090 F1                      		clrb	a
 880 0091 98 87                   		mov	[sp+135], a
 252:../DGC_A230_Functions/DGC_A230_Parameters_Functions.c **** 	for (index = 0; index <128; index++)
 881                             		.loc 1 252 0
 882 0093 F1                      		clrb	a
 883 0094 98 86                   		mov	[sp+134], a
 884 0096 EC D9 00 00             		br	!!.L8
 885                             	.L10:
 253:../DGC_A230_Functions/DGC_A230_Parameters_Functions.c **** 	{
 254:../DGC_A230_Functions/DGC_A230_Parameters_Functions.c **** 		if (Temp_Read_Data[index] != CFG_Parameters_Value[index])
 886                             		.loc 1 254 0
 887 009a 88 86                   		mov	a, [sp+134]
 888 009c 31 8E                   		shrw	ax, 8
 889 009e BD F0                   		movw	r8, ax
 890 00a0 AE F8                   		movw	ax, sp
 891 00a2 BD F4                   		movw	r12, ax
 892 00a4 04 06 00                		addw	ax, #6
 893 00a7 BD F2                   		movw	r10, ax
 894 00a9 06 F0                   		addw	ax, r8
 895 00ab BD F0                   		movw	r8, ax
 896 00ad BD F4                   		movw	r12, ax
 897 00af FA F4                   		movw	hl, r12
 898 00b1 8B                      		mov	a, [hl]
 899 00b2 9D F2                   		mov	r10, a
 900 00b4 88 86                   		mov	a, [sp+134]
 901 00b6 31 8E                   		shrw	ax, 8
 902 00b8 BD F0                   		movw	r8, ax
 903 00ba 04 00 00                		addw	ax, #_CFG_Parameters_Value
 904 00bd 16                      		movw	hl, ax
 905 00be 8B                      		mov	a, [hl]
 906 00bf 9D F0                   		mov	r8, a
 907 00c1 8D F2                   		mov	a, r10
 908 00c3 4B F0                   		cmp	a, r8
 909 00c5 61 F8                   		 sknz
 910 00c7 EC D2 00 00             		 br	!!.L9
 255:../DGC_A230_Functions/DGC_A230_Parameters_Functions.c **** 			{
 256:../DGC_A230_Functions/DGC_A230_Parameters_Functions.c **** 			fdl_status_return = 0x01;
 911                             		.loc 1 256 0
 912 00cb E1                      		oneb	a
 913 00cc 98 87                   		mov	[sp+135], a
 257:../DGC_A230_Functions/DGC_A230_Parameters_Functions.c **** 			break;
 914                             		.loc 1 257 0
 915 00ce EC E6 00 00             		br	!!.L5
 916                             	.L9:
 252:../DGC_A230_Functions/DGC_A230_Parameters_Functions.c **** 	{
 917                             		.loc 1 252 0 discriminator 2
 918 00d2 88 86                   		mov	a, [sp+134]
 919 00d4 9D F0                   		mov	r8, a
 920 00d6 81                      		inc	a
 921 00d7 98 86                   		mov	[sp+134], a
 922                             	.L8:
 252:../DGC_A230_Functions/DGC_A230_Parameters_Functions.c **** 	{
 923                             		.loc 1 252 0 is_stmt 0 discriminator 1
 924 00d9 88 86                   		mov	a, [sp+134]
 925 00db 9D F0                   		mov	r8, a
 926 00dd D1                      		cmp0	a
 927 00de 71 FF                   		 xor1	CY, a.7
 928 00e0 61 C8                   		 skc
 929 00e2 EC 9A 00 00             		 br	!!.L10
 930                             	.L5:
 258:../DGC_A230_Functions/DGC_A230_Parameters_Functions.c **** 			}
 259:../DGC_A230_Functions/DGC_A230_Parameters_Functions.c **** 	}
 260:../DGC_A230_Functions/DGC_A230_Parameters_Functions.c **** 	done:
 261:../DGC_A230_Functions/DGC_A230_Parameters_Functions.c **** 	R_FDL_Close();
 931                             		.loc 1 261 0 is_stmt 1
 932 00e6 FC 00 00 00             		call	!!%code(_R_FDL_Close)
 262:../DGC_A230_Functions/DGC_A230_Parameters_Functions.c **** 
 263:../DGC_A230_Functions/DGC_A230_Parameters_Functions.c **** 	return (fdl_status_return);
 933                             		.loc 1 263 0
 934 00ea 88 87                   		mov	a, [sp+135]
 935 00ec 9D F0                   		mov	r8, a
 264:../DGC_A230_Functions/DGC_A230_Parameters_Functions.c **** 
 265:../DGC_A230_Functions/DGC_A230_Parameters_Functions.c **** }
 936                             		.loc 1 265 0
 937 00ee 10 88                   		addw	sp, #136
 938 00f0 D7                      		ret
 939                             	.LFE1:
 941                             		.section	.rodata
 942                             	.LC0:
 943 0000 72 45 00                		.string	"rE"
 944                             	.LC1:
 945 0003 53 2D 00                		.string	"S-"
 946                             	.LC2:
 947 0006 2D 2D 00                		.string	"--"
 948                             	.LC3:
 949 0009 45 72 00                		.string	"Er"
 950                             	.LC4:
 951 000c 72 6F 00                		.string	"ro"
 952                             		.section	.text.Reset_Factory_Default_Parameters,"ax",@progbits
 953                             		.global	_Reset_Factory_Default_Parameters
 955                             	_Reset_Factory_Default_Parameters:
 956                             	.LFB2:
 266:../DGC_A230_Functions/DGC_A230_Parameters_Functions.c **** 
 267:../DGC_A230_Functions/DGC_A230_Parameters_Functions.c **** void Reset_Factory_Default_Parameters (uint8_t The_First_Time)
 268:../DGC_A230_Functions/DGC_A230_Parameters_Functions.c **** {
 957                             		.loc 1 268 0
 958                             		; start of function
 959                             		; locals: 2 bytes
 960                             		; outgoing: 6 bytes
 961                             		; uses ES register
 962 0000 20 08                   		subw	sp, #8
 963                             	.LCFI1:
 269:../DGC_A230_Functions/DGC_A230_Parameters_Functions.c **** 	uint8_t fdl_status_return;
 270:../DGC_A230_Functions/DGC_A230_Parameters_Functions.c **** 
 271:../DGC_A230_Functions/DGC_A230_Parameters_Functions.c **** 	Display_Mode = PARA_MODE;
 964                             		.loc 1 271 0
 965 0002 51 03                   		mov	a, #3
 966 0004 9F 00 00                		mov	!_Display_Mode, a
 272:../DGC_A230_Functions/DGC_A230_Parameters_Functions.c **** 
 273:../DGC_A230_Functions/DGC_A230_Parameters_Functions.c **** 	Factory_Default_Setting(The_First_Time);
 967                             		.loc 1 273 0
 968 0007 88 0C                   		mov	a, [sp+12]
 969 0009 9D F0                   		mov	r8, a
 970 000b 98 00                   		mov	[sp], a
 971 000d FC 00 00 00             		call	!!%code(_Factory_Default_Setting)
 274:../DGC_A230_Functions/DGC_A230_Parameters_Functions.c **** 	fdl_status_return = Write_Config_Parameters();
 972                             		.loc 1 274 0
 973 0011 FC 00 00 00             		call	!!%code(_Write_Config_Parameters)
 974 0015 8D F0                   		mov	a, r8
 975 0017 98 07                   		mov	[sp+7], a
 275:../DGC_A230_Functions/DGC_A230_Parameters_Functions.c **** 
 276:../DGC_A230_Functions/DGC_A230_Parameters_Functions.c **** 	memcpy(&Parameter_Name[0], "rE", sizeof("rE"));
 976                             		.loc 1 276 0
 977 0019 30 00 00                		movw	ax, #_Parameter_Name
 978 001c B8 00                   		movw	[sp], ax
 979 001e 30 00 00                		movw	ax, #.LC0
 980 0021 B8 02                   		movw	[sp+2], ax
 981 0023 30 03 00                		movw	ax, #3
 982 0026 B8 04                   		movw	[sp+4], ax
 983 0028 FC 00 00 00             		call	!!%code(_memcpy)
 277:../DGC_A230_Functions/DGC_A230_Parameters_Functions.c **** 	memcpy(&Parameter_Value[0], "S-", sizeof("S-"));
 984                             		.loc 1 277 0
 985 002c 30 00 00                		movw	ax, #_Parameter_Value
 986 002f B8 00                   		movw	[sp], ax
 987 0031 30 03 00                		movw	ax, #.LC1
 988 0034 B8 02                   		movw	[sp+2], ax
 989 0036 30 03 00                		movw	ax, #3
 990 0039 B8 04                   		movw	[sp+4], ax
 991 003b FC 00 00 00             		call	!!%code(_memcpy)
 278:../DGC_A230_Functions/DGC_A230_Parameters_Functions.c **** 
 279:../DGC_A230_Functions/DGC_A230_Parameters_Functions.c **** 	HMI_Flash_Count = 0;
 992                             		.loc 1 279 0
 993 003f F5 00 00                		clrb	!_HMI_Flash_Count
 280:../DGC_A230_Functions/DGC_A230_Parameters_Functions.c **** 	HMI_Flash_Enable = 1;
 994                             		.loc 1 280 0
 995 0042 E5 00 00                		oneb	!_HMI_Flash_Enable
 281:../DGC_A230_Functions/DGC_A230_Parameters_Functions.c **** 
 282:../DGC_A230_Functions/DGC_A230_Parameters_Functions.c **** 	while (HMI_Flash_Count <8);
 996                             		.loc 1 282 0
 997 0045 00                      		nop
 998                             	.L13:
 999                             		.loc 1 282 0 is_stmt 0 discriminator 1
 1000 0046 8F 00 00                		mov	a, !_HMI_Flash_Count
 1001 0049 9D F0                   		mov	r8, a
 1002 004b 4A F0 07                		cmp	r8, #7
 1003 004e 61 E3                   		 skh
 1004 0050 EC 46 00 00             		 br	!!.L13
 283:../DGC_A230_Functions/DGC_A230_Parameters_Functions.c **** 
 284:../DGC_A230_Functions/DGC_A230_Parameters_Functions.c **** 	if (fdl_status_return == PFDL_OK)
 1005                             		.loc 1 284 0 is_stmt 1
 1006 0054 88 07                   		mov	a, [sp+7]
 1007 0056 D1                      		cmp0	a
 1008 0057 61 E8                   		 skz
 1009 0059 EC 87 00 00             		 br	!!.L14
 285:../DGC_A230_Functions/DGC_A230_Parameters_Functions.c **** 	{
 286:../DGC_A230_Functions/DGC_A230_Parameters_Functions.c **** 		memcpy(&Parameter_Name[0], "--", sizeof("--"));
 1010                             		.loc 1 286 0
 1011 005d 30 00 00                		movw	ax, #_Parameter_Name
 1012 0060 B8 00                   		movw	[sp], ax
 1013 0062 30 06 00                		movw	ax, #.LC2
 1014 0065 B8 02                   		movw	[sp+2], ax
 1015 0067 30 03 00                		movw	ax, #3
 1016 006a B8 04                   		movw	[sp+4], ax
 1017 006c FC 00 00 00             		call	!!%code(_memcpy)
 287:../DGC_A230_Functions/DGC_A230_Parameters_Functions.c **** 		memcpy(&Parameter_Value[0], "--", sizeof("--"));
 1018                             		.loc 1 287 0
 1019 0070 30 00 00                		movw	ax, #_Parameter_Value
 1020 0073 B8 00                   		movw	[sp], ax
 1021 0075 30 06 00                		movw	ax, #.LC2
 1022 0078 B8 02                   		movw	[sp+2], ax
 1023 007a 30 03 00                		movw	ax, #3
 1024 007d B8 04                   		movw	[sp+4], ax
 1025 007f FC 00 00 00             		call	!!%code(_memcpy)
 1026 0083 EC AD 00 00             		br	!!.L15
 1027                             	.L14:
 288:../DGC_A230_Functions/DGC_A230_Parameters_Functions.c **** 	}
 289:../DGC_A230_Functions/DGC_A230_Parameters_Functions.c **** 	else
 290:../DGC_A230_Functions/DGC_A230_Parameters_Functions.c **** 	{
 291:../DGC_A230_Functions/DGC_A230_Parameters_Functions.c **** 		memcpy(&Parameter_Name[0], "Er", sizeof("Er"));
 1028                             		.loc 1 291 0
 1029 0087 30 00 00                		movw	ax, #_Parameter_Name
 1030 008a B8 00                   		movw	[sp], ax
 1031 008c 30 09 00                		movw	ax, #.LC3
 1032 008f B8 02                   		movw	[sp+2], ax
 1033 0091 30 03 00                		movw	ax, #3
 1034 0094 B8 04                   		movw	[sp+4], ax
 1035 0096 FC 00 00 00             		call	!!%code(_memcpy)
 292:../DGC_A230_Functions/DGC_A230_Parameters_Functions.c **** 		memcpy(&Parameter_Value[0], "ro", sizeof("ro"));
 1036                             		.loc 1 292 0
 1037 009a 30 00 00                		movw	ax, #_Parameter_Value
 1038 009d B8 00                   		movw	[sp], ax
 1039 009f 30 0C 00                		movw	ax, #.LC4
 1040 00a2 B8 02                   		movw	[sp+2], ax
 1041 00a4 30 03 00                		movw	ax, #3
 1042 00a7 B8 04                   		movw	[sp+4], ax
 1043 00a9 FC 00 00 00             		call	!!%code(_memcpy)
 1044                             	.L15:
 293:../DGC_A230_Functions/DGC_A230_Parameters_Functions.c **** 	}
 294:../DGC_A230_Functions/DGC_A230_Parameters_Functions.c **** 
 295:../DGC_A230_Functions/DGC_A230_Parameters_Functions.c **** 	while (HMI_Flash_Count <12);
 1045                             		.loc 1 295 0
 1046 00ad 00                      		nop
 1047                             	.L16:
 1048                             		.loc 1 295 0 is_stmt 0 discriminator 1
 1049 00ae 8F 00 00                		mov	a, !_HMI_Flash_Count
 1050 00b1 9D F0                   		mov	r8, a
 1051 00b3 4A F0 0B                		cmp	r8, #11
 1052 00b6 61 E3                   		 skh
 1053 00b8 EC AE 00 00             		 br	!!.L16
 296:../DGC_A230_Functions/DGC_A230_Parameters_Functions.c **** 	HMI_Flash_Enable = 0;
 1054                             		.loc 1 296 0 is_stmt 1
 1055 00bc F5 00 00                		clrb	!_HMI_Flash_Enable
 297:../DGC_A230_Functions/DGC_A230_Parameters_Functions.c **** 	Mask = 0xff;
 1056                             		.loc 1 297 0
 1057 00bf 51 FF                   		mov	a, #-1
 1058 00c1 9F 00 00                		mov	!_Mask, a
 298:../DGC_A230_Functions/DGC_A230_Parameters_Functions.c **** 	Display_Mode = NORMAL_MODE;
 1059                             		.loc 1 298 0
 1060 00c4 F5 00 00                		clrb	!_Display_Mode
 299:../DGC_A230_Functions/DGC_A230_Parameters_Functions.c **** }
 1061                             		.loc 1 299 0
 1062 00c7 10 08                   		addw	sp, #8
 1063 00c9 D7                      		ret
 1064                             	.LFE2:
 1066                             		.section	.text.Read_Parameters_From_Flash_Memory,"ax",@progbits
 1067                             		.global	_Read_Parameters_From_Flash_Memory
 1069                             	_Read_Parameters_From_Flash_Memory:
 1070                             	.LFB3:
 300:../DGC_A230_Functions/DGC_A230_Parameters_Functions.c **** 
 301:../DGC_A230_Functions/DGC_A230_Parameters_Functions.c **** void Read_Parameters_From_Flash_Memory (void)
 302:../DGC_A230_Functions/DGC_A230_Parameters_Functions.c **** {
 1071                             		.loc 1 302 0
 1072                             		; start of function
 1073                             		; outgoing: 6 bytes
 1074                             		; uses ES register
 1075 0000 20 06                   		subw	sp, #6
 1076                             	.LCFI2:
 303:../DGC_A230_Functions/DGC_A230_Parameters_Functions.c **** 	uint8_t fdl_status_return;
 304:../DGC_A230_Functions/DGC_A230_Parameters_Functions.c **** 
 305:../DGC_A230_Functions/DGC_A230_Parameters_Functions.c **** //	R_FDL_Create();
 306:../DGC_A230_Functions/DGC_A230_Parameters_Functions.c **** 	R_FDL_Open();
 1077                             		.loc 1 306 0
 1078 0002 FC 00 00 00             		call	!!%code(_R_FDL_Open)
 307:../DGC_A230_Functions/DGC_A230_Parameters_Functions.c **** 	R_FDL_Read(0x0000, &CFG_Parameters_Value[0], 128);
 1079                             		.loc 1 307 0
 1080 0006 F6                      		clrw	ax
 1081 0007 B8 00                   		movw	[sp], ax
 1082 0009 30 00 00                		movw	ax, #_CFG_Parameters_Value
 1083 000c B8 02                   		movw	[sp+2], ax
 1084 000e 30 80 00                		movw	ax, #128
 1085 0011 B8 04                   		movw	[sp+4], ax
 1086 0013 FC 00 00 00             		call	!!%code(_R_FDL_Read)
 308:../DGC_A230_Functions/DGC_A230_Parameters_Functions.c **** 	R_FDL_Close();
 1087                             		.loc 1 308 0
 1088 0017 FC 00 00 00             		call	!!%code(_R_FDL_Close)
 309:../DGC_A230_Functions/DGC_A230_Parameters_Functions.c **** 	if (CFG_Parameters_Value[1] == 0xff)		// The first time read, memory is empty
 1089                             		.loc 1 309 0
 1090 001b 8F 00 00                		mov	a, !_CFG_Parameters_Value+1
 1091 001e 9D F0                   		mov	r8, a
 1092 0020 4A F0 FF                		cmp	r8, #-1
 1093 0023 61 E8                   		 skz
 1094 0025 EC 30 00 00             		 br	!!.L17
 310:../DGC_A230_Functions/DGC_A230_Parameters_Functions.c **** 	{
 311:../DGC_A230_Functions/DGC_A230_Parameters_Functions.c **** 		Reset_Factory_Default_Parameters(0x01);
 1095                             		.loc 1 311 0
 1096 0029 E1                      		oneb	a
 1097 002a 98 00                   		mov	[sp], a
 1098 002c FC 00 00 00             		call	!!%code(_Reset_Factory_Default_Parameters)
 1099                             	.L17:
 312:../DGC_A230_Functions/DGC_A230_Parameters_Functions.c **** 	}
 313:../DGC_A230_Functions/DGC_A230_Parameters_Functions.c **** }
 1100                             		.loc 1 313 0
 1101 0030 10 06                   		addw	sp, #6
 1102 0032 D7                      		ret
 1103                             	.LFE3:
 1105                             		.section	.text.Write_Parameters_To_Flash_Memory,"ax",@progbits
 1106                             		.global	_Write_Parameters_To_Flash_Memory
 1108                             	_Write_Parameters_To_Flash_Memory:
 1109                             	.LFB4:
 314:../DGC_A230_Functions/DGC_A230_Parameters_Functions.c **** 
 315:../DGC_A230_Functions/DGC_A230_Parameters_Functions.c **** void Write_Parameters_To_Flash_Memory(void)
 316:../DGC_A230_Functions/DGC_A230_Parameters_Functions.c **** {
 1110                             		.loc 1 316 0
 1111                             		; start of function
 1112                             		; locals: 2 bytes
 1113                             		; uses ES register
 1114 0000 20 02                   		subw	sp, #2
 1115                             	.LCFI3:
 317:../DGC_A230_Functions/DGC_A230_Parameters_Functions.c **** 	uint8_t fdl_status_return;
 318:../DGC_A230_Functions/DGC_A230_Parameters_Functions.c **** 
 319:../DGC_A230_Functions/DGC_A230_Parameters_Functions.c **** 	fdl_status_return = Write_Config_Parameters();
 1116                             		.loc 1 319 0
 1117 0002 FC 00 00 00             		call	!!%code(_Write_Config_Parameters)
 1118 0006 8D F0                   		mov	a, r8
 1119 0008 98 01                   		mov	[sp+1], a
 320:../DGC_A230_Functions/DGC_A230_Parameters_Functions.c **** 
 321:../DGC_A230_Functions/DGC_A230_Parameters_Functions.c **** 	HMI_Flash_Count = 0;
 1120                             		.loc 1 321 0
 1121 000a F5 00 00                		clrb	!_HMI_Flash_Count
 322:../DGC_A230_Functions/DGC_A230_Parameters_Functions.c **** 	HMI_Flash_Enable = 1;
 1122                             		.loc 1 322 0
 1123 000d E5 00 00                		oneb	!_HMI_Flash_Enable
 323:../DGC_A230_Functions/DGC_A230_Parameters_Functions.c **** 
 324:../DGC_A230_Functions/DGC_A230_Parameters_Functions.c **** 	while (HMI_Flash_Count <6);
 1124                             		.loc 1 324 0
 1125 0010 00                      		nop
 1126                             	.L20:
 1127                             		.loc 1 324 0 is_stmt 0 discriminator 1
 1128 0011 8F 00 00                		mov	a, !_HMI_Flash_Count
 1129 0014 9D F0                   		mov	r8, a
 1130 0016 4A F0 05                		cmp	r8, #5
 1131 0019 61 E3                   		 skh
 1132 001b EC 11 00 00             		 br	!!.L20
 325:../DGC_A230_Functions/DGC_A230_Parameters_Functions.c **** 
 326:../DGC_A230_Functions/DGC_A230_Parameters_Functions.c **** 	HMI_Flash_Enable = 0;
 1133                             		.loc 1 326 0 is_stmt 1
 1134 001f F5 00 00                		clrb	!_HMI_Flash_Enable
 327:../DGC_A230_Functions/DGC_A230_Parameters_Functions.c **** 	Mask = 0xff;
 1135                             		.loc 1 327 0
 1136 0022 51 FF                   		mov	a, #-1
 1137 0024 9F 00 00                		mov	!_Mask, a
 328:../DGC_A230_Functions/DGC_A230_Parameters_Functions.c **** }
 1138                             		.loc 1 328 0
 1139 0027 10 02                   		addw	sp, #2
 1140 0029 D7                      		ret
 1141                             	.LFE4:
 1143                             		.section	.text.Calculate_CFG_Parameters,"ax",@progbits
 1144                             		.global	_Calculate_CFG_Parameters
 1146                             	_Calculate_CFG_Parameters:
 1147                             	.LFB5:
 329:../DGC_A230_Functions/DGC_A230_Parameters_Functions.c **** 
 330:../DGC_A230_Functions/DGC_A230_Parameters_Functions.c **** void Calculate_CFG_Parameters (void)
 331:../DGC_A230_Functions/DGC_A230_Parameters_Functions.c **** {
 1148                             		.loc 1 331 0
 1149                             		; start of function
 1150                             		; locals: 4 bytes
 1151                             		; outgoing: 6 bytes
 1152                             		; uses ES register
 1153 0000 20 0A                   		subw	sp, #10
 1154                             	.LCFI4:
 332:../DGC_A230_Functions/DGC_A230_Parameters_Functions.c **** 	uint8_t Val1, Val2, Val3;
 333:../DGC_A230_Functions/DGC_A230_Parameters_Functions.c **** 
 334:../DGC_A230_Functions/DGC_A230_Parameters_Functions.c **** 	CFG_parameter.Motor_type 					= CFG_Parameters_Value[1];		// A1: Motor type selection
 1155                             		.loc 1 334 0
 1156 0002 8F 00 00                		mov	a, !_CFG_Parameters_Value+1
 1157 0005 9D F0                   		mov	r8, a
 1158 0007 9F 00 00                		mov	!_CFG_parameter, a
 335:../DGC_A230_Functions/DGC_A230_Parameters_Functions.c **** 	CFG_parameter.Number_Of_Motors 				= CFG_Parameters_Value[70];		// 70: Select number of motors ins
 1159                             		.loc 1 335 0
 1160 000a 8F 00 00                		mov	a, !_CFG_Parameters_Value+70
 1161 000d 9D F0                   		mov	r8, a
 1162 000f 9F 00 00                		mov	!_CFG_parameter+1, a
 336:../DGC_A230_Functions/DGC_A230_Parameters_Functions.c **** 
 337:../DGC_A230_Functions/DGC_A230_Parameters_Functions.c **** 	CFG_parameter.Double_Time_Enable			= CFG_Parameters_Value[24];		// 24: Enable double maneuver time
 1163                             		.loc 1 337 0
 1164 0012 8F 00 00                		mov	a, !_CFG_Parameters_Value+24
 1165 0015 9D F0                   		mov	r8, a
 1166 0017 9F 00 00                		mov	!_CFG_parameter+2, a
 338:../DGC_A230_Functions/DGC_A230_Parameters_Functions.c **** 
 339:../DGC_A230_Functions/DGC_A230_Parameters_Functions.c **** 	CFG_parameter.Motor_Start_Time				= CFG_Parameters_Value[34]*100;	// Motor Start time = [34]*100
 1167                             		.loc 1 339 0
 1168 001a 8F 00 00                		mov	a, !_CFG_Parameters_Value+34
 1169 001d 9D F0                   		mov	r8, a
 1170 001f F4 F1                   		clrb	r9
 1171 0021 30 64 00                		movw	ax, #100
 1172 0024 12                      		movw	bc, ax
 1173 0025 AD F0                   		movw	ax, r8
 1174 0027 61 DD                   		push	psw
 1175 0029 71 7B FA                		di
 1176 002c CF E8 00 00             		mov	!MDUC, #0
 1177 0030 BE F0                   		movw	MDAL, ax
 1178 0032 13                      		movw	ax, bc
 1179 0033 BE F2                   		movw	MDAH, ax
 1180 0035 00                      		nop
 1181 0036 AE F6                   		movw	ax, MDBL
 1182 0038 61 CD                   		pop 	psw ;mulhi3_g13 ax,r8,#100
 1183 003a BD F0                   		movw	r8, ax
 1184 003c BF 00 00                		movw	!_CFG_parameter+4, ax
 340:../DGC_A230_Functions/DGC_A230_Parameters_Functions.c **** 
 341:../DGC_A230_Functions/DGC_A230_Parameters_Functions.c **** 	Val1 = convert_BCD_to_binary(CFG_Parameters_Value[36]);
 1185                             		.loc 1 341 0
 1186 003f 8F 00 00                		mov	a, !_CFG_Parameters_Value+36
 1187 0042 9D F0                   		mov	r8, a
 1188 0044 F4 F1                   		clrb	r9
 1189 0046 AD F0                   		movw	ax, r8
 1190 0048 B8 00                   		movw	[sp], ax
 1191 004a FC 00 00 00             		call	!!%code(_convert_BCD_to_binary)
 1192 004e 8D F0                   		mov	a, r8
 1193 0050 98 09                   		mov	[sp+9], a
 342:../DGC_A230_Functions/DGC_A230_Parameters_Functions.c **** 	CFG_parameter.Motor_Maximum_Boost_Time 		= Val1*100;						// Motor Boost with max torque time = [3
 1194                             		.loc 1 342 0
 1195 0052 31 8E                   		shrw	ax, 8
 1196 0054 BD F0                   		movw	r8, ax
 1197 0056 30 64 00                		movw	ax, #100
 1198 0059 12                      		movw	bc, ax
 1199 005a AD F0                   		movw	ax, r8
 1200 005c 61 DD                   		push	psw
 1201 005e 71 7B FA                		di
 1202 0061 CF E8 00 00             		mov	!MDUC, #0
 1203 0065 BE F0                   		movw	MDAL, ax
 1204 0067 13                      		movw	ax, bc
 1205 0068 BE F2                   		movw	MDAH, ax
 1206 006a 00                      		nop
 1207 006b AE F6                   		movw	ax, MDBL
 1208 006d 61 CD                   		pop 	psw ;mulhi3_g13 ax,r8,#100
 1209 006f BD F0                   		movw	r8, ax
 1210 0071 BF 00 00                		movw	!_CFG_parameter+6, ax
 343:../DGC_A230_Functions/DGC_A230_Parameters_Functions.c **** 
 344:../DGC_A230_Functions/DGC_A230_Parameters_Functions.c **** 	Val1 = convert_BCD_to_binary(CFG_Parameters_Value[17]);
 1211                             		.loc 1 344 0
 1212 0074 8F 00 00                		mov	a, !_CFG_Parameters_Value+17
 1213 0077 9D F0                   		mov	r8, a
 1214 0079 F4 F1                   		clrb	r9
 1215 007b AD F0                   		movw	ax, r8
 1216 007d B8 00                   		movw	[sp], ax
 1217 007f FC 00 00 00             		call	!!%code(_convert_BCD_to_binary)
 1218 0083 8D F0                   		mov	a, r8
 1219 0085 98 09                   		mov	[sp+9], a
 345:../DGC_A230_Functions/DGC_A230_Parameters_Functions.c **** 	CFG_parameter.M1_Travel_Time				= Val1*100;					// Motor 1 Main maneuver time 		= [17]*100)
 1220                             		.loc 1 345 0
 1221 0087 31 8E                   		shrw	ax, 8
 1222 0089 BD F0                   		movw	r8, ax
 1223 008b 30 64 00                		movw	ax, #100
 1224 008e 12                      		movw	bc, ax
 1225 008f AD F0                   		movw	ax, r8
 1226 0091 61 DD                   		push	psw
 1227 0093 71 7B FA                		di
 1228 0096 CF E8 00 00             		mov	!MDUC, #0
 1229 009a BE F0                   		movw	MDAL, ax
 1230 009c 13                      		movw	ax, bc
 1231 009d BE F2                   		movw	MDAH, ax
 1232 009f 00                      		nop
 1233 00a0 AE F6                   		movw	ax, MDBL
 1234 00a2 61 CD                   		pop 	psw ;mulhi3_g13 ax,r8,#100
 1235 00a4 BD F0                   		movw	r8, ax
 1236 00a6 BF 00 00                		movw	!_CFG_parameter+12, ax
 346:../DGC_A230_Functions/DGC_A230_Parameters_Functions.c **** 
 347:../DGC_A230_Functions/DGC_A230_Parameters_Functions.c **** 	Val2 = convert_BCD_to_binary(CFG_Parameters_Value[22]);
 1237                             		.loc 1 347 0
 1238 00a9 8F 00 00                		mov	a, !_CFG_Parameters_Value+22
 1239 00ac 9D F0                   		mov	r8, a
 1240 00ae F4 F1                   		clrb	r9
 1241 00b0 AD F0                   		movw	ax, r8
 1242 00b2 B8 00                   		movw	[sp], ax
 1243 00b4 FC 00 00 00             		call	!!%code(_convert_BCD_to_binary)
 1244 00b8 8D F0                   		mov	a, r8
 1245 00ba 98 08                   		mov	[sp+8], a
 348:../DGC_A230_Functions/DGC_A230_Parameters_Functions.c **** 	CFG_parameter.M1_Time_Increase = Val2*100;								// MOTOR 1 operating time increase	= [22] * 100
 1246                             		.loc 1 348 0
 1247 00bc 31 8E                   		shrw	ax, 8
 1248 00be BD F0                   		movw	r8, ax
 1249 00c0 30 64 00                		movw	ax, #100
 1250 00c3 12                      		movw	bc, ax
 1251 00c4 AD F0                   		movw	ax, r8
 1252 00c6 61 DD                   		push	psw
 1253 00c8 71 7B FA                		di
 1254 00cb CF E8 00 00             		mov	!MDUC, #0
 1255 00cf BE F0                   		movw	MDAL, ax
 1256 00d1 13                      		movw	ax, bc
 1257 00d2 BE F2                   		movw	MDAH, ax
 1258 00d4 00                      		nop
 1259 00d5 AE F6                   		movw	ax, MDBL
 1260 00d7 61 CD                   		pop 	psw ;mulhi3_g13 ax,r8,#100
 1261 00d9 BD F0                   		movw	r8, ax
 1262 00db BF 00 00                		movw	!_CFG_parameter+8, ax
 349:../DGC_A230_Functions/DGC_A230_Parameters_Functions.c **** 
 350:../DGC_A230_Functions/DGC_A230_Parameters_Functions.c **** 	Val3 = convert_BCD_to_binary(CFG_Parameters_Value[11]);
 1263                             		.loc 1 350 0
 1264 00de 8F 00 00                		mov	a, !_CFG_Parameters_Value+11
 1265 00e1 9D F0                   		mov	r8, a
 1266 00e3 F4 F1                   		clrb	r9
 1267 00e5 AD F0                   		movw	ax, r8
 1268 00e7 B8 00                   		movw	[sp], ax
 1269 00e9 FC 00 00 00             		call	!!%code(_convert_BCD_to_binary)
 1270 00ed 8D F0                   		mov	a, r8
 1271 00ef 98 07                   		mov	[sp+7], a
 351:../DGC_A230_Functions/DGC_A230_Parameters_Functions.c **** 	CFG_parameter.M1_Deceleration_Time			= Val1*Val3;				// Motor 1 Deceleration time 		= ([17]+[22])*
 1272                             		.loc 1 351 0
 1273 00f1 88 09                   		mov	a, [sp+9]
 1274 00f3 31 8E                   		shrw	ax, 8
 1275 00f5 BD F2                   		movw	r10, ax
 1276 00f7 88 07                   		mov	a, [sp+7]
 1277 00f9 31 8E                   		shrw	ax, 8
 1278 00fb BD F0                   		movw	r8, ax
 1279 00fd AD F0                   		movw	ax, r8
 1280 00ff 12                      		movw	bc, ax
 1281 0100 AD F2                   		movw	ax, r10
 1282 0102 61 DD                   		push	psw
 1283 0104 71 7B FA                		di
 1284 0107 CF E8 00 00             		mov	!MDUC, #0
 1285 010b BE F0                   		movw	MDAL, ax
 1286 010d 13                      		movw	ax, bc
 1287 010e BE F2                   		movw	MDAH, ax
 1288 0110 00                      		nop
 1289 0111 AE F6                   		movw	ax, MDBL
 1290 0113 61 CD                   		pop 	psw ;mulhi3_g13 ax,r10,r8
 1291 0115 BD F0                   		movw	r8, ax
 1292 0117 BF 00 00                		movw	!_CFG_parameter+20, ax
 352:../DGC_A230_Functions/DGC_A230_Parameters_Functions.c **** 
 353:../DGC_A230_Functions/DGC_A230_Parameters_Functions.c **** 	Val1 = convert_BCD_to_binary(CFG_Parameters_Value[19]);
 1293                             		.loc 1 353 0
 1294 011a 8F 00 00                		mov	a, !_CFG_Parameters_Value+19
 1295 011d 9D F0                   		mov	r8, a
 1296 011f F4 F1                   		clrb	r9
 1297 0121 AD F0                   		movw	ax, r8
 1298 0123 B8 00                   		movw	[sp], ax
 1299 0125 FC 00 00 00             		call	!!%code(_convert_BCD_to_binary)
 1300 0129 8D F0                   		mov	a, r8
 1301 012b 98 09                   		mov	[sp+9], a
 354:../DGC_A230_Functions/DGC_A230_Parameters_Functions.c **** 	CFG_parameter.M2_Travel_Time				= Val1*100;					// Motor 2 Main maneuver time 		= [19]*100
 1302                             		.loc 1 354 0
 1303 012d 31 8E                   		shrw	ax, 8
 1304 012f BD F0                   		movw	r8, ax
 1305 0131 30 64 00                		movw	ax, #100
 1306 0134 12                      		movw	bc, ax
 1307 0135 AD F0                   		movw	ax, r8
 1308 0137 61 DD                   		push	psw
 1309 0139 71 7B FA                		di
 1310 013c CF E8 00 00             		mov	!MDUC, #0
 1311 0140 BE F0                   		movw	MDAL, ax
 1312 0142 13                      		movw	ax, bc
 1313 0143 BE F2                   		movw	MDAH, ax
 1314 0145 00                      		nop
 1315 0146 AE F6                   		movw	ax, MDBL
 1316 0148 61 CD                   		pop 	psw ;mulhi3_g13 ax,r8,#100
 1317 014a BD F0                   		movw	r8, ax
 1318 014c BF 00 00                		movw	!_CFG_parameter+14, ax
 355:../DGC_A230_Functions/DGC_A230_Parameters_Functions.c **** 	Val2 = convert_BCD_to_binary(CFG_Parameters_Value[23]);
 1319                             		.loc 1 355 0
 1320 014f 8F 00 00                		mov	a, !_CFG_Parameters_Value+23
 1321 0152 9D F0                   		mov	r8, a
 1322 0154 F4 F1                   		clrb	r9
 1323 0156 AD F0                   		movw	ax, r8
 1324 0158 B8 00                   		movw	[sp], ax
 1325 015a FC 00 00 00             		call	!!%code(_convert_BCD_to_binary)
 1326 015e 8D F0                   		mov	a, r8
 1327 0160 98 08                   		mov	[sp+8], a
 356:../DGC_A230_Functions/DGC_A230_Parameters_Functions.c **** 	CFG_parameter.M2_Time_Increase = Val2*100;									// MOTOR 2 operating time increase	= [23] * 100
 1328                             		.loc 1 356 0
 1329 0162 31 8E                   		shrw	ax, 8
 1330 0164 BD F0                   		movw	r8, ax
 1331 0166 30 64 00                		movw	ax, #100
 1332 0169 12                      		movw	bc, ax
 1333 016a AD F0                   		movw	ax, r8
 1334 016c 61 DD                   		push	psw
 1335 016e 71 7B FA                		di
 1336 0171 CF E8 00 00             		mov	!MDUC, #0
 1337 0175 BE F0                   		movw	MDAL, ax
 1338 0177 13                      		movw	ax, bc
 1339 0178 BE F2                   		movw	MDAH, ax
 1340 017a 00                      		nop
 1341 017b AE F6                   		movw	ax, MDBL
 1342 017d 61 CD                   		pop 	psw ;mulhi3_g13 ax,r8,#100
 1343 017f BD F0                   		movw	r8, ax
 1344 0181 BF 00 00                		movw	!_CFG_parameter+10, ax
 357:../DGC_A230_Functions/DGC_A230_Parameters_Functions.c **** 
 358:../DGC_A230_Functions/DGC_A230_Parameters_Functions.c **** 	Val3 = convert_BCD_to_binary(CFG_Parameters_Value[12]);
 1345                             		.loc 1 358 0
 1346 0184 8F 00 00                		mov	a, !_CFG_Parameters_Value+12
 1347 0187 9D F0                   		mov	r8, a
 1348 0189 F4 F1                   		clrb	r9
 1349 018b AD F0                   		movw	ax, r8
 1350 018d B8 00                   		movw	[sp], ax
 1351 018f FC 00 00 00             		call	!!%code(_convert_BCD_to_binary)
 1352 0193 8D F0                   		mov	a, r8
 1353 0195 98 07                   		mov	[sp+7], a
 359:../DGC_A230_Functions/DGC_A230_Parameters_Functions.c **** 	CFG_parameter.M2_Deceleration_Time			= Val1*Val3;				// Motor 2 Deceleration time 		= ([19]+[23])*
 1354                             		.loc 1 359 0
 1355 0197 88 09                   		mov	a, [sp+9]
 1356 0199 31 8E                   		shrw	ax, 8
 1357 019b BD F2                   		movw	r10, ax
 1358 019d 88 07                   		mov	a, [sp+7]
 1359 019f 31 8E                   		shrw	ax, 8
 1360 01a1 BD F0                   		movw	r8, ax
 1361 01a3 AD F0                   		movw	ax, r8
 1362 01a5 12                      		movw	bc, ax
 1363 01a6 AD F2                   		movw	ax, r10
 1364 01a8 61 DD                   		push	psw
 1365 01aa 71 7B FA                		di
 1366 01ad CF E8 00 00             		mov	!MDUC, #0
 1367 01b1 BE F0                   		movw	MDAL, ax
 1368 01b3 13                      		movw	ax, bc
 1369 01b4 BE F2                   		movw	MDAH, ax
 1370 01b6 00                      		nop
 1371 01b7 AE F6                   		movw	ax, MDBL
 1372 01b9 61 CD                   		pop 	psw ;mulhi3_g13 ax,r10,r8
 1373 01bb BD F0                   		movw	r8, ax
 1374 01bd BF 00 00                		movw	!_CFG_parameter+22, ax
 360:../DGC_A230_Functions/DGC_A230_Parameters_Functions.c **** 
 361:../DGC_A230_Functions/DGC_A230_Parameters_Functions.c **** 	Val1 = convert_BCD_to_binary(CFG_Parameters_Value[15]);
 1375                             		.loc 1 361 0
 1376 01c0 8F 00 00                		mov	a, !_CFG_Parameters_Value+15
 1377 01c3 9D F0                   		mov	r8, a
 1378 01c5 F4 F1                   		clrb	r9
 1379 01c7 AD F0                   		movw	ax, r8
 1380 01c9 B8 00                   		movw	[sp], ax
 1381 01cb FC 00 00 00             		call	!!%code(_convert_BCD_to_binary)
 1382 01cf 8D F0                   		mov	a, r8
 1383 01d1 98 09                   		mov	[sp+9], a
 362:../DGC_A230_Functions/DGC_A230_Parameters_Functions.c **** 	CFG_parameter.Patial_Open_Adjust			= Val1;							// 15: Partial opening adjustment (%)
 1384                             		.loc 1 362 0
 1385 01d3 9D F0                   		mov	r8, a
 1386 01d5 9F 00 00                		mov	!_CFG_parameter+57, a
 363:../DGC_A230_Functions/DGC_A230_Parameters_Functions.c **** 
 364:../DGC_A230_Functions/DGC_A230_Parameters_Functions.c **** 	if (CFG_parameter.Double_Time_Enable == 0x01)
 1387                             		.loc 1 364 0
 1388 01d8 8F 00 00                		mov	a, !_CFG_parameter+2
 1389 01db 9D F0                   		mov	r8, a
 1390 01dd 4A F0 01                		cmp	r8, #1
 1391 01e0 61 E8                   		 skz
 1392 01e2 EC 12 02 00             		 br	!!.L22
 365:../DGC_A230_Functions/DGC_A230_Parameters_Functions.c **** 	{
 366:../DGC_A230_Functions/DGC_A230_Parameters_Functions.c **** 		CFG_parameter.M1_Travel_Time <<= 1;
 1393                             		.loc 1 366 0
 1394 01e6 AF 00 00                		movw	ax, !_CFG_parameter+12
 1395 01e9 BD F0                   		movw	r8, ax
 1396 01eb 01                      		addw	ax, ax
 1397 01ec BD F0                   		movw	r8, ax
 1398 01ee BF 00 00                		movw	!_CFG_parameter+12, ax
 367:../DGC_A230_Functions/DGC_A230_Parameters_Functions.c **** 		CFG_parameter.M2_Travel_Time <<= 1;
 1399                             		.loc 1 367 0
 1400 01f1 AF 00 00                		movw	ax, !_CFG_parameter+14
 1401 01f4 BD F0                   		movw	r8, ax
 1402 01f6 01                      		addw	ax, ax
 1403 01f7 BD F0                   		movw	r8, ax
 1404 01f9 BF 00 00                		movw	!_CFG_parameter+14, ax
 368:../DGC_A230_Functions/DGC_A230_Parameters_Functions.c **** 		CFG_parameter.M1_Deceleration_Time <<= 1;
 1405                             		.loc 1 368 0
 1406 01fc AF 00 00                		movw	ax, !_CFG_parameter+20
 1407 01ff BD F0                   		movw	r8, ax
 1408 0201 01                      		addw	ax, ax
 1409 0202 BD F0                   		movw	r8, ax
 1410 0204 BF 00 00                		movw	!_CFG_parameter+20, ax
 369:../DGC_A230_Functions/DGC_A230_Parameters_Functions.c **** 		CFG_parameter.M2_Deceleration_Time <<= 1;
 1411                             		.loc 1 369 0
 1412 0207 AF 00 00                		movw	ax, !_CFG_parameter+22
 1413 020a BD F0                   		movw	r8, ax
 1414 020c 01                      		addw	ax, ax
 1415 020d BD F0                   		movw	r8, ax
 1416 020f BF 00 00                		movw	!_CFG_parameter+22, ax
 1417                             	.L22:
 370:../DGC_A230_Functions/DGC_A230_Parameters_Functions.c **** 	}
 371:../DGC_A230_Functions/DGC_A230_Parameters_Functions.c **** 
 372:../DGC_A230_Functions/DGC_A230_Parameters_Functions.c **** 	CFG_parameter.M1_Maneuver_Time = CFG_parameter.M1_Travel_Time - CFG_parameter.M1_Deceleration_Time
 1418                             		.loc 1 372 0
 1419 0212 AF 00 00                		movw	ax, !_CFG_parameter+12
 1420 0215 BD F2                   		movw	r10, ax
 1421 0217 AF 00 00                		movw	ax, !_CFG_parameter+20
 1422 021a BD F0                   		movw	r8, ax
 1423 021c AD F2                   		movw	ax, r10
 1424 021e 26 F0                   		subw	ax, r8
 1425 0220 BD F0                   		movw	r8, ax
 1426 0222 BF 00 00                		movw	!_CFG_parameter+16, ax
 373:../DGC_A230_Functions/DGC_A230_Parameters_Functions.c **** 	CFG_parameter.M2_Maneuver_Time = CFG_parameter.M2_Travel_Time - CFG_parameter.M2_Deceleration_Time
 1427                             		.loc 1 373 0
 1428 0225 AF 00 00                		movw	ax, !_CFG_parameter+14
 1429 0228 BD F2                   		movw	r10, ax
 1430 022a AF 00 00                		movw	ax, !_CFG_parameter+22
 1431 022d BD F0                   		movw	r8, ax
 1432 022f AD F2                   		movw	ax, r10
 1433 0231 26 F0                   		subw	ax, r8
 1434 0233 BD F0                   		movw	r8, ax
 1435 0235 BF 00 00                		movw	!_CFG_parameter+18, ax
 374:../DGC_A230_Functions/DGC_A230_Parameters_Functions.c **** 
 375:../DGC_A230_Functions/DGC_A230_Parameters_Functions.c **** //	CFG_parameter.M1_Deceleration_Time += CFG_parameter.M1_Time_Increase;
 376:../DGC_A230_Functions/DGC_A230_Parameters_Functions.c **** //	CFG_parameter.M2_Deceleration_Time += CFG_parameter.M2_Time_Increase;
 377:../DGC_A230_Functions/DGC_A230_Parameters_Functions.c **** 
 378:../DGC_A230_Functions/DGC_A230_Parameters_Functions.c **** 	CFG_parameter.M1_Maneuver_Space = CFG_parameter.M1_Maneuver_Time * 3;
 1436                             		.loc 1 378 0
 1437 0238 AF 00 00                		movw	ax, !_CFG_parameter+16
 1438 023b BD F2                   		movw	r10, ax
 1439 023d BD F0                   		movw	r8, ax
 1440 023f 01                      		addw	ax, ax
 1441 0240 BD F0                   		movw	r8, ax
 1442 0242 06 F2                   		addw	ax, r10
 1443 0244 BD F0                   		movw	r8, ax
 1444 0246 BF 00 00                		movw	!_CFG_parameter+34, ax
 379:../DGC_A230_Functions/DGC_A230_Parameters_Functions.c **** 	CFG_parameter.M2_Maneuver_Space = CFG_parameter.M2_Maneuver_Time * 3;
 1445                             		.loc 1 379 0
 1446 0249 AF 00 00                		movw	ax, !_CFG_parameter+18
 1447 024c BD F2                   		movw	r10, ax
 1448 024e BD F0                   		movw	r8, ax
 1449 0250 01                      		addw	ax, ax
 1450 0251 BD F0                   		movw	r8, ax
 1451 0253 06 F2                   		addw	ax, r10
 1452 0255 BD F0                   		movw	r8, ax
 1453 0257 BF 00 00                		movw	!_CFG_parameter+36, ax
 380:../DGC_A230_Functions/DGC_A230_Parameters_Functions.c **** 
 381:../DGC_A230_Functions/DGC_A230_Parameters_Functions.c **** 	CFG_parameter.M1_Deceleration_Space = CFG_parameter.M1_Deceleration_Time * 3 + CFG_parameter.M1_Ti
 1454                             		.loc 1 381 0
 1455 025a AF 00 00                		movw	ax, !_CFG_parameter+20
 1456 025d BD F2                   		movw	r10, ax
 1457 025f BD F0                   		movw	r8, ax
 1458 0261 01                      		addw	ax, ax
 1459 0262 BD F0                   		movw	r8, ax
 1460 0264 06 F2                   		addw	ax, r10
 1461 0266 BD F2                   		movw	r10, ax
 1462 0268 AF 00 00                		movw	ax, !_CFG_parameter+8
 1463 026b BD F0                   		movw	r8, ax
 1464 026d AD F2                   		movw	ax, r10
 1465 026f 06 F0                   		addw	ax, r8
 1466 0271 BD F0                   		movw	r8, ax
 1467 0273 BF 00 00                		movw	!_CFG_parameter+30, ax
 382:../DGC_A230_Functions/DGC_A230_Parameters_Functions.c **** 	CFG_parameter.M2_Deceleration_Space = CFG_parameter.M2_Deceleration_Time * 3 + CFG_parameter.M2_Ti
 1468                             		.loc 1 382 0
 1469 0276 AF 00 00                		movw	ax, !_CFG_parameter+22
 1470 0279 BD F2                   		movw	r10, ax
 1471 027b BD F0                   		movw	r8, ax
 1472 027d 01                      		addw	ax, ax
 1473 027e BD F0                   		movw	r8, ax
 1474 0280 06 F2                   		addw	ax, r10
 1475 0282 BD F2                   		movw	r10, ax
 1476 0284 AF 00 00                		movw	ax, !_CFG_parameter+10
 1477 0287 BD F0                   		movw	r8, ax
 1478 0289 AD F2                   		movw	ax, r10
 1479 028b 06 F0                   		addw	ax, r8
 1480 028d BD F0                   		movw	r8, ax
 1481 028f BF 00 00                		movw	!_CFG_parameter+32, ax
 383:../DGC_A230_Functions/DGC_A230_Parameters_Functions.c **** 
 384:../DGC_A230_Functions/DGC_A230_Parameters_Functions.c **** 	CFG_parameter.M1_Total_Space = CFG_parameter.M1_Maneuver_Space + CFG_parameter.M1_Deceleration_Spa
 1482                             		.loc 1 384 0
 1483 0292 AF 00 00                		movw	ax, !_CFG_parameter+34
 1484 0295 BD F2                   		movw	r10, ax
 1485 0297 AF 00 00                		movw	ax, !_CFG_parameter+30
 1486 029a BD F0                   		movw	r8, ax
 1487 029c AD F2                   		movw	ax, r10
 1488 029e 06 F0                   		addw	ax, r8
 1489 02a0 BD F0                   		movw	r8, ax
 1490 02a2 BF 00 00                		movw	!_CFG_parameter+24, ax
 385:../DGC_A230_Functions/DGC_A230_Parameters_Functions.c **** 	CFG_parameter.M2_Total_Space = CFG_parameter.M2_Maneuver_Space + CFG_parameter.M2_Deceleration_Spa
 1491                             		.loc 1 385 0
 1492 02a5 AF 00 00                		movw	ax, !_CFG_parameter+36
 1493 02a8 BD F2                   		movw	r10, ax
 1494 02aa AF 00 00                		movw	ax, !_CFG_parameter+32
 1495 02ad BD F0                   		movw	r8, ax
 1496 02af AD F2                   		movw	ax, r10
 1497 02b1 06 F0                   		addw	ax, r8
 1498 02b3 BD F0                   		movw	r8, ax
 1499 02b5 BF 00 00                		movw	!_CFG_parameter+26, ax
 386:../DGC_A230_Functions/DGC_A230_Parameters_Functions.c **** 
 387:../DGC_A230_Functions/DGC_A230_Parameters_Functions.c **** 	if (CFG_parameter.Number_Of_Motors == 0x01)
 1500                             		.loc 1 387 0
 1501 02b8 8F 00 00                		mov	a, !_CFG_parameter+1
 1502 02bb 9D F0                   		mov	r8, a
 1503 02bd 4A F0 01                		cmp	r8, #1
 1504 02c0 61 E8                   		 skz
 1505 02c2 EC 1B 03 00             		 br	!!.L23
 388:../DGC_A230_Functions/DGC_A230_Parameters_Functions.c **** 	{
 389:../DGC_A230_Functions/DGC_A230_Parameters_Functions.c **** 		CFG_parameter.M1_Partial_Space = CFG_parameter.M1_Total_Space /100 * CFG_parameter.Patial_Open_Ad
 1506                             		.loc 1 389 0
 1507 02c6 AF 00 00                		movw	ax, !_CFG_parameter+24
 1508 02c9 BD F0                   		movw	r8, ax
 1509 02cb 31 2E                   		shrw	ax, 2
 1510 02cd BD F0                   		movw	r8, ax
 1511 02cf 30 7B 14                		movw	ax, #5243
 1512 02d2 12                      		movw	bc, ax
 1513 02d3 AD F0                   		movw	ax, r8
 1514 02d5 61 DD                   		push	psw
 1515 02d7 71 7B FA                		di
 1516 02da CF E8 00 00             		mov	!MDUC, #0
 1517 02de BE F0                   		movw	MDAL, ax
 1518 02e0 13                      		movw	ax, bc
 1519 02e1 BE F2                   		movw	MDAH, ax
 1520 02e3 00                      		nop
 1521 02e4 AE F4                   		movw	ax, MDBH
 1522 02e6 61 CD                   		pop	psw ;umulhi3_highpart_g13 ax,r8,#5243
 1523 02e8 BD F0                   		movw	r8, ax
 1524 02ea 31 1E                   		shrw	ax, 1
 1525 02ec BD F2                   		movw	r10, ax
 1526 02ee 8F 00 00                		mov	a, !_CFG_parameter+57
 1527 02f1 9D F0                   		mov	r8, a
 1528 02f3 F4 F1                   		clrb	r9
 1529 02f5 AD F0                   		movw	ax, r8
 1530 02f7 12                      		movw	bc, ax
 1531 02f8 AD F2                   		movw	ax, r10
 1532 02fa 61 DD                   		push	psw
 1533 02fc 71 7B FA                		di
 1534 02ff CF E8 00 00             		mov	!MDUC, #0
 1535 0303 BE F0                   		movw	MDAL, ax
 1536 0305 13                      		movw	ax, bc
 1537 0306 BE F2                   		movw	MDAH, ax
 1538 0308 00                      		nop
 1539 0309 AE F6                   		movw	ax, MDBL
 1540 030b 61 CD                   		pop 	psw ;mulhi3_g13 ax,r10,r8
 1541 030d BD F0                   		movw	r8, ax
 1542 030f 04 06 00                		addw	ax, #6
 1543 0312 BD F0                   		movw	r8, ax
 1544 0314 BF 00 00                		movw	!_CFG_parameter+28, ax
 1545 0317 EC 23 03 00             		br	!!.L24
 1546                             	.L23:
 390:../DGC_A230_Functions/DGC_A230_Parameters_Functions.c **** 	}
 391:../DGC_A230_Functions/DGC_A230_Parameters_Functions.c **** 	else
 392:../DGC_A230_Functions/DGC_A230_Parameters_Functions.c **** 	{
 393:../DGC_A230_Functions/DGC_A230_Parameters_Functions.c **** 		CFG_parameter.M1_Partial_Space = CFG_parameter.M1_Total_Space;
 1547                             		.loc 1 393 0
 1548 031b AF 00 00                		movw	ax, !_CFG_parameter+24
 1549 031e BD F0                   		movw	r8, ax
 1550 0320 BF 00 00                		movw	!_CFG_parameter+28, ax
 1551                             	.L24:
 394:../DGC_A230_Functions/DGC_A230_Parameters_Functions.c **** 	}
 395:../DGC_A230_Functions/DGC_A230_Parameters_Functions.c **** 
 396:../DGC_A230_Functions/DGC_A230_Parameters_Functions.c **** 	CFG_parameter.Motor_Deceleration_Level		= CFG_Parameters_Value[41];		// Motor Deceleration level		
 1552                             		.loc 1 396 0
 1553 0323 8F 00 00                		mov	a, !_CFG_Parameters_Value+41
 1554 0326 9D F0                   		mov	r8, a
 1555 0328 9F 00 00                		mov	!_CFG_parameter+38, a
 397:../DGC_A230_Functions/DGC_A230_Parameters_Functions.c **** 
 398:../DGC_A230_Functions/DGC_A230_Parameters_Functions.c **** 	Val1 = convert_BCD_to_binary(CFG_Parameters_Value[25]);
 1556                             		.loc 1 398 0
 1557 032b 8F 00 00                		mov	a, !_CFG_Parameters_Value+25
 1558 032e 9D F0                   		mov	r8, a
 1559 0330 F4 F1                   		clrb	r9
 1560 0332 AD F0                   		movw	ax, r8
 1561 0334 B8 00                   		movw	[sp], ax
 1562 0336 FC 00 00 00             		call	!!%code(_convert_BCD_to_binary)
 1563 033a 8D F0                   		mov	a, r8
 1564 033c 98 09                   		mov	[sp+9], a
 399:../DGC_A230_Functions/DGC_A230_Parameters_Functions.c **** 
 400:../DGC_A230_Functions/DGC_A230_Parameters_Functions.c **** 	CFG_parameter.Motor_No2_Open_Delay_Time		= Val1*100; 					// Opening delay time of MOTOR 2 	= [25]
 1565                             		.loc 1 400 0
 1566 033e 31 8E                   		shrw	ax, 8
 1567 0340 BD F0                   		movw	r8, ax
 1568 0342 30 64 00                		movw	ax, #100
 1569 0345 12                      		movw	bc, ax
 1570 0346 AD F0                   		movw	ax, r8
 1571 0348 61 DD                   		push	psw
 1572 034a 71 7B FA                		di
 1573 034d CF E8 00 00             		mov	!MDUC, #0
 1574 0351 BE F0                   		movw	MDAL, ax
 1575 0353 13                      		movw	ax, bc
 1576 0354 BE F2                   		movw	MDAH, ax
 1577 0356 00                      		nop
 1578 0357 AE F6                   		movw	ax, MDBL
 1579 0359 61 CD                   		pop 	psw ;mulhi3_g13 ax,r8,#100
 1580 035b BD F0                   		movw	r8, ax
 1581 035d BF 00 00                		movw	!_CFG_parameter+40, ax
 401:../DGC_A230_Functions/DGC_A230_Parameters_Functions.c **** 
 402:../DGC_A230_Functions/DGC_A230_Parameters_Functions.c **** 	Val1 = convert_BCD_to_binary(CFG_Parameters_Value[26]);
 1582                             		.loc 1 402 0
 1583 0360 8F 00 00                		mov	a, !_CFG_Parameters_Value+26
 1584 0363 9D F0                   		mov	r8, a
 1585 0365 F4 F1                   		clrb	r9
 1586 0367 AD F0                   		movw	ax, r8
 1587 0369 B8 00                   		movw	[sp], ax
 1588 036b FC 00 00 00             		call	!!%code(_convert_BCD_to_binary)
 1589 036f 8D F0                   		mov	a, r8
 1590 0371 98 09                   		mov	[sp+9], a
 403:../DGC_A230_Functions/DGC_A230_Parameters_Functions.c **** 	CFG_parameter.Motor_No1_Close_Delay_Time	= Val1*100;						// Closing delay time of MOTOR 1 	= [26]
 1591                             		.loc 1 403 0
 1592 0373 31 8E                   		shrw	ax, 8
 1593 0375 BD F0                   		movw	r8, ax
 1594 0377 30 64 00                		movw	ax, #100
 1595 037a 12                      		movw	bc, ax
 1596 037b AD F0                   		movw	ax, r8
 1597 037d 61 DD                   		push	psw
 1598 037f 71 7B FA                		di
 1599 0382 CF E8 00 00             		mov	!MDUC, #0
 1600 0386 BE F0                   		movw	MDAL, ax
 1601 0388 13                      		movw	ax, bc
 1602 0389 BE F2                   		movw	MDAH, ax
 1603 038b 00                      		nop
 1604 038c AE F6                   		movw	ax, MDBL
 1605 038e 61 CD                   		pop 	psw ;mulhi3_g13 ax,r8,#100
 1606 0390 BD F0                   		movw	r8, ax
 1607 0392 BF 00 00                		movw	!_CFG_parameter+42, ax
 404:../DGC_A230_Functions/DGC_A230_Parameters_Functions.c **** 
 405:../DGC_A230_Functions/DGC_A230_Parameters_Functions.c **** 	if (CFG_Parameters_Value[16] == 0x00)
 1608                             		.loc 1 405 0
 1609 0395 8F 00 00                		mov	a, !_CFG_Parameters_Value+16
 1610 0398 9D F0                   		mov	r8, a
 1611 039a D4 F0                   		cmp0	r8
 1612 039c 61 E8                   		 skz
 1613 039e EC AC 03 00             		 br	!!.L25
 406:../DGC_A230_Functions/DGC_A230_Parameters_Functions.c **** 		CFG_parameter.Addition_Time_After_INV 	= 300;							// 16: additional time after direction invers
 1614                             		.loc 1 406 0
 1615 03a2 30 2C 01                		movw	ax, #300
 1616 03a5 BF 00 00                		movw	!_CFG_parameter+44, ax
 1617 03a8 EC B2 03 00             		br	!!.L26
 1618                             	.L25:
 407:../DGC_A230_Functions/DGC_A230_Parameters_Functions.c **** 	else
 408:../DGC_A230_Functions/DGC_A230_Parameters_Functions.c **** 		CFG_parameter.Addition_Time_After_INV 	= 600;							// 16: additional time after direction invers
 1619                             		.loc 1 408 0
 1620 03ac 30 58 02                		movw	ax, #600
 1621 03af BF 00 00                		movw	!_CFG_parameter+44, ax
 1622                             	.L26:
 409:../DGC_A230_Functions/DGC_A230_Parameters_Functions.c **** 
 410:../DGC_A230_Functions/DGC_A230_Parameters_Functions.c **** 	Val1 = convert_BCD_to_binary(CFG_Parameters_Value[2]);
 1623                             		.loc 1 410 0
 1624 03b2 8F 00 00                		mov	a, !_CFG_Parameters_Value+2
 1625 03b5 9D F0                   		mov	r8, a
 1626 03b7 F4 F1                   		clrb	r9
 1627 03b9 AD F0                   		movw	ax, r8
 1628 03bb B8 00                   		movw	[sp], ax
 1629 03bd FC 00 00 00             		call	!!%code(_convert_BCD_to_binary)
 1630 03c1 8D F0                   		mov	a, r8
 1631 03c3 98 09                   		mov	[sp+9], a
 411:../DGC_A230_Functions/DGC_A230_Parameters_Functions.c **** 	CFG_parameter.Auto_Close_After_OPen			= Val1;							// A2: Automatic close after pause time (from 
 1632                             		.loc 1 411 0
 1633 03c5 9D F0                   		mov	r8, a
 1634 03c7 9F 00 00                		mov	!_CFG_parameter+46, a
 412:../DGC_A230_Functions/DGC_A230_Parameters_Functions.c **** 
 413:../DGC_A230_Functions/DGC_A230_Parameters_Functions.c **** 	Val1 = convert_BCD_to_binary(CFG_Parameters_Value[21]);
 1635                             		.loc 1 413 0
 1636 03ca 8F 00 00                		mov	a, !_CFG_Parameters_Value+21
 1637 03cd 9D F0                   		mov	r8, a
 1638 03cf F4 F1                   		clrb	r9
 1639 03d1 AD F0                   		movw	ax, r8
 1640 03d3 B8 00                   		movw	[sp], ax
 1641 03d5 FC 00 00 00             		call	!!%code(_convert_BCD_to_binary)
 1642 03d9 8D F0                   		mov	a, r8
 1643 03db 98 09                   		mov	[sp+9], a
 414:../DGC_A230_Functions/DGC_A230_Parameters_Functions.c **** 	if (Val1 <= 91)
 1644                             		.loc 1 414 0
 1645 03dd 4C 5B                   		cmp	a, #91
 1646 03df 61 F3                   		 sknh
 1647 03e1 EC F5 03 00             		 br	!!.L27
 415:../DGC_A230_Functions/DGC_A230_Parameters_Functions.c **** 		CFG_parameter.Automatic_Closing_Time 	= Val1*2;						// 21: Setting automatic closing time = [21]
 1648                             		.loc 1 415 0
 1649 03e5 88 09                   		mov	a, [sp+9]
 1650 03e7 31 8E                   		shrw	ax, 8
 1651 03e9 BD F0                   		movw	r8, ax
 1652 03eb 01                      		addw	ax, ax
 1653 03ec BD F0                   		movw	r8, ax
 1654 03ee BF 00 00                		movw	!_CFG_parameter+48, ax
 1655 03f1 EC 0F 04 00             		br	!!.L28
 1656                             	.L27:
 416:../DGC_A230_Functions/DGC_A230_Parameters_Functions.c **** 	else
 417:../DGC_A230_Functions/DGC_A230_Parameters_Functions.c **** 		CFG_parameter.Automatic_Closing_Time 	= (Val1-90)*120;				// 21: Setting automatic closing time =
 1657                             		.loc 1 417 0
 1658 03f5 88 09                   		mov	a, [sp+9]
 1659 03f7 31 8E                   		shrw	ax, 8
 1660 03f9 BD F0                   		movw	r8, ax
 1661 03fb 04 A6 FF                		addw	ax, #-90
 1662 03fe BD F0                   		movw	r8, ax
 1663 0400 31 3D                   		shlw	ax, 3
 1664 0402 BD F0                   		movw	r8, ax
 1665 0404 31 4D                   		shlw	ax, 4
 1666 0406 BD F2                   		movw	r10, ax
 1667 0408 26 F0                   		subw	ax, r8
 1668 040a BD F0                   		movw	r8, ax
 1669 040c BF 00 00                		movw	!_CFG_parameter+48, ax
 1670                             	.L28:
 418:../DGC_A230_Functions/DGC_A230_Parameters_Functions.c **** 
 419:../DGC_A230_Functions/DGC_A230_Parameters_Functions.c **** 
 420:../DGC_A230_Functions/DGC_A230_Parameters_Functions.c **** 	CFG_parameter.Auto_Close_After_Power		= CFG_Parameters_Value[3];		// A3: Automatic gate closing af
 1671                             		.loc 1 420 0
 1672 040f 8F 00 00                		mov	a, !_CFG_Parameters_Value+3
 1673 0412 9D F0                   		mov	r8, a
 1674 0414 9F 00 00                		mov	!_CFG_parameter+50, a
 421:../DGC_A230_Functions/DGC_A230_Parameters_Functions.c **** 
 422:../DGC_A230_Functions/DGC_A230_Parameters_Functions.c **** 	CFG_parameter.Step_Mode						= CFG_Parameters_Value[4];		// A4: Selecting step mode control functi
 1675                             		.loc 1 422 0
 1676 0417 8F 00 00                		mov	a, !_CFG_Parameters_Value+4
 1677 041a 9D F0                   		mov	r8, a
 1678 041c 9F 00 00                		mov	!_CFG_parameter+51, a
 423:../DGC_A230_Functions/DGC_A230_Parameters_Functions.c **** 
 424:../DGC_A230_Functions/DGC_A230_Parameters_Functions.c **** 	Val1 = convert_BCD_to_binary(CFG_Parameters_Value[5]);
 1679                             		.loc 1 424 0
 1680 041f 8F 00 00                		mov	a, !_CFG_Parameters_Value+5
 1681 0422 9D F0                   		mov	r8, a
 1682 0424 F4 F1                   		clrb	r9
 1683 0426 AD F0                   		movw	ax, r8
 1684 0428 B8 00                   		movw	[sp], ax
 1685 042a FC 00 00 00             		call	!!%code(_convert_BCD_to_binary)
 1686 042e 8D F0                   		mov	a, r8
 1687 0430 98 09                   		mov	[sp+9], a
 425:../DGC_A230_Functions/DGC_A230_Parameters_Functions.c **** 	CFG_parameter.Pre_Flashing 					= Val1;							// A5: Pre-Flashing
 1688                             		.loc 1 425 0
 1689 0432 9D F0                   		mov	r8, a
 1690 0434 9F 00 00                		mov	!_CFG_parameter+52, a
 426:../DGC_A230_Functions/DGC_A230_Parameters_Functions.c **** 
 427:../DGC_A230_Functions/DGC_A230_Parameters_Functions.c **** 	CFG_parameter.Flashing_Light_Frequency		= CFG_Parameters_Value[78];		// 78: Configuring flashing l
 1691                             		.loc 1 427 0
 1692 0437 8F 00 00                		mov	a, !_CFG_Parameters_Value+78
 1693 043a 9D F0                   		mov	r8, a
 1694 043c 9F 00 00                		mov	!_CFG_parameter+53, a
 428:../DGC_A230_Functions/DGC_A230_Parameters_Functions.c **** 
 429:../DGC_A230_Functions/DGC_A230_Parameters_Functions.c **** 	Val1 = convert_BCD_to_binary(CFG_Parameters_Value[79]);
 1695                             		.loc 1 429 0
 1696 043f 8F 00 00                		mov	a, !_CFG_Parameters_Value+79
 1697 0442 9D F0                   		mov	r8, a
 1698 0444 F4 F1                   		clrb	r9
 1699 0446 AD F0                   		movw	ax, r8
 1700 0448 B8 00                   		movw	[sp], ax
 1701 044a FC 00 00 00             		call	!!%code(_convert_BCD_to_binary)
 1702 044e 8D F0                   		mov	a, r8
 1703 0450 98 09                   		mov	[sp+9], a
 430:../DGC_A230_Functions/DGC_A230_Parameters_Functions.c **** 	CFG_parameter.Courtery_Light_Mode			= Val1;							// 79: Selecting courtesy light mode
 1704                             		.loc 1 430 0
 1705 0452 9D F0                   		mov	r8, a
 1706 0454 9F 00 00                		mov	!_CFG_parameter+54, a
 431:../DGC_A230_Functions/DGC_A230_Parameters_Functions.c **** 
 432:../DGC_A230_Functions/DGC_A230_Parameters_Functions.c **** 	CFG_parameter.Gate_Open_Indicator			= CFG_Parameters_Value[8];		// A8: Gate open indicator / photo
 1707                             		.loc 1 432 0
 1708 0457 8F 00 00                		mov	a, !_CFG_Parameters_Value+8
 1709 045a 9D F0                   		mov	r8, a
 1710 045c 9F 00 00                		mov	!_CFG_parameter+55, a
 433:../DGC_A230_Functions/DGC_A230_Parameters_Functions.c **** 	CFG_parameter.Patial_Function				= CFG_Parameters_Value[6];		// A6: Common function for partial op
 1711                             		.loc 1 433 0
 1712 045f 8F 00 00                		mov	a, !_CFG_Parameters_Value+6
 1713 0462 9D F0                   		mov	r8, a
 1714 0464 9F 00 00                		mov	!_CFG_parameter+56, a
 434:../DGC_A230_Functions/DGC_A230_Parameters_Functions.c **** 
 435:../DGC_A230_Functions/DGC_A230_Parameters_Functions.c **** 	CFG_parameter.Manual_Function				= CFG_Parameters_Value[7];		// A7: Enabling operator present func
 1715                             		.loc 1 435 0
 1716 0467 8F 00 00                		mov	a, !_CFG_Parameters_Value+7
 1717 046a 9D F0                   		mov	r8, a
 1718 046c 9F 00 00                		mov	!_CFG_parameter+58, a
 436:../DGC_A230_Functions/DGC_A230_Parameters_Functions.c **** 
 437:../DGC_A230_Functions/DGC_A230_Parameters_Functions.c **** 	CFG_parameter.Sensing_Edge_COS1_Config		= CFG_Parameters_Value[73];		// 73: Configuring sensing ed
 1719                             		.loc 1 437 0
 1720 046f 8F 00 00                		mov	a, !_CFG_Parameters_Value+73
 1721 0472 9D F0                   		mov	r8, a
 1722 0474 9F 00 00                		mov	!_CFG_parameter+59, a
 438:../DGC_A230_Functions/DGC_A230_Parameters_Functions.c **** 	CFG_parameter.Sensing_Edge_COS2_Config		= CFG_Parameters_Value[74];		// 74: Configuring sensing ed
 1723                             		.loc 1 438 0
 1724 0477 8F 00 00                		mov	a, !_CFG_Parameters_Value+74
 1725 047a 9D F0                   		mov	r8, a
 1726 047c 9F 00 00                		mov	!_CFG_parameter+60, a
 439:../DGC_A230_Functions/DGC_A230_Parameters_Functions.c **** 
 440:../DGC_A230_Functions/DGC_A230_Parameters_Functions.c **** 	Val1 = convert_BCD_to_binary(CFG_Parameters_Value[27]);
 1727                             		.loc 1 440 0
 1728 047f 8F 00 00                		mov	a, !_CFG_Parameters_Value+27
 1729 0482 9D F0                   		mov	r8, a
 1730 0484 F4 F1                   		clrb	r9
 1731 0486 AD F0                   		movw	ax, r8
 1732 0488 B8 00                   		movw	[sp], ax
 1733 048a FC 00 00 00             		call	!!%code(_convert_BCD_to_binary)
 1734 048e 8D F0                   		mov	a, r8
 1735 0490 98 09                   		mov	[sp+9], a
 441:../DGC_A230_Functions/DGC_A230_Parameters_Functions.c **** 	CFG_parameter.Reverse_Time_After_Edge_Sense = Val1*100;						// Reverse time after activation of s
 1736                             		.loc 1 441 0
 1737 0492 31 8E                   		shrw	ax, 8
 1738 0494 BD F0                   		movw	r8, ax
 1739 0496 30 64 00                		movw	ax, #100
 1740 0499 12                      		movw	bc, ax
 1741 049a AD F0                   		movw	ax, r8
 1742 049c 61 DD                   		push	psw
 1743 049e 71 7B FA                		di
 1744 04a1 CF E8 00 00             		mov	!MDUC, #0
 1745 04a5 BE F0                   		movw	MDAL, ax
 1746 04a7 13                      		movw	ax, bc
 1747 04a8 BE F2                   		movw	MDAH, ax
 1748 04aa 00                      		nop
 1749 04ab AE F6                   		movw	ax, MDBL
 1750 04ad 61 CD                   		pop 	psw ;mulhi3_g13 ax,r8,#100
 1751 04af BD F0                   		movw	r8, ax
 1752 04b1 BF 00 00                		movw	!_CFG_parameter+62, ax
 442:../DGC_A230_Functions/DGC_A230_Parameters_Functions.c **** 
 443:../DGC_A230_Functions/DGC_A230_Parameters_Functions.c **** 	CFG_parameter.Auto_Close_Number				= CFG_Parameters_Value[49];		// 49: Number of automatic closure
 1753                             		.loc 1 443 0
 1754 04b4 8F 00 00                		mov	a, !_CFG_Parameters_Value+49
 1755 04b7 9D F0                   		mov	r8, a
 1756 04b9 9F 00 00                		mov	!_CFG_parameter+64, a
 444:../DGC_A230_Functions/DGC_A230_Parameters_Functions.c **** 
 445:../DGC_A230_Functions/DGC_A230_Parameters_Functions.c **** 	CFG_parameter.Lock_Activation_Lead_Time		= CFG_Parameters_Value[28]*100;	// Electric lock activati
 1757                             		.loc 1 445 0
 1758 04bc 8F 00 00                		mov	a, !_CFG_Parameters_Value+28
 1759 04bf 9D F0                   		mov	r8, a
 1760 04c1 F4 F1                   		clrb	r9
 1761 04c3 30 64 00                		movw	ax, #100
 1762 04c6 12                      		movw	bc, ax
 1763 04c7 AD F0                   		movw	ax, r8
 1764 04c9 61 DD                   		push	psw
 1765 04cb 71 7B FA                		di
 1766 04ce CF E8 00 00             		mov	!MDUC, #0
 1767 04d2 BE F0                   		movw	MDAL, ax
 1768 04d4 13                      		movw	ax, bc
 1769 04d5 BE F2                   		movw	MDAH, ax
 1770 04d7 00                      		nop
 1771 04d8 AE F6                   		movw	ax, MDBL
 1772 04da 61 CD                   		pop 	psw ;mulhi3_g13 ax,r8,#100
 1773 04dc BD F0                   		movw	r8, ax
 1774 04de BF 00 00                		movw	!_CFG_parameter+66, ax
 446:../DGC_A230_Functions/DGC_A230_Parameters_Functions.c **** 	CFG_parameter.Lock_Activation_Time			= CFG_Parameters_Value[29]*100;	// Electric lock activation t
 1775                             		.loc 1 446 0
 1776 04e1 8F 00 00                		mov	a, !_CFG_Parameters_Value+29
 1777 04e4 9D F0                   		mov	r8, a
 1778 04e6 F4 F1                   		clrb	r9
 1779 04e8 30 64 00                		movw	ax, #100
 1780 04eb 12                      		movw	bc, ax
 1781 04ec AD F0                   		movw	ax, r8
 1782 04ee 61 DD                   		push	psw
 1783 04f0 71 7B FA                		di
 1784 04f3 CF E8 00 00             		mov	!MDUC, #0
 1785 04f7 BE F0                   		movw	MDAL, ax
 1786 04f9 13                      		movw	ax, bc
 1787 04fa BE F2                   		movw	MDAH, ax
 1788 04fc 00                      		nop
 1789 04fd AE F6                   		movw	ax, MDBL
 1790 04ff 61 CD                   		pop 	psw ;mulhi3_g13 ax,r8,#100
 1791 0501 BD F0                   		movw	r8, ax
 1792 0503 BF 00 00                		movw	!_CFG_parameter+68, ax
 447:../DGC_A230_Functions/DGC_A230_Parameters_Functions.c **** 	CFG_parameter.Lock_Release_Reverse_Impulse	= CFG_Parameters_Value[38]*100;	// Electric lock releas
 1793                             		.loc 1 447 0
 1794 0506 8F 00 00                		mov	a, !_CFG_Parameters_Value+38
 1795 0509 9D F0                   		mov	r8, a
 1796 050b F4 F1                   		clrb	r9
 1797 050d 30 64 00                		movw	ax, #100
 1798 0510 12                      		movw	bc, ax
 1799 0511 AD F0                   		movw	ax, r8
 1800 0513 61 DD                   		push	psw
 1801 0515 71 7B FA                		di
 1802 0518 CF E8 00 00             		mov	!MDUC, #0
 1803 051c BE F0                   		movw	MDAL, ax
 1804 051e 13                      		movw	ax, bc
 1805 051f BE F2                   		movw	MDAH, ax
 1806 0521 00                      		nop
 1807 0522 AE F6                   		movw	ax, MDBL
 1808 0524 61 CD                   		pop 	psw ;mulhi3_g13 ax,r8,#100
 1809 0526 BD F0                   		movw	r8, ax
 1810 0528 BF 00 00                		movw	!_CFG_parameter+70, ax
 448:../DGC_A230_Functions/DGC_A230_Parameters_Functions.c **** 
 449:../DGC_A230_Functions/DGC_A230_Parameters_Functions.c **** 	switch(CFG_Parameters_Value[31])											// 31: Set motor torque during maneuver
 1811                             		.loc 1 449 0
 1812 052b 8F 00 00                		mov	a, !_CFG_Parameters_Value+31
 1813 052e 9D F0                   		mov	r8, a
 1814 0530 F4 F1                   		clrb	r9
 1815 0532 AD F0                   		movw	ax, r8
 1816 0534 44 04 00                		cmpw	ax, #4
 1817 0537 61 F8                   		 sknz
 1818 0539 EC C1 05 00             		 br	!!.L30
 1819 053d AD F0                   		movw	ax, r8
 1820 053f 44 04 00                		cmpw	ax, #4
 1821 0542 71 FF                   		 xor1	CY, a.7
 1822 0544 61 F3                   		 sknh
 1823 0546 EC 71 05 00             		 br	!!.L31
 1824 054a AD F0                   		movw	ax, r8
 1825 054c 44 02 00                		cmpw	ax, #2
 1826 054f 61 F8                   		 sknz
 1827 0551 EC AD 05 00             		 br	!!.L32
 1828 0555 AD F0                   		movw	ax, r8
 1829 0557 44 02 00                		cmpw	ax, #2
 1830 055a 71 FF                   		 xor1	CY, a.7
 1831 055c 61 F3                   		 sknh
 1832 055e EC B7 05 00             		 br	!!.L33
 1833 0562 AD F0                   		movw	ax, r8
 1834 0564 44 01 00                		cmpw	ax, #1
 1835 0567 61 F8                   		 sknz
 1836 0569 EC A3 05 00             		 br	!!.L34
 1837 056d EC F3 05 00             		br	!!.L29
 1838                             	.L31:
 1839 0571 AD F0                   		movw	ax, r8
 1840 0573 44 06 00                		cmpw	ax, #6
 1841 0576 61 F8                   		 sknz
 1842 0578 EC D5 05 00             		 br	!!.L35
 1843 057c AD F0                   		movw	ax, r8
 1844 057e 44 06 00                		cmpw	ax, #6
 1845 0581 71 FF                   		 xor1	CY, a.7
 1846 0583 61 D8                   		 sknc
 1847 0585 EC CB 05 00             		 br	!!.L36
 1848 0589 AD F0                   		movw	ax, r8
 1849 058b 44 07 00                		cmpw	ax, #7
 1850 058e 61 F8                   		 sknz
 1851 0590 EC DF 05 00             		 br	!!.L37
 1852 0594 AD F0                   		movw	ax, r8
 1853 0596 44 08 00                		cmpw	ax, #8
 1854 0599 61 F8                   		 sknz
 1855 059b EC E9 05 00             		 br	!!.L38
 1856 059f EC F3 05 00             		br	!!.L29
 1857                             	.L34:
 450:../DGC_A230_Functions/DGC_A230_Parameters_Functions.c **** 	{
 451:../DGC_A230_Functions/DGC_A230_Parameters_Functions.c **** 	case 0x01: 	CFG_parameter.Motor_Torque_Maneuver	= TORQUE_LEVEL_1; break;
 1858                             		.loc 1 451 0
 1859 05a3 30 EB A9                		movw	ax, #-22037
 1860 05a6 BF 00 00                		movw	!_CFG_parameter+72, ax
 1861 05a9 EC FA 05 00             		br	!!.L39
 1862                             	.L32:
 452:../DGC_A230_Functions/DGC_A230_Parameters_Functions.c **** 	case 0x02: 	CFG_parameter.Motor_Torque_Maneuver	= TORQUE_LEVEL_2; break;
 1863                             		.loc 1 452 0
 1864 05ad 30 7B 92                		movw	ax, #-28037
 1865 05b0 BF 00 00                		movw	!_CFG_parameter+72, ax
 1866 05b3 EC FA 05 00             		br	!!.L39
 1867                             	.L33:
 453:../DGC_A230_Functions/DGC_A230_Parameters_Functions.c **** 	case 0x03: 	CFG_parameter.Motor_Torque_Maneuver	= TORQUE_LEVEL_3; break;
 1868                             		.loc 1 453 0
 1869 05b7 30 0B 7B                		movw	ax, #31499
 1870 05ba BF 00 00                		movw	!_CFG_parameter+72, ax
 1871 05bd EC FA 05 00             		br	!!.L39
 1872                             	.L30:
 454:../DGC_A230_Functions/DGC_A230_Parameters_Functions.c **** 	case 0x04: 	CFG_parameter.Motor_Torque_Maneuver	= TORQUE_LEVEL_4; break;
 1873                             		.loc 1 454 0
 1874 05c1 30 9B 63                		movw	ax, #25499
 1875 05c4 BF 00 00                		movw	!_CFG_parameter+72, ax
 1876 05c7 EC FA 05 00             		br	!!.L39
 1877                             	.L36:
 455:../DGC_A230_Functions/DGC_A230_Parameters_Functions.c **** 	case 0x05: 	CFG_parameter.Motor_Torque_Maneuver	= TORQUE_LEVEL_5; break;
 1878                             		.loc 1 455 0
 1879 05cb 30 2B 4C                		movw	ax, #19499
 1880 05ce BF 00 00                		movw	!_CFG_parameter+72, ax
 1881 05d1 EC FA 05 00             		br	!!.L39
 1882                             	.L35:
 456:../DGC_A230_Functions/DGC_A230_Parameters_Functions.c **** 	case 0x06: 	CFG_parameter.Motor_Torque_Maneuver	= TORQUE_LEVEL_6; break;
 1883                             		.loc 1 456 0
 1884 05d5 30 BB 34                		movw	ax, #13499
 1885 05d8 BF 00 00                		movw	!_CFG_parameter+72, ax
 1886 05db EC FA 05 00             		br	!!.L39
 1887                             	.L37:
 457:../DGC_A230_Functions/DGC_A230_Parameters_Functions.c **** 	case 0x07: 	CFG_parameter.Motor_Torque_Maneuver	= TORQUE_LEVEL_7; break;
 1888                             		.loc 1 457 0
 1889 05df 30 4B 1D                		movw	ax, #7499
 1890 05e2 BF 00 00                		movw	!_CFG_parameter+72, ax
 1891 05e5 EC FA 05 00             		br	!!.L39
 1892                             	.L38:
 458:../DGC_A230_Functions/DGC_A230_Parameters_Functions.c **** 	case 0x08: 	CFG_parameter.Motor_Torque_Maneuver	= TORQUE_LEVEL_8; break;
 1893                             		.loc 1 458 0
 1894 05e9 30 DB 05                		movw	ax, #1499
 1895 05ec BF 00 00                		movw	!_CFG_parameter+72, ax
 1896 05ef EC FA 05 00             		br	!!.L39
 1897                             	.L29:
 459:../DGC_A230_Functions/DGC_A230_Parameters_Functions.c **** 	default: 	CFG_parameter.Motor_Torque_Maneuver	= TORQUE_LEVEL_6; break;
 1898                             		.loc 1 459 0
 1899 05f3 30 BB 34                		movw	ax, #13499
 1900 05f6 BF 00 00                		movw	!_CFG_parameter+72, ax
 1901 05f9 00                      		nop
 1902                             	.L39:
 460:../DGC_A230_Functions/DGC_A230_Parameters_Functions.c **** 	}
 461:../DGC_A230_Functions/DGC_A230_Parameters_Functions.c **** 
 462:../DGC_A230_Functions/DGC_A230_Parameters_Functions.c **** 	switch(CFG_Parameters_Value[32])											// 32: Set motor torque during deceleration
 1903                             		.loc 1 462 0
 1904 05fa 8F 00 00                		mov	a, !_CFG_Parameters_Value+32
 1905 05fd 9D F0                   		mov	r8, a
 1906 05ff F4 F1                   		clrb	r9
 1907 0601 AD F0                   		movw	ax, r8
 1908 0603 44 04 00                		cmpw	ax, #4
 1909 0606 61 F8                   		 sknz
 1910 0608 EC 90 06 00             		 br	!!.L41
 1911 060c AD F0                   		movw	ax, r8
 1912 060e 44 04 00                		cmpw	ax, #4
 1913 0611 71 FF                   		 xor1	CY, a.7
 1914 0613 61 F3                   		 sknh
 1915 0615 EC 40 06 00             		 br	!!.L42
 1916 0619 AD F0                   		movw	ax, r8
 1917 061b 44 02 00                		cmpw	ax, #2
 1918 061e 61 F8                   		 sknz
 1919 0620 EC 7C 06 00             		 br	!!.L43
 1920 0624 AD F0                   		movw	ax, r8
 1921 0626 44 02 00                		cmpw	ax, #2
 1922 0629 71 FF                   		 xor1	CY, a.7
 1923 062b 61 F3                   		 sknh
 1924 062d EC 86 06 00             		 br	!!.L44
 1925 0631 AD F0                   		movw	ax, r8
 1926 0633 44 01 00                		cmpw	ax, #1
 1927 0636 61 F8                   		 sknz
 1928 0638 EC 72 06 00             		 br	!!.L45
 1929 063c EC C2 06 00             		br	!!.L40
 1930                             	.L42:
 1931 0640 AD F0                   		movw	ax, r8
 1932 0642 44 06 00                		cmpw	ax, #6
 1933 0645 61 F8                   		 sknz
 1934 0647 EC A4 06 00             		 br	!!.L46
 1935 064b AD F0                   		movw	ax, r8
 1936 064d 44 06 00                		cmpw	ax, #6
 1937 0650 71 FF                   		 xor1	CY, a.7
 1938 0652 61 D8                   		 sknc
 1939 0654 EC 9A 06 00             		 br	!!.L47
 1940 0658 AD F0                   		movw	ax, r8
 1941 065a 44 07 00                		cmpw	ax, #7
 1942 065d 61 F8                   		 sknz
 1943 065f EC AE 06 00             		 br	!!.L48
 1944 0663 AD F0                   		movw	ax, r8
 1945 0665 44 08 00                		cmpw	ax, #8
 1946 0668 61 F8                   		 sknz
 1947 066a EC B8 06 00             		 br	!!.L49
 1948 066e EC C2 06 00             		br	!!.L40
 1949                             	.L45:
 463:../DGC_A230_Functions/DGC_A230_Parameters_Functions.c **** 	{
 464:../DGC_A230_Functions/DGC_A230_Parameters_Functions.c **** 	case 0x01: 	CFG_parameter.Motor_Torque_Decelaration	= TORQUE_LEVEL_1; break;
 1950                             		.loc 1 464 0
 1951 0672 30 EB A9                		movw	ax, #-22037
 1952 0675 BF 00 00                		movw	!_CFG_parameter+74, ax
 1953 0678 EC C9 06 00             		br	!!.L50
 1954                             	.L43:
 465:../DGC_A230_Functions/DGC_A230_Parameters_Functions.c **** 	case 0x02: 	CFG_parameter.Motor_Torque_Decelaration	= TORQUE_LEVEL_2; break;
 1955                             		.loc 1 465 0
 1956 067c 30 7B 92                		movw	ax, #-28037
 1957 067f BF 00 00                		movw	!_CFG_parameter+74, ax
 1958 0682 EC C9 06 00             		br	!!.L50
 1959                             	.L44:
 466:../DGC_A230_Functions/DGC_A230_Parameters_Functions.c **** 	case 0x03: 	CFG_parameter.Motor_Torque_Decelaration	= TORQUE_LEVEL_3; break;
 1960                             		.loc 1 466 0
 1961 0686 30 0B 7B                		movw	ax, #31499
 1962 0689 BF 00 00                		movw	!_CFG_parameter+74, ax
 1963 068c EC C9 06 00             		br	!!.L50
 1964                             	.L41:
 467:../DGC_A230_Functions/DGC_A230_Parameters_Functions.c **** 	case 0x04: 	CFG_parameter.Motor_Torque_Decelaration	= TORQUE_LEVEL_4; break;
 1965                             		.loc 1 467 0
 1966 0690 30 9B 63                		movw	ax, #25499
 1967 0693 BF 00 00                		movw	!_CFG_parameter+74, ax
 1968 0696 EC C9 06 00             		br	!!.L50
 1969                             	.L47:
 468:../DGC_A230_Functions/DGC_A230_Parameters_Functions.c **** 	case 0x05: 	CFG_parameter.Motor_Torque_Decelaration	= TORQUE_LEVEL_5; break;
 1970                             		.loc 1 468 0
 1971 069a 30 2B 4C                		movw	ax, #19499
 1972 069d BF 00 00                		movw	!_CFG_parameter+74, ax
 1973 06a0 EC C9 06 00             		br	!!.L50
 1974                             	.L46:
 469:../DGC_A230_Functions/DGC_A230_Parameters_Functions.c **** 	case 0x06: 	CFG_parameter.Motor_Torque_Decelaration	= TORQUE_LEVEL_6; break;
 1975                             		.loc 1 469 0
 1976 06a4 30 BB 34                		movw	ax, #13499
 1977 06a7 BF 00 00                		movw	!_CFG_parameter+74, ax
 1978 06aa EC C9 06 00             		br	!!.L50
 1979                             	.L48:
 470:../DGC_A230_Functions/DGC_A230_Parameters_Functions.c **** 	case 0x07: 	CFG_parameter.Motor_Torque_Decelaration	= TORQUE_LEVEL_7; break;
 1980                             		.loc 1 470 0
 1981 06ae 30 4B 1D                		movw	ax, #7499
 1982 06b1 BF 00 00                		movw	!_CFG_parameter+74, ax
 1983 06b4 EC C9 06 00             		br	!!.L50
 1984                             	.L49:
 471:../DGC_A230_Functions/DGC_A230_Parameters_Functions.c **** 	case 0x08: 	CFG_parameter.Motor_Torque_Decelaration	= TORQUE_LEVEL_8; break;
 1985                             		.loc 1 471 0
 1986 06b8 30 DB 05                		movw	ax, #1499
 1987 06bb BF 00 00                		movw	!_CFG_parameter+74, ax
 1988 06be EC C9 06 00             		br	!!.L50
 1989                             	.L40:
 472:../DGC_A230_Functions/DGC_A230_Parameters_Functions.c **** 	default: 	CFG_parameter.Motor_Torque_Decelaration	= TORQUE_LEVEL_6; break;
 1990                             		.loc 1 472 0
 1991 06c2 30 BB 34                		movw	ax, #13499
 1992 06c5 BF 00 00                		movw	!_CFG_parameter+74, ax
 1993 06c8 00                      		nop
 1994                             	.L50:
 473:../DGC_A230_Functions/DGC_A230_Parameters_Functions.c **** 	}
 474:../DGC_A230_Functions/DGC_A230_Parameters_Functions.c **** 
 475:../DGC_A230_Functions/DGC_A230_Parameters_Functions.c **** 	switch(CFG_Parameters_Value[33])											// 33: Set motor torque during boots
 1995                             		.loc 1 475 0
 1996 06c9 8F 00 00                		mov	a, !_CFG_Parameters_Value+33
 1997 06cc 9D F0                   		mov	r8, a
 1998 06ce F4 F1                   		clrb	r9
 1999 06d0 AD F0                   		movw	ax, r8
 2000 06d2 44 04 00                		cmpw	ax, #4
 2001 06d5 61 F8                   		 sknz
 2002 06d7 EC 5F 07 00             		 br	!!.L52
 2003 06db AD F0                   		movw	ax, r8
 2004 06dd 44 04 00                		cmpw	ax, #4
 2005 06e0 71 FF                   		 xor1	CY, a.7
 2006 06e2 61 F3                   		 sknh
 2007 06e4 EC 0F 07 00             		 br	!!.L53
 2008 06e8 AD F0                   		movw	ax, r8
 2009 06ea 44 02 00                		cmpw	ax, #2
 2010 06ed 61 F8                   		 sknz
 2011 06ef EC 4B 07 00             		 br	!!.L54
 2012 06f3 AD F0                   		movw	ax, r8
 2013 06f5 44 02 00                		cmpw	ax, #2
 2014 06f8 71 FF                   		 xor1	CY, a.7
 2015 06fa 61 F3                   		 sknh
 2016 06fc EC 55 07 00             		 br	!!.L55
 2017 0700 AD F0                   		movw	ax, r8
 2018 0702 44 01 00                		cmpw	ax, #1
 2019 0705 61 F8                   		 sknz
 2020 0707 EC 41 07 00             		 br	!!.L56
 2021 070b EC 91 07 00             		br	!!.L51
 2022                             	.L53:
 2023 070f AD F0                   		movw	ax, r8
 2024 0711 44 06 00                		cmpw	ax, #6
 2025 0714 61 F8                   		 sknz
 2026 0716 EC 73 07 00             		 br	!!.L57
 2027 071a AD F0                   		movw	ax, r8
 2028 071c 44 06 00                		cmpw	ax, #6
 2029 071f 71 FF                   		 xor1	CY, a.7
 2030 0721 61 D8                   		 sknc
 2031 0723 EC 69 07 00             		 br	!!.L58
 2032 0727 AD F0                   		movw	ax, r8
 2033 0729 44 07 00                		cmpw	ax, #7
 2034 072c 61 F8                   		 sknz
 2035 072e EC 7D 07 00             		 br	!!.L59
 2036 0732 AD F0                   		movw	ax, r8
 2037 0734 44 08 00                		cmpw	ax, #8
 2038 0737 61 F8                   		 sknz
 2039 0739 EC 87 07 00             		 br	!!.L60
 2040 073d EC 91 07 00             		br	!!.L51
 2041                             	.L56:
 476:../DGC_A230_Functions/DGC_A230_Parameters_Functions.c **** 	{
 477:../DGC_A230_Functions/DGC_A230_Parameters_Functions.c **** 	case 0x01: 	CFG_parameter.Motor_Torque_Boots	= TORQUE_LEVEL_1; break;
 2042                             		.loc 1 477 0
 2043 0741 30 EB A9                		movw	ax, #-22037
 2044 0744 BF 00 00                		movw	!_CFG_parameter+76, ax
 2045 0747 EC 98 07 00             		br	!!.L61
 2046                             	.L54:
 478:../DGC_A230_Functions/DGC_A230_Parameters_Functions.c **** 	case 0x02: 	CFG_parameter.Motor_Torque_Boots	= TORQUE_LEVEL_2; break;
 2047                             		.loc 1 478 0
 2048 074b 30 7B 92                		movw	ax, #-28037
 2049 074e BF 00 00                		movw	!_CFG_parameter+76, ax
 2050 0751 EC 98 07 00             		br	!!.L61
 2051                             	.L55:
 479:../DGC_A230_Functions/DGC_A230_Parameters_Functions.c **** 	case 0x03: 	CFG_parameter.Motor_Torque_Boots	= TORQUE_LEVEL_3; break;
 2052                             		.loc 1 479 0
 2053 0755 30 0B 7B                		movw	ax, #31499
 2054 0758 BF 00 00                		movw	!_CFG_parameter+76, ax
 2055 075b EC 98 07 00             		br	!!.L61
 2056                             	.L52:
 480:../DGC_A230_Functions/DGC_A230_Parameters_Functions.c **** 	case 0x04: 	CFG_parameter.Motor_Torque_Boots	= TORQUE_LEVEL_4; break;
 2057                             		.loc 1 480 0
 2058 075f 30 9B 63                		movw	ax, #25499
 2059 0762 BF 00 00                		movw	!_CFG_parameter+76, ax
 2060 0765 EC 98 07 00             		br	!!.L61
 2061                             	.L58:
 481:../DGC_A230_Functions/DGC_A230_Parameters_Functions.c **** 	case 0x05: 	CFG_parameter.Motor_Torque_Boots	= TORQUE_LEVEL_5; break;
 2062                             		.loc 1 481 0
 2063 0769 30 2B 4C                		movw	ax, #19499
 2064 076c BF 00 00                		movw	!_CFG_parameter+76, ax
 2065 076f EC 98 07 00             		br	!!.L61
 2066                             	.L57:
 482:../DGC_A230_Functions/DGC_A230_Parameters_Functions.c **** 	case 0x06: 	CFG_parameter.Motor_Torque_Boots	= TORQUE_LEVEL_6; break;
 2067                             		.loc 1 482 0
 2068 0773 30 BB 34                		movw	ax, #13499
 2069 0776 BF 00 00                		movw	!_CFG_parameter+76, ax
 2070 0779 EC 98 07 00             		br	!!.L61
 2071                             	.L59:
 483:../DGC_A230_Functions/DGC_A230_Parameters_Functions.c **** 	case 0x07: 	CFG_parameter.Motor_Torque_Boots	= TORQUE_LEVEL_7; break;
 2072                             		.loc 1 483 0
 2073 077d 30 4B 1D                		movw	ax, #7499
 2074 0780 BF 00 00                		movw	!_CFG_parameter+76, ax
 2075 0783 EC 98 07 00             		br	!!.L61
 2076                             	.L60:
 484:../DGC_A230_Functions/DGC_A230_Parameters_Functions.c **** 	case 0x08: 	CFG_parameter.Motor_Torque_Boots	= TORQUE_LEVEL_8; break;
 2077                             		.loc 1 484 0
 2078 0787 30 DB 05                		movw	ax, #1499
 2079 078a BF 00 00                		movw	!_CFG_parameter+76, ax
 2080 078d EC 98 07 00             		br	!!.L61
 2081                             	.L51:
 485:../DGC_A230_Functions/DGC_A230_Parameters_Functions.c **** 	default: 	CFG_parameter.Motor_Torque_Boots	= TORQUE_LEVEL_8; break;
 2082                             		.loc 1 485 0
 2083 0791 30 DB 05                		movw	ax, #1499
 2084 0794 BF 00 00                		movw	!_CFG_parameter+76, ax
 2085 0797 00                      		nop
 2086                             	.L61:
 486:../DGC_A230_Functions/DGC_A230_Parameters_Functions.c **** 	}
 487:../DGC_A230_Functions/DGC_A230_Parameters_Functions.c **** 
 488:../DGC_A230_Functions/DGC_A230_Parameters_Functions.c **** 	switch(CFG_Parameters_Value[35])											// 35: Set torque after activation of sensing edge or o
 2087                             		.loc 1 488 0
 2088 0798 8F 00 00                		mov	a, !_CFG_Parameters_Value+35
 2089 079b 9D F0                   		mov	r8, a
 2090 079d F4 F1                   		clrb	r9
 2091 079f AD F0                   		movw	ax, r8
 2092 07a1 44 04 00                		cmpw	ax, #4
 2093 07a4 61 F8                   		 sknz
 2094 07a6 EC 54 08 00             		 br	!!.L63
 2095 07aa AD F0                   		movw	ax, r8
 2096 07ac 44 04 00                		cmpw	ax, #4
 2097 07af 71 FF                   		 xor1	CY, a.7
 2098 07b1 61 F3                   		 sknh
 2099 07b3 EC F8 07 00             		 br	!!.L64
 2100 07b7 AD F0                   		movw	ax, r8
 2101 07b9 44 01 00                		cmpw	ax, #1
 2102 07bc 61 F8                   		 sknz
 2103 07be EC 36 08 00             		 br	!!.L65
 2104 07c2 AD F0                   		movw	ax, r8
 2105 07c4 44 01 00                		cmpw	ax, #1
 2106 07c7 71 FF                   		 xor1	CY, a.7
 2107 07c9 61 F3                   		 sknh
 2108 07cb EC DE 07 00             		 br	!!.L66
 2109 07cf AD F0                   		movw	ax, r8
 2110 07d1 44 00 00                		cmpw	ax, #0
 2111 07d4 61 F8                   		 sknz
 2112 07d6 EC 2A 08 00             		 br	!!.L67
 2113 07da EC 86 08 00             		br	!!.L62
 2114                             	.L66:
 2115 07de AD F0                   		movw	ax, r8
 2116 07e0 44 02 00                		cmpw	ax, #2
 2117 07e3 61 F8                   		 sknz
 2118 07e5 EC 40 08 00             		 br	!!.L68
 2119 07e9 AD F0                   		movw	ax, r8
 2120 07eb 44 03 00                		cmpw	ax, #3
 2121 07ee 61 F8                   		 sknz
 2122 07f0 EC 4A 08 00             		 br	!!.L69
 2123 07f4 EC 86 08 00             		br	!!.L62
 2124                             	.L64:
 2125 07f8 AD F0                   		movw	ax, r8
 2126 07fa 44 06 00                		cmpw	ax, #6
 2127 07fd 61 F8                   		 sknz
 2128 07ff EC 68 08 00             		 br	!!.L70
 2129 0803 AD F0                   		movw	ax, r8
 2130 0805 44 06 00                		cmpw	ax, #6
 2131 0808 71 FF                   		 xor1	CY, a.7
 2132 080a 61 D8                   		 sknc
 2133 080c EC 5E 08 00             		 br	!!.L71
 2134 0810 AD F0                   		movw	ax, r8
 2135 0812 44 07 00                		cmpw	ax, #7
 2136 0815 61 F8                   		 sknz
 2137 0817 EC 72 08 00             		 br	!!.L72
 2138 081b AD F0                   		movw	ax, r8
 2139 081d 44 08 00                		cmpw	ax, #8
 2140 0820 61 F8                   		 sknz
 2141 0822 EC 7C 08 00             		 br	!!.L73
 2142 0826 EC 86 08 00             		br	!!.L62
 2143                             	.L67:
 489:../DGC_A230_Functions/DGC_A230_Parameters_Functions.c **** 	{
 490:../DGC_A230_Functions/DGC_A230_Parameters_Functions.c **** 	case 0x00: 	CFG_parameter.Motor_Torque_After_Edge_Sense	= CFG_parameter.Motor_Torque_Maneuver; bre
 2144                             		.loc 1 490 0
 2145 082a AF 00 00                		movw	ax, !_CFG_parameter+72
 2146 082d BD F0                   		movw	r8, ax
 2147 082f BF 00 00                		movw	!_CFG_parameter+78, ax
 2148 0832 EC 8F 08 00             		br	!!.L74
 2149                             	.L65:
 491:../DGC_A230_Functions/DGC_A230_Parameters_Functions.c **** 	case 0x01: 	CFG_parameter.Motor_Torque_After_Edge_Sense	= TORQUE_LEVEL_1; break;
 2150                             		.loc 1 491 0
 2151 0836 30 EB A9                		movw	ax, #-22037
 2152 0839 BF 00 00                		movw	!_CFG_parameter+78, ax
 2153 083c EC 8F 08 00             		br	!!.L74
 2154                             	.L68:
 492:../DGC_A230_Functions/DGC_A230_Parameters_Functions.c **** 	case 0x02: 	CFG_parameter.Motor_Torque_After_Edge_Sense	= TORQUE_LEVEL_2; break;
 2155                             		.loc 1 492 0
 2156 0840 30 7B 92                		movw	ax, #-28037
 2157 0843 BF 00 00                		movw	!_CFG_parameter+78, ax
 2158 0846 EC 8F 08 00             		br	!!.L74
 2159                             	.L69:
 493:../DGC_A230_Functions/DGC_A230_Parameters_Functions.c **** 	case 0x03: 	CFG_parameter.Motor_Torque_After_Edge_Sense	= TORQUE_LEVEL_3; break;
 2160                             		.loc 1 493 0
 2161 084a 30 0B 7B                		movw	ax, #31499
 2162 084d BF 00 00                		movw	!_CFG_parameter+78, ax
 2163 0850 EC 8F 08 00             		br	!!.L74
 2164                             	.L63:
 494:../DGC_A230_Functions/DGC_A230_Parameters_Functions.c **** 	case 0x04: 	CFG_parameter.Motor_Torque_After_Edge_Sense	= TORQUE_LEVEL_4; break;
 2165                             		.loc 1 494 0
 2166 0854 30 9B 63                		movw	ax, #25499
 2167 0857 BF 00 00                		movw	!_CFG_parameter+78, ax
 2168 085a EC 8F 08 00             		br	!!.L74
 2169                             	.L71:
 495:../DGC_A230_Functions/DGC_A230_Parameters_Functions.c **** 	case 0x05: 	CFG_parameter.Motor_Torque_After_Edge_Sense	= TORQUE_LEVEL_5; break;
 2170                             		.loc 1 495 0
 2171 085e 30 2B 4C                		movw	ax, #19499
 2172 0861 BF 00 00                		movw	!_CFG_parameter+78, ax
 2173 0864 EC 8F 08 00             		br	!!.L74
 2174                             	.L70:
 496:../DGC_A230_Functions/DGC_A230_Parameters_Functions.c **** 	case 0x06: 	CFG_parameter.Motor_Torque_After_Edge_Sense	= TORQUE_LEVEL_6; break;
 2175                             		.loc 1 496 0
 2176 0868 30 BB 34                		movw	ax, #13499
 2177 086b BF 00 00                		movw	!_CFG_parameter+78, ax
 2178 086e EC 8F 08 00             		br	!!.L74
 2179                             	.L72:
 497:../DGC_A230_Functions/DGC_A230_Parameters_Functions.c **** 	case 0x07: 	CFG_parameter.Motor_Torque_After_Edge_Sense	= TORQUE_LEVEL_7; break;
 2180                             		.loc 1 497 0
 2181 0872 30 4B 1D                		movw	ax, #7499
 2182 0875 BF 00 00                		movw	!_CFG_parameter+78, ax
 2183 0878 EC 8F 08 00             		br	!!.L74
 2184                             	.L73:
 498:../DGC_A230_Functions/DGC_A230_Parameters_Functions.c **** 	case 0x08: 	CFG_parameter.Motor_Torque_After_Edge_Sense	= TORQUE_LEVEL_8; break;
 2185                             		.loc 1 498 0
 2186 087c 30 DB 05                		movw	ax, #1499
 2187 087f BF 00 00                		movw	!_CFG_parameter+78, ax
 2188 0882 EC 8F 08 00             		br	!!.L74
 2189                             	.L62:
 499:../DGC_A230_Functions/DGC_A230_Parameters_Functions.c **** 	default: 	CFG_parameter.Motor_Torque_After_Edge_Sense	= CFG_parameter.Motor_Torque_Maneuver; break
 2190                             		.loc 1 499 0
 2191 0886 AF 00 00                		movw	ax, !_CFG_parameter+72
 2192 0889 BD F0                   		movw	r8, ax
 2193 088b BF 00 00                		movw	!_CFG_parameter+78, ax
 2194 088e 00                      		nop
 2195                             	.L74:
 500:../DGC_A230_Functions/DGC_A230_Parameters_Functions.c **** 	}
 501:../DGC_A230_Functions/DGC_A230_Parameters_Functions.c **** 
 502:../DGC_A230_Functions/DGC_A230_Parameters_Functions.c **** 	CFG_parameter.Photocell_FT1_Mode_Opening	= CFG_Parameters_Value[50];		// 50: Setting photocell mod
 2196                             		.loc 1 502 0
 2197 088f 8F 00 00                		mov	a, !_CFG_Parameters_Value+50
 2198 0892 9D F0                   		mov	r8, a
 2199 0894 9F 00 00                		mov	!_CFG_parameter+80, a
 503:../DGC_A230_Functions/DGC_A230_Parameters_Functions.c **** 	CFG_parameter.Photocell_FT1_Mode_Closing	= CFG_Parameters_Value[51];		// 51: Setting photocell mod
 2200                             		.loc 1 503 0
 2201 0897 8F 00 00                		mov	a, !_CFG_Parameters_Value+51
 2202 089a 9D F0                   		mov	r8, a
 2203 089c 9F 00 00                		mov	!_CFG_parameter+81, a
 504:../DGC_A230_Functions/DGC_A230_Parameters_Functions.c **** 	CFG_parameter.Photocell_FT1_Mode_Closed		= CFG_Parameters_Value[52];		// 52: Photocell (FT1) mode 
 2204                             		.loc 1 504 0
 2205 089f 8F 00 00                		mov	a, !_CFG_Parameters_Value+52
 2206 08a2 9D F0                   		mov	r8, a
 2207 08a4 9F 00 00                		mov	!_CFG_parameter+82, a
 505:../DGC_A230_Functions/DGC_A230_Parameters_Functions.c **** 	CFG_parameter.Photocell_FT2_Mode_Opening	= CFG_Parameters_Value[53];		// 53: Setting photocell mod
 2208                             		.loc 1 505 0
 2209 08a7 8F 00 00                		mov	a, !_CFG_Parameters_Value+53
 2210 08aa 9D F0                   		mov	r8, a
 2211 08ac 9F 00 00                		mov	!_CFG_parameter+83, a
 506:../DGC_A230_Functions/DGC_A230_Parameters_Functions.c **** 	CFG_parameter.Photocell_FT2_Mode_Closing	= CFG_Parameters_Value[54];		// 54: Setting photocell mod
 2212                             		.loc 1 506 0
 2213 08af 8F 00 00                		mov	a, !_CFG_Parameters_Value+54
 2214 08b2 9D F0                   		mov	r8, a
 2215 08b4 9F 00 00                		mov	!_CFG_parameter+84, a
 507:../DGC_A230_Functions/DGC_A230_Parameters_Functions.c **** 	CFG_parameter.Photocell_FT2_Mode_Closed		= CFG_Parameters_Value[55];		// 55: Photocell (FT2) mode 
 2216                             		.loc 1 507 0
 2217 08b7 8F 00 00                		mov	a, !_CFG_Parameters_Value+55
 2218 08ba 9D F0                   		mov	r8, a
 2219 08bc 9F 00 00                		mov	!_CFG_parameter+85, a
 508:../DGC_A230_Functions/DGC_A230_Parameters_Functions.c **** 	CFG_parameter.Close_Command_Enable_Photocell= CFG_Parameters_Value[56];		// 56: Enable close comma
 2220                             		.loc 1 508 0
 2221 08bf 8F 00 00                		mov	a, !_CFG_Parameters_Value+56
 2222 08c2 9D F0                   		mov	r8, a
 2223 08c4 9F 00 00                		mov	!_CFG_parameter+86, a
 509:../DGC_A230_Functions/DGC_A230_Parameters_Functions.c **** 
 510:../DGC_A230_Functions/DGC_A230_Parameters_Functions.c **** 	CFG_parameter.Limit_Switch_Enable_Braking	= CFG_Parameters_Value[60];		// 60: Enable braking at op
 2224                             		.loc 1 510 0
 2225 08c7 8F 00 00                		mov	a, !_CFG_Parameters_Value+60
 2226 08ca 9D F0                   		mov	r8, a
 2227 08cc 9F 00 00                		mov	!_CFG_parameter+87, a
 511:../DGC_A230_Functions/DGC_A230_Parameters_Functions.c **** 	CFG_parameter.Photocell_Enable_Braking		= CFG_Parameters_Value[61];		// 61: Enable braking after a
 2228                             		.loc 1 511 0
 2229 08cf 8F 00 00                		mov	a, !_CFG_Parameters_Value+61
 2230 08d2 9D F0                   		mov	r8, a
 2231 08d4 9F 00 00                		mov	!_CFG_parameter+88, a
 512:../DGC_A230_Functions/DGC_A230_Parameters_Functions.c **** 	CFG_parameter.Stop_Command_Enable_Braking	= CFG_Parameters_Value[62];		// 62: Enable braking after
 2232                             		.loc 1 512 0
 2233 08d7 8F 00 00                		mov	a, !_CFG_Parameters_Value+62
 2234 08da 9D F0                   		mov	r8, a
 2235 08dc 9F 00 00                		mov	!_CFG_parameter+89, a
 513:../DGC_A230_Functions/DGC_A230_Parameters_Functions.c **** 	CFG_parameter.Reverse_Command_Enable_Braking= CFG_Parameters_Value[63];		// 63: Enable braking aft
 2236                             		.loc 1 513 0
 2237 08df 8F 00 00                		mov	a, !_CFG_Parameters_Value+63
 2238 08e2 9D F0                   		mov	r8, a
 2239 08e4 9F 00 00                		mov	!_CFG_parameter+90, a
 514:../DGC_A230_Functions/DGC_A230_Parameters_Functions.c **** 
 515:../DGC_A230_Functions/DGC_A230_Parameters_Functions.c **** 	Val1 = convert_BCD_to_binary(CFG_Parameters_Value[64]);
 2240                             		.loc 1 515 0
 2241 08e7 8F 00 00                		mov	a, !_CFG_Parameters_Value+64
 2242 08ea 9D F0                   		mov	r8, a
 2243 08ec F4 F1                   		clrb	r9
 2244 08ee AD F0                   		movw	ax, r8
 2245 08f0 B8 00                   		movw	[sp], ax
 2246 08f2 FC 00 00 00             		call	!!%code(_convert_BCD_to_binary)
 2247 08f6 8D F0                   		mov	a, r8
 2248 08f8 98 09                   		mov	[sp+9], a
 516:../DGC_A230_Functions/DGC_A230_Parameters_Functions.c **** 	CFG_parameter.Braking_Time					= Val1*10;						// 64: Set braking time = [64]*10
 2249                             		.loc 1 516 0
 2250 08fa 31 8E                   		shrw	ax, 8
 2251 08fc BD F0                   		movw	r8, ax
 2252 08fe 01                      		addw	ax, ax
 2253 08ff BD F0                   		movw	r8, ax
 2254 0901 31 2D                   		shlw	ax, 2
 2255 0903 BD F2                   		movw	r10, ax
 2256 0905 AD F0                   		movw	ax, r8
 2257 0907 06 F2                   		addw	ax, r10
 2258 0909 BD F0                   		movw	r8, ax
 2259 090b BF 00 00                		movw	!_CFG_parameter+92, ax
 517:../DGC_A230_Functions/DGC_A230_Parameters_Functions.c **** 
 518:../DGC_A230_Functions/DGC_A230_Parameters_Functions.c **** 	switch(CFG_Parameters_Value[65])											// // 65: Set braking force
 2260                             		.loc 1 518 0
 2261 090e 8F 00 00                		mov	a, !_CFG_Parameters_Value+65
 2262 0911 9D F0                   		mov	r8, a
 2263 0913 F4 F1                   		clrb	r9
 2264 0915 AD F0                   		movw	ax, r8
 2265 0917 44 06 00                		cmpw	ax, #6
 2266 091a 61 F8                   		 sknz
 2267 091c EC 60 09 00             		 br	!!.L76
 2268 0920 AD F0                   		movw	ax, r8
 2269 0922 44 06 00                		cmpw	ax, #6
 2270 0925 71 FF                   		 xor1	CY, a.7
 2271 0927 61 F3                   		 sknh
 2272 0929 EC 3C 09 00             		 br	!!.L77
 2273 092d AD F0                   		movw	ax, r8
 2274 092f 44 05 00                		cmpw	ax, #5
 2275 0932 61 F8                   		 sknz
 2276 0934 EC 56 09 00             		 br	!!.L78
 2277 0938 EC 7E 09 00             		br	!!.L75
 2278                             	.L77:
 2279 093c AD F0                   		movw	ax, r8
 2280 093e 44 07 00                		cmpw	ax, #7
 2281 0941 61 F8                   		 sknz
 2282 0943 EC 6A 09 00             		 br	!!.L79
 2283 0947 AD F0                   		movw	ax, r8
 2284 0949 44 08 00                		cmpw	ax, #8
 2285 094c 61 F8                   		 sknz
 2286 094e EC 74 09 00             		 br	!!.L80
 2287 0952 EC 7E 09 00             		br	!!.L75
 2288                             	.L78:
 519:../DGC_A230_Functions/DGC_A230_Parameters_Functions.c **** 	{
 520:../DGC_A230_Functions/DGC_A230_Parameters_Functions.c **** 	case 0x05: 	CFG_parameter.Braking_Force		= TORQUE_LEVEL_5; break;
 2289                             		.loc 1 520 0
 2290 0956 30 2B 4C                		movw	ax, #19499
 2291 0959 BF 00 00                		movw	!_CFG_parameter+94, ax
 2292 095c EC 85 09 00             		br	!!.L81
 2293                             	.L76:
 521:../DGC_A230_Functions/DGC_A230_Parameters_Functions.c **** 	case 0x06: 	CFG_parameter.Braking_Force		= TORQUE_LEVEL_6; break;
 2294                             		.loc 1 521 0
 2295 0960 30 BB 34                		movw	ax, #13499
 2296 0963 BF 00 00                		movw	!_CFG_parameter+94, ax
 2297 0966 EC 85 09 00             		br	!!.L81
 2298                             	.L79:
 522:../DGC_A230_Functions/DGC_A230_Parameters_Functions.c **** 	case 0x07: 	CFG_parameter.Braking_Force		= TORQUE_LEVEL_7; break;
 2299                             		.loc 1 522 0
 2300 096a 30 4B 1D                		movw	ax, #7499
 2301 096d BF 00 00                		movw	!_CFG_parameter+94, ax
 2302 0970 EC 85 09 00             		br	!!.L81
 2303                             	.L80:
 523:../DGC_A230_Functions/DGC_A230_Parameters_Functions.c **** 	case 0x08: 	CFG_parameter.Braking_Force		= TORQUE_LEVEL_8; break;
 2304                             		.loc 1 523 0
 2305 0974 30 DB 05                		movw	ax, #1499
 2306 0977 BF 00 00                		movw	!_CFG_parameter+94, ax
 2307 097a EC 85 09 00             		br	!!.L81
 2308                             	.L75:
 524:../DGC_A230_Functions/DGC_A230_Parameters_Functions.c **** 	default: 	CFG_parameter.Braking_Force		= TORQUE_LEVEL_5; break;
 2309                             		.loc 1 524 0
 2310 097e 30 2B 4C                		movw	ax, #19499
 2311 0981 BF 00 00                		movw	!_CFG_parameter+94, ax
 2312 0984 00                      		nop
 2313                             	.L81:
 525:../DGC_A230_Functions/DGC_A230_Parameters_Functions.c **** 	}
 526:../DGC_A230_Functions/DGC_A230_Parameters_Functions.c **** 
 527:../DGC_A230_Functions/DGC_A230_Parameters_Functions.c **** 	CFG_parameter.Limit_Switch_Config			= CFG_Parameters_Value[72];		// 72: Configuring limit switches
 2314                             		.loc 1 527 0
 2315 0985 8F 00 00                		mov	a, !_CFG_Parameters_Value+72
 2316 0988 9D F0                   		mov	r8, a
 2317 098a 9F 00 00                		mov	!_CFG_parameter+96, a
 528:../DGC_A230_Functions/DGC_A230_Parameters_Functions.c **** 	CFG_parameter.Encoder_Config				= CFG_Parameters_Value[75];		// 75: Configuring encoder
 2318                             		.loc 1 528 0
 2319 098d 8F 00 00                		mov	a, !_CFG_Parameters_Value+75
 2320 0990 9D F0                   		mov	r8, a
 2321 0992 9F 00 00                		mov	!_CFG_parameter+97, a
 529:../DGC_A230_Functions/DGC_A230_Parameters_Functions.c **** 
 530:../DGC_A230_Functions/DGC_A230_Parameters_Functions.c **** 	CFG_parameter.Radio_Config_Key_1			= CFG_Parameters_Value[76];		// 76: Configuring Radio Key PB#1
 2322                             		.loc 1 530 0
 2323 0995 8F 00 00                		mov	a, !_CFG_Parameters_Value+76
 2324 0998 9D F0                   		mov	r8, a
 2325 099a 9F 00 00                		mov	!_CFG_parameter+98, a
 531:../DGC_A230_Functions/DGC_A230_Parameters_Functions.c **** 	CFG_parameter.Radio_Config_Key_2			= CFG_Parameters_Value[77];		// 77: Configuring radio Key PB#2
 2326                             		.loc 1 531 0
 2327 099d 8F 00 00                		mov	a, !_CFG_Parameters_Value+77
 2328 09a0 9D F0                   		mov	r8, a
 2329 09a2 9F 00 00                		mov	!_CFG_parameter+99, a
 532:../DGC_A230_Functions/DGC_A230_Parameters_Functions.c **** 
 533:../DGC_A230_Functions/DGC_A230_Parameters_Functions.c **** 	CFG_parameter.Clock_Contact_Mode			= CFG_Parameters_Value[80];		// 80: Configuring Clock contact
 2330                             		.loc 1 533 0
 2331 09a5 8F 00 00                		mov	a, !_CFG_Parameters_Value+80
 2332 09a8 9D F0                   		mov	r8, a
 2333 09aa 9F 00 00                		mov	!_CFG_parameter+100, a
 534:../DGC_A230_Functions/DGC_A230_Parameters_Functions.c **** 
 535:../DGC_A230_Functions/DGC_A230_Parameters_Functions.c **** 	convert_binary_to_ascii(CFG_Parameters_Value[110], &CFG_parameter.Maneuver_Counter_No1[0], &CFG_pa
 2334                             		.loc 1 535 0
 2335 09ad 8F 00 00                		mov	a, !_CFG_Parameters_Value+110
 2336 09b0 9D F0                   		mov	r8, a
 2337 09b2 F4 F1                   		clrb	r9
 2338 09b4 AD F0                   		movw	ax, r8
 2339 09b6 B8 00                   		movw	[sp], ax
 2340 09b8 30 00 00                		movw	ax, #_CFG_parameter+101
 2341 09bb B8 02                   		movw	[sp+2], ax
 2342 09bd 30 00 00                		movw	ax, #_CFG_parameter+102
 2343 09c0 B8 04                   		movw	[sp+4], ax
 2344 09c2 FC 00 00 00             		call	!!%code(_convert_binary_to_ascii)
 536:../DGC_A230_Functions/DGC_A230_Parameters_Functions.c **** 	convert_binary_to_ascii(CFG_Parameters_Value[111], &CFG_parameter.Maneuver_Counter_No2[0], &CFG_pa
 2345                             		.loc 1 536 0
 2346 09c6 8F 00 00                		mov	a, !_CFG_Parameters_Value+111
 2347 09c9 9D F0                   		mov	r8, a
 2348 09cb F4 F1                   		clrb	r9
 2349 09cd AD F0                   		movw	ax, r8
 2350 09cf B8 00                   		movw	[sp], ax
 2351 09d1 30 00 00                		movw	ax, #_CFG_parameter+103
 2352 09d4 B8 02                   		movw	[sp+2], ax
 2353 09d6 30 00 00                		movw	ax, #_CFG_parameter+104
 2354 09d9 B8 04                   		movw	[sp+4], ax
 2355 09db FC 00 00 00             		call	!!%code(_convert_binary_to_ascii)
 537:../DGC_A230_Functions/DGC_A230_Parameters_Functions.c **** 
 538:../DGC_A230_Functions/DGC_A230_Parameters_Functions.c **** 	convert_binary_to_ascii(CFG_Parameters_Value[113], &CFG_parameter.Maneuver_Hour_Counter_No1[0], &C
 2356                             		.loc 1 538 0
 2357 09df 8F 00 00                		mov	a, !_CFG_Parameters_Value+113
 2358 09e2 9D F0                   		mov	r8, a
 2359 09e4 F4 F1                   		clrb	r9
 2360 09e6 AD F0                   		movw	ax, r8
 2361 09e8 B8 00                   		movw	[sp], ax
 2362 09ea 30 00 00                		movw	ax, #_CFG_parameter+105
 2363 09ed B8 02                   		movw	[sp+2], ax
 2364 09ef 30 00 00                		movw	ax, #_CFG_parameter+106
 2365 09f2 B8 04                   		movw	[sp+4], ax
 2366 09f4 FC 00 00 00             		call	!!%code(_convert_binary_to_ascii)
 539:../DGC_A230_Functions/DGC_A230_Parameters_Functions.c **** 	convert_binary_to_ascii(CFG_Parameters_Value[114], &CFG_parameter.Maneuver_Hour_Counter_No2[0], &C
 2367                             		.loc 1 539 0
 2368 09f8 8F 00 00                		mov	a, !_CFG_Parameters_Value+114
 2369 09fb 9D F0                   		mov	r8, a
 2370 09fd F4 F1                   		clrb	r9
 2371 09ff AD F0                   		movw	ax, r8
 2372 0a01 B8 00                   		movw	[sp], ax
 2373 0a03 30 00 00                		movw	ax, #_CFG_parameter+107
 2374 0a06 B8 02                   		movw	[sp+2], ax
 2375 0a08 30 00 00                		movw	ax, #_CFG_parameter+108
 2376 0a0b B8 04                   		movw	[sp+4], ax
 2377 0a0d FC 00 00 00             		call	!!%code(_convert_binary_to_ascii)
 540:../DGC_A230_Functions/DGC_A230_Parameters_Functions.c **** 
 541:../DGC_A230_Functions/DGC_A230_Parameters_Functions.c **** 	convert_binary_to_ascii(CFG_Parameters_Value[115], &CFG_parameter.Control_Unit_Day_Counter_No1[0],
 2378                             		.loc 1 541 0
 2379 0a11 8F 00 00                		mov	a, !_CFG_Parameters_Value+115
 2380 0a14 9D F0                   		mov	r8, a
 2381 0a16 F4 F1                   		clrb	r9
 2382 0a18 AD F0                   		movw	ax, r8
 2383 0a1a B8 00                   		movw	[sp], ax
 2384 0a1c 30 00 00                		movw	ax, #_CFG_parameter+109
 2385 0a1f B8 02                   		movw	[sp+2], ax
 2386 0a21 30 00 00                		movw	ax, #_CFG_parameter+110
 2387 0a24 B8 04                   		movw	[sp+4], ax
 2388 0a26 FC 00 00 00             		call	!!%code(_convert_binary_to_ascii)
 542:../DGC_A230_Functions/DGC_A230_Parameters_Functions.c **** 	convert_binary_to_ascii(CFG_Parameters_Value[116], &CFG_parameter.Control_Unit_Day_Counter_No2[0],
 2389                             		.loc 1 542 0
 2390 0a2a 8F 00 00                		mov	a, !_CFG_Parameters_Value+116
 2391 0a2d 9D F0                   		mov	r8, a
 2392 0a2f F4 F1                   		clrb	r9
 2393 0a31 AD F0                   		movw	ax, r8
 2394 0a33 B8 00                   		movw	[sp], ax
 2395 0a35 30 00 00                		movw	ax, #_CFG_parameter+111
 2396 0a38 B8 02                   		movw	[sp+2], ax
 2397 0a3a 30 00 00                		movw	ax, #_CFG_parameter+112
 2398 0a3d B8 04                   		movw	[sp+4], ax
 2399 0a3f FC 00 00 00             		call	!!%code(_convert_binary_to_ascii)
 543:../DGC_A230_Functions/DGC_A230_Parameters_Functions.c **** 
 544:../DGC_A230_Functions/DGC_A230_Parameters_Functions.c **** 	if (((CFG_parameter.Step_Mode == 0x01) || (CFG_parameter.Step_Mode == 0x02))
 2400                             		.loc 1 544 0
 2401 0a43 8F 00 00                		mov	a, !_CFG_parameter+51
 2402 0a46 9D F0                   		mov	r8, a
 2403 0a48 4A F0 01                		cmp	r8, #1
 2404 0a4b 61 F8                   		 sknz
 2405 0a4d EC 5F 0A 00             		 br	!!.L82
 2406                             		.loc 1 544 0 is_stmt 0 discriminator 1
 2407 0a51 8F 00 00                		mov	a, !_CFG_parameter+51
 2408 0a54 9D F0                   		mov	r8, a
 2409 0a56 4A F0 02                		cmp	r8, #2
 2410 0a59 61 E8                   		 skz
 2411 0a5b EC 73 0A 00             		 br	!!.L83
 2412                             	.L82:
 545:../DGC_A230_Functions/DGC_A230_Parameters_Functions.c **** 		&& (CFG_parameter.Auto_Close_After_OPen == 0))
 2413                             		.loc 1 545 0 is_stmt 1
 2414 0a5f 8F 00 00                		mov	a, !_CFG_parameter+46
 2415 0a62 9D F0                   		mov	r8, a
 2416 0a64 D4 F0                   		cmp0	r8
 2417 0a66 61 E8                   		 skz
 2418 0a68 EC 73 0A 00             		 br	!!.L83
 546:../DGC_A230_Functions/DGC_A230_Parameters_Functions.c **** 	{
 547:../DGC_A230_Functions/DGC_A230_Parameters_Functions.c **** 		Auto_Close_Retry_Number = 1;
 2419                             		.loc 1 547 0
 2420 0a6c E5 00 00                		oneb	!_Auto_Close_Retry_Number
 2421 0a6f EC 7B 0A 00             		br	!!.L84
 2422                             	.L83:
 548:../DGC_A230_Functions/DGC_A230_Parameters_Functions.c **** 	}
 549:../DGC_A230_Functions/DGC_A230_Parameters_Functions.c **** 	else
 550:../DGC_A230_Functions/DGC_A230_Parameters_Functions.c **** 	{
 551:../DGC_A230_Functions/DGC_A230_Parameters_Functions.c **** 		Auto_Close_Retry_Number = CFG_parameter.Auto_Close_After_OPen;
 2423                             		.loc 1 551 0
 2424 0a73 8F 00 00                		mov	a, !_CFG_parameter+46
 2425 0a76 9D F0                   		mov	r8, a
 2426 0a78 9F 00 00                		mov	!_Auto_Close_Retry_Number, a
 2427                             	.L84:
 552:../DGC_A230_Functions/DGC_A230_Parameters_Functions.c **** 	}
 553:../DGC_A230_Functions/DGC_A230_Parameters_Functions.c **** 
 554:../DGC_A230_Functions/DGC_A230_Parameters_Functions.c **** 	Auto_Close_Gate_Retry_Number = Auto_Close_Retry_Number;
 2428                             		.loc 1 554 0
 2429 0a7b 8F 00 00                		mov	a, !_Auto_Close_Retry_Number
 2430 0a7e 9D F0                   		mov	r8, a
 2431 0a80 9F 00 00                		mov	!_Auto_Close_Gate_Retry_Number, a
 555:../DGC_A230_Functions/DGC_A230_Parameters_Functions.c **** 	Auto_Close_Gate_Timer_Counter = 0;
 2432                             		.loc 1 555 0
 2433 0a83 F6                      		clrw	ax
 2434 0a84 BF 00 00                		movw	!_Auto_Close_Gate_Timer_Counter, ax
 556:../DGC_A230_Functions/DGC_A230_Parameters_Functions.c **** 	Auto_Close_Gate_Timer_Enable = 0;
 2435                             		.loc 1 556 0
 2436 0a87 F5 00 00                		clrb	!_Auto_Close_Gate_Timer_Enable
 557:../DGC_A230_Functions/DGC_A230_Parameters_Functions.c **** }
 2437                             		.loc 1 557 0
 2438 0a8a 10 0A                   		addw	sp, #10
 2439 0a8c D7                      		ret
 2440                             	.LFE5:
 2442                             		.section	.text.Parameters_Edit_Process,"ax",@progbits
 2443                             		.global	_Parameters_Edit_Process
 2445                             	_Parameters_Edit_Process:
 2446                             	.LFB6:
 558:../DGC_A230_Functions/DGC_A230_Parameters_Functions.c **** 
 559:../DGC_A230_Functions/DGC_A230_Parameters_Functions.c **** void Parameters_Edit_Process (void)
 560:../DGC_A230_Functions/DGC_A230_Parameters_Functions.c **** {
 2447                             		.loc 1 560 0
 2448                             		; start of function
 2449                             		; push 2: r16
 2450                             		; locals: 4 bytes
 2451                             		; outgoing: 6 bytes
 2452                             		; uses ES register
 2453 0000 61 EF                   		sel	rb2
 2454 0002 C1                      		push	ax ; r16
 2455                             	.LCFI5:
 2456 0003 61 CF                   		sel	rb0
 2457 0005 20 0A                   		subw	sp, #10
 2458                             	.LCFI6:
 561:../DGC_A230_Functions/DGC_A230_Parameters_Functions.c **** 	uint8_t working_done = 0, check_para;
 2459                             		.loc 1 561 0
 2460 0007 F1                      		clrb	a
 2461 0008 98 07                   		mov	[sp+7], a
 562:../DGC_A230_Functions/DGC_A230_Parameters_Functions.c **** 	uint8_t Parameters_Are_Changed;
 563:../DGC_A230_Functions/DGC_A230_Parameters_Functions.c **** 
 564:../DGC_A230_Functions/DGC_A230_Parameters_Functions.c **** 	Display_Mode = PARA_MODE;
 2462                             		.loc 1 564 0
 2463 000a 51 03                   		mov	a, #3
 2464 000c 9F 00 00                		mov	!_Display_Mode, a
 565:../DGC_A230_Functions/DGC_A230_Parameters_Functions.c **** 
 566:../DGC_A230_Functions/DGC_A230_Parameters_Functions.c **** 	memcpy(&Parameter_Name[0], CFG_Parameters_Name[CFG_Paramenters_Index], 2);
 2465                             		.loc 1 566 0
 2466 000f 8F 00 00                		mov	a, !_CFG_Paramenters_Index
 2467 0012 9D F0                   		mov	r8, a
 2468 0014 F4 F1                   		clrb	r9
 2469 0016 AD F0                   		movw	ax, r8
 2470 0018 01                      		addw	ax, ax
 2471 0019 BD F0                   		movw	r8, ax
 2472 001b 04 00 00                		addw	ax, #_CFG_Parameters_Name
 2473 001e BD F0                   		movw	r8, ax
 2474 0020 C9 F4 00 00             		movw	r12, #_Parameter_Name
 2475 0024 C9 F2 02 00             		movw	r10, #2
 2476 0028 AD F4                   		movw	ax, r12
 2477 002a B8 00                   		movw	[sp], ax
 2478 002c AD F0                   		movw	ax, r8
 2479 002e B8 02                   		movw	[sp+2], ax
 2480 0030 AD F2                   		movw	ax, r10
 2481 0032 B8 04                   		movw	[sp+4], ax
 2482 0034 FC 00 00 00             		call	!!%code(_memcpy)
 567:../DGC_A230_Functions/DGC_A230_Parameters_Functions.c **** 	convert_binary_to_ascii(CFG_Parameters_Value[CFG_Paramenters_Index], &Parameter_Value[0], &Paramet
 2483                             		.loc 1 567 0
 2484 0038 8F 00 00                		mov	a, !_CFG_Paramenters_Index
 2485 003b 9D F0                   		mov	r8, a
 2486 003d F4 F1                   		clrb	r9
 2487 003f AD F0                   		movw	ax, r8
 2488 0041 04 00 00                		addw	ax, #_CFG_Parameters_Value
 2489 0044 16                      		movw	hl, ax
 2490 0045 8B                      		mov	a, [hl]
 2491 0046 9D F0                   		mov	r8, a
 2492 0048 F4 F1                   		clrb	r9
 2493 004a AD F0                   		movw	ax, r8
 2494 004c B8 00                   		movw	[sp], ax
 2495 004e 30 00 00                		movw	ax, #_Parameter_Value
 2496 0051 B8 02                   		movw	[sp+2], ax
 2497 0053 30 00 00                		movw	ax, #_Parameter_Value+1
 2498 0056 B8 04                   		movw	[sp+4], ax
 2499 0058 FC 00 00 00             		call	!!%code(_convert_binary_to_ascii)
 568:../DGC_A230_Functions/DGC_A230_Parameters_Functions.c **** 
 569:../DGC_A230_Functions/DGC_A230_Parameters_Functions.c **** 	Parameters_Are_Changed = 0;
 2500                             		.loc 1 569 0
 2501 005c F1                      		clrb	a
 2502 005d 98 08                   		mov	[sp+8], a
 570:../DGC_A230_Functions/DGC_A230_Parameters_Functions.c **** 	Key_Tick_Count = 0;				// Reset Tick count
 2503                             		.loc 1 570 0
 2504 005f F6                      		clrw	ax
 2505 0060 BF 00 00                		movw	!_Key_Tick_Count, ax
 571:../DGC_A230_Functions/DGC_A230_Parameters_Functions.c **** //	R_TAU0_Channel1_Start();	// Start Timer channel 1
 572:../DGC_A230_Functions/DGC_A230_Parameters_Functions.c **** 
 573:../DGC_A230_Functions/DGC_A230_Parameters_Functions.c **** 	while ((working_done == 0) && (Key_Tick_Count < 1000))
 2506                             		.loc 1 573 0
 2507 0063 EC 39 06 00             		br	!!.L86
 2508                             	.L117:
 574:../DGC_A230_Functions/DGC_A230_Parameters_Functions.c **** 	{
 575:../DGC_A230_Functions/DGC_A230_Parameters_Functions.c **** 		if (!RIGHT_KEY)
 2509                             		.loc 1 575 0
 2510 0067 C9 F0 07 FF             		movw	r8, #-249
 2511 006b AD F0                   		movw	ax, r8
 2512 006d BD F2                   		movw	r10, ax
 2513 006f FA F2                   		movw	hl, r10
 2514 0071 8B                      		mov	a, [hl]
 2515 0072 9D F0                   		mov	r8, a
 2516 0074 31 5A                   		shr	a, 5
 2517 0076 9D F0                   		mov	r8, a
 2518 0078 5A F0 01                		and	r8, #1
 2519 007b 61 E8                   		skz
 2520 007d EC 7B 01 00             		 br	!!.L87
 2521                             		 # zero-comparison eliminated
 576:../DGC_A230_Functions/DGC_A230_Parameters_Functions.c **** 		{
 577:../DGC_A230_Functions/DGC_A230_Parameters_Functions.c **** 			while(!RIGHT_KEY);
 2522                             		.loc 1 577 0
 2523 0081 00                      		nop
 2524                             	.L88:
 2525                             		.loc 1 577 0 is_stmt 0 discriminator 1
 2526 0082 C9 F0 07 FF             		movw	r8, #-249
 2527 0086 AD F0                   		movw	ax, r8
 2528 0088 BD F2                   		movw	r10, ax
 2529 008a FA F2                   		movw	hl, r10
 2530 008c 8B                      		mov	a, [hl]
 2531 008d 9D F0                   		mov	r8, a
 2532 008f 31 5A                   		shr	a, 5
 2533 0091 9D F0                   		mov	r8, a
 2534 0093 5A F0 01                		and	r8, #1
 2535 0096 61 F8                   		sknz
 2536 0098 EC 82 00 00             		 br	!!.L88
 2537                             		 # zero-comparison eliminated
 578:../DGC_A230_Functions/DGC_A230_Parameters_Functions.c **** 			Key_Tick_Count = 0;				// Reset Tick count
 2538                             		.loc 1 578 0 is_stmt 1
 2539 009c F6                      		clrw	ax
 2540 009d BF 00 00                		movw	!_Key_Tick_Count, ax
 579:../DGC_A230_Functions/DGC_A230_Parameters_Functions.c **** 			check_para = 0;
 2541                             		.loc 1 579 0
 2542 00a0 F1                      		clrb	a
 2543 00a1 98 09                   		mov	[sp+9], a
 2544                             	.L91:
 580:../DGC_A230_Functions/DGC_A230_Parameters_Functions.c **** 			do
 581:../DGC_A230_Functions/DGC_A230_Parameters_Functions.c **** 			{
 582:../DGC_A230_Functions/DGC_A230_Parameters_Functions.c **** 				if (++CFG_Paramenters_Index == 128) CFG_Paramenters_Index = 0;
 2545                             		.loc 1 582 0
 2546 00a3 8F 00 00                		mov	a, !_CFG_Paramenters_Index
 2547 00a6 9D F0                   		mov	r8, a
 2548 00a8 A4 F0                   		inc	r8
 2549 00aa 8D F0                   		mov	a, r8
 2550 00ac 9F 00 00                		mov	!_CFG_Paramenters_Index, a
 2551 00af 9D F0                   		mov	r8, a
 2552 00b1 4A F0 80                		cmp	r8, #-128
 2553 00b4 61 E8                   		 skz
 2554 00b6 EC BD 00 00             		 br	!!.L89
 2555                             		.loc 1 582 0 is_stmt 0 discriminator 1
 2556 00ba F5 00 00                		clrb	!_CFG_Paramenters_Index
 2557                             	.L89:
 583:../DGC_A230_Functions/DGC_A230_Parameters_Functions.c **** 				memcpy(&Parameter_Name[0], CFG_Parameters_Name[CFG_Paramenters_Index], 2);
 2558                             		.loc 1 583 0 is_stmt 1
 2559 00bd 8F 00 00                		mov	a, !_CFG_Paramenters_Index
 2560 00c0 9D F0                   		mov	r8, a
 2561 00c2 F4 F1                   		clrb	r9
 2562 00c4 AD F0                   		movw	ax, r8
 2563 00c6 01                      		addw	ax, ax
 2564 00c7 BD F0                   		movw	r8, ax
 2565 00c9 04 00 00                		addw	ax, #_CFG_Parameters_Name
 2566 00cc BD F0                   		movw	r8, ax
 2567 00ce C9 F4 00 00             		movw	r12, #_Parameter_Name
 2568 00d2 C9 F2 02 00             		movw	r10, #2
 2569 00d6 AD F4                   		movw	ax, r12
 2570 00d8 B8 00                   		movw	[sp], ax
 2571 00da AD F0                   		movw	ax, r8
 2572 00dc B8 02                   		movw	[sp+2], ax
 2573 00de AD F2                   		movw	ax, r10
 2574 00e0 B8 04                   		movw	[sp+4], ax
 2575 00e2 FC 00 00 00             		call	!!%code(_memcpy)
 584:../DGC_A230_Functions/DGC_A230_Parameters_Functions.c **** 				if(Parameter_Name[0] != '-') check_para = 1;
 2576                             		.loc 1 584 0
 2577 00e6 8F 00 00                		mov	a, !_Parameter_Name
 2578 00e9 9D F0                   		mov	r8, a
 2579 00eb 4A F0 2D                		cmp	r8, #45
 2580 00ee 61 F8                   		 sknz
 2581 00f0 EC F7 00 00             		 br	!!.L90
 2582                             		.loc 1 584 0 is_stmt 0 discriminator 1
 2583 00f4 E1                      		oneb	a
 2584 00f5 98 09                   		mov	[sp+9], a
 2585                             	.L90:
 585:../DGC_A230_Functions/DGC_A230_Parameters_Functions.c **** 			} while(check_para == 0);
 2586                             		.loc 1 585 0 is_stmt 1
 2587 00f7 88 09                   		mov	a, [sp+9]
 2588 00f9 D1                      		cmp0	a
 2589 00fa 61 F8                   		 sknz
 2590 00fc EC A3 00 00             		 br	!!.L91
 586:../DGC_A230_Functions/DGC_A230_Parameters_Functions.c **** 
 587:../DGC_A230_Functions/DGC_A230_Parameters_Functions.c **** 			if ((CFG_Paramenters_Index == 2)
 2591                             		.loc 1 587 0
 2592 0100 8F 00 00                		mov	a, !_CFG_Paramenters_Index
 2593 0103 9D F0                   		mov	r8, a
 2594 0105 4A F0 02                		cmp	r8, #2
 2595 0108 61 E8                   		 skz
 2596 010a EC 57 01 00             		 br	!!.L92
 588:../DGC_A230_Functions/DGC_A230_Parameters_Functions.c **** 					&& (CFG_Parameters_Value[CFG_Paramenters_Index] == 0x00)
 2597                             		.loc 1 588 0
 2598 010e 8F 00 00                		mov	a, !_CFG_Paramenters_Index
 2599 0111 9D F0                   		mov	r8, a
 2600 0113 F4 F1                   		clrb	r9
 2601 0115 AD F0                   		movw	ax, r8
 2602 0117 04 00 00                		addw	ax, #_CFG_Parameters_Value
 2603 011a 16                      		movw	hl, ax
 2604 011b 8B                      		mov	a, [hl]
 2605 011c 9D F0                   		mov	r8, a
 2606 011e D4 F0                   		cmp0	r8
 2607 0120 61 E8                   		 skz
 2608 0122 EC 57 01 00             		 br	!!.L92
 589:../DGC_A230_Functions/DGC_A230_Parameters_Functions.c **** 					&& ((CFG_Parameters_Value[4] == 0x01) || (CFG_Parameters_Value[4] == 0x02)))
 2609                             		.loc 1 589 0
 2610 0126 8F 00 00                		mov	a, !_CFG_Parameters_Value+4
 2611 0129 9D F0                   		mov	r8, a
 2612 012b 4A F0 01                		cmp	r8, #1
 2613 012e 61 F8                   		 sknz
 2614 0130 EC 42 01 00             		 br	!!.L93
 2615                             		.loc 1 589 0 is_stmt 0 discriminator 1
 2616 0134 8F 00 00                		mov	a, !_CFG_Parameters_Value+4
 2617 0137 9D F0                   		mov	r8, a
 2618 0139 4A F0 02                		cmp	r8, #2
 2619 013c 61 E8                   		 skz
 2620 013e EC 57 01 00             		 br	!!.L92
 2621                             	.L93:
 590:../DGC_A230_Functions/DGC_A230_Parameters_Functions.c **** 			{
 591:../DGC_A230_Functions/DGC_A230_Parameters_Functions.c **** 				convert_binary_to_ascii(0x01, &Parameter_Value[0], &Parameter_Value[1]);
 2622                             		.loc 1 591 0 is_stmt 1
 2623 0142 E6                      		onew	ax
 2624 0143 B8 00                   		movw	[sp], ax
 2625 0145 30 00 00                		movw	ax, #_Parameter_Value
 2626 0148 B8 02                   		movw	[sp+2], ax
 2627 014a 30 00 00                		movw	ax, #_Parameter_Value+1
 2628 014d B8 04                   		movw	[sp+4], ax
 2629 014f FC 00 00 00             		call	!!%code(_convert_binary_to_ascii)
 2630 0153 EC 7B 01 00             		br	!!.L87
 2631                             	.L92:
 592:../DGC_A230_Functions/DGC_A230_Parameters_Functions.c **** 			}
 593:../DGC_A230_Functions/DGC_A230_Parameters_Functions.c **** 			else
 594:../DGC_A230_Functions/DGC_A230_Parameters_Functions.c **** 			{
 595:../DGC_A230_Functions/DGC_A230_Parameters_Functions.c **** 				convert_binary_to_ascii(CFG_Parameters_Value[CFG_Paramenters_Index], &Parameter_Value[0], &Para
 2632                             		.loc 1 595 0
 2633 0157 8F 00 00                		mov	a, !_CFG_Paramenters_Index
 2634 015a 9D F0                   		mov	r8, a
 2635 015c F4 F1                   		clrb	r9
 2636 015e AD F0                   		movw	ax, r8
 2637 0160 04 00 00                		addw	ax, #_CFG_Parameters_Value
 2638 0163 16                      		movw	hl, ax
 2639 0164 8B                      		mov	a, [hl]
 2640 0165 9D F0                   		mov	r8, a
 2641 0167 F4 F1                   		clrb	r9
 2642 0169 AD F0                   		movw	ax, r8
 2643 016b B8 00                   		movw	[sp], ax
 2644 016d 30 00 00                		movw	ax, #_Parameter_Value
 2645 0170 B8 02                   		movw	[sp+2], ax
 2646 0172 30 00 00                		movw	ax, #_Parameter_Value+1
 2647 0175 B8 04                   		movw	[sp+4], ax
 2648 0177 FC 00 00 00             		call	!!%code(_convert_binary_to_ascii)
 2649                             	.L87:
 596:../DGC_A230_Functions/DGC_A230_Parameters_Functions.c **** 			}
 597:../DGC_A230_Functions/DGC_A230_Parameters_Functions.c **** 		}
 598:../DGC_A230_Functions/DGC_A230_Parameters_Functions.c **** 
 599:../DGC_A230_Functions/DGC_A230_Parameters_Functions.c **** 		if (!LEFT_KEY)
 2650                             		.loc 1 599 0
 2651 017b C9 F0 07 FF             		movw	r8, #-249
 2652 017f AD F0                   		movw	ax, r8
 2653 0181 BD F2                   		movw	r10, ax
 2654 0183 FA F2                   		movw	hl, r10
 2655 0185 8B                      		mov	a, [hl]
 2656 0186 9D F0                   		mov	r8, a
 2657 0188 31 7A                   		shr	a, 7
 2658 018a 9D F0                   		mov	r8, a
 2659 018c D4 F0                   		cmp0	r8
 2660 018e 61 E8                   		 skz
 2661 0190 EC 8F 02 00             		 br	!!.L94
 600:../DGC_A230_Functions/DGC_A230_Parameters_Functions.c **** 		{
 601:../DGC_A230_Functions/DGC_A230_Parameters_Functions.c **** 			while(!LEFT_KEY);
 2662                             		.loc 1 601 0
 2663 0194 00                      		nop
 2664                             	.L95:
 2665                             		.loc 1 601 0 is_stmt 0 discriminator 1
 2666 0195 C9 F0 07 FF             		movw	r8, #-249
 2667 0199 AD F0                   		movw	ax, r8
 2668 019b BD F2                   		movw	r10, ax
 2669 019d FA F2                   		movw	hl, r10
 2670 019f 8B                      		mov	a, [hl]
 2671 01a0 9D F0                   		mov	r8, a
 2672 01a2 31 7A                   		shr	a, 7
 2673 01a4 9D F0                   		mov	r8, a
 2674 01a6 D4 F0                   		cmp0	r8
 2675 01a8 61 F8                   		 sknz
 2676 01aa EC 95 01 00             		 br	!!.L95
 602:../DGC_A230_Functions/DGC_A230_Parameters_Functions.c **** 			Key_Tick_Count = 0;				// Reset Tick count
 2677                             		.loc 1 602 0 is_stmt 1
 2678 01ae F6                      		clrw	ax
 2679 01af BF 00 00                		movw	!_Key_Tick_Count, ax
 603:../DGC_A230_Functions/DGC_A230_Parameters_Functions.c **** 			check_para = 0;
 2680                             		.loc 1 603 0
 2681 01b2 F1                      		clrb	a
 2682 01b3 98 09                   		mov	[sp+9], a
 2683                             	.L98:
 604:../DGC_A230_Functions/DGC_A230_Parameters_Functions.c **** 			do
 605:../DGC_A230_Functions/DGC_A230_Parameters_Functions.c **** 			{
 606:../DGC_A230_Functions/DGC_A230_Parameters_Functions.c **** 				if (--CFG_Paramenters_Index == 255) CFG_Paramenters_Index = 127;
 2684                             		.loc 1 606 0
 2685 01b5 8F 00 00                		mov	a, !_CFG_Paramenters_Index
 2686 01b8 9D F0                   		mov	r8, a
 2687 01ba B4 F0                   		dec	r8
 2688 01bc 8D F0                   		mov	a, r8
 2689 01be 9F 00 00                		mov	!_CFG_Paramenters_Index, a
 2690 01c1 9D F0                   		mov	r8, a
 2691 01c3 4A F0 FF                		cmp	r8, #-1
 2692 01c6 61 E8                   		 skz
 2693 01c8 EC D1 01 00             		 br	!!.L96
 2694                             		.loc 1 606 0 is_stmt 0 discriminator 1
 2695 01cc 51 7F                   		mov	a, #127
 2696 01ce 9F 00 00                		mov	!_CFG_Paramenters_Index, a
 2697                             	.L96:
 607:../DGC_A230_Functions/DGC_A230_Parameters_Functions.c **** 
 608:../DGC_A230_Functions/DGC_A230_Parameters_Functions.c **** 				memcpy(&Parameter_Name[0], CFG_Parameters_Name[CFG_Paramenters_Index], 2);
 2698                             		.loc 1 608 0 is_stmt 1
 2699 01d1 8F 00 00                		mov	a, !_CFG_Paramenters_Index
 2700 01d4 9D F0                   		mov	r8, a
 2701 01d6 F4 F1                   		clrb	r9
 2702 01d8 AD F0                   		movw	ax, r8
 2703 01da 01                      		addw	ax, ax
 2704 01db BD F0                   		movw	r8, ax
 2705 01dd 04 00 00                		addw	ax, #_CFG_Parameters_Name
 2706 01e0 BD F0                   		movw	r8, ax
 2707 01e2 C9 F4 00 00             		movw	r12, #_Parameter_Name
 2708 01e6 C9 F2 02 00             		movw	r10, #2
 2709 01ea AD F4                   		movw	ax, r12
 2710 01ec B8 00                   		movw	[sp], ax
 2711 01ee AD F0                   		movw	ax, r8
 2712 01f0 B8 02                   		movw	[sp+2], ax
 2713 01f2 AD F2                   		movw	ax, r10
 2714 01f4 B8 04                   		movw	[sp+4], ax
 2715 01f6 FC 00 00 00             		call	!!%code(_memcpy)
 609:../DGC_A230_Functions/DGC_A230_Parameters_Functions.c **** 				if(Parameter_Name[0] != '-') check_para = 1;
 2716                             		.loc 1 609 0
 2717 01fa 8F 00 00                		mov	a, !_Parameter_Name
 2718 01fd 9D F0                   		mov	r8, a
 2719 01ff 4A F0 2D                		cmp	r8, #45
 2720 0202 61 F8                   		 sknz
 2721 0204 EC 0B 02 00             		 br	!!.L97
 2722                             		.loc 1 609 0 is_stmt 0 discriminator 1
 2723 0208 E1                      		oneb	a
 2724 0209 98 09                   		mov	[sp+9], a
 2725                             	.L97:
 610:../DGC_A230_Functions/DGC_A230_Parameters_Functions.c **** 			} while(check_para == 0);
 2726                             		.loc 1 610 0 is_stmt 1
 2727 020b 88 09                   		mov	a, [sp+9]
 2728 020d D1                      		cmp0	a
 2729 020e 61 F8                   		 sknz
 2730 0210 EC B5 01 00             		 br	!!.L98
 611:../DGC_A230_Functions/DGC_A230_Parameters_Functions.c **** 
 612:../DGC_A230_Functions/DGC_A230_Parameters_Functions.c **** 			if ((CFG_Paramenters_Index == 2)
 2731                             		.loc 1 612 0
 2732 0214 8F 00 00                		mov	a, !_CFG_Paramenters_Index
 2733 0217 9D F0                   		mov	r8, a
 2734 0219 4A F0 02                		cmp	r8, #2
 2735 021c 61 E8                   		 skz
 2736 021e EC 6B 02 00             		 br	!!.L99
 613:../DGC_A230_Functions/DGC_A230_Parameters_Functions.c **** 					&& (CFG_Parameters_Value[CFG_Paramenters_Index] == 0x00)
 2737                             		.loc 1 613 0
 2738 0222 8F 00 00                		mov	a, !_CFG_Paramenters_Index
 2739 0225 9D F0                   		mov	r8, a
 2740 0227 F4 F1                   		clrb	r9
 2741 0229 AD F0                   		movw	ax, r8
 2742 022b 04 00 00                		addw	ax, #_CFG_Parameters_Value
 2743 022e 16                      		movw	hl, ax
 2744 022f 8B                      		mov	a, [hl]
 2745 0230 9D F0                   		mov	r8, a
 2746 0232 D4 F0                   		cmp0	r8
 2747 0234 61 E8                   		 skz
 2748 0236 EC 6B 02 00             		 br	!!.L99
 614:../DGC_A230_Functions/DGC_A230_Parameters_Functions.c **** 					&& ((CFG_Parameters_Value[4] == 0x01) || (CFG_Parameters_Value[4] == 0x02)))
 2749                             		.loc 1 614 0
 2750 023a 8F 00 00                		mov	a, !_CFG_Parameters_Value+4
 2751 023d 9D F0                   		mov	r8, a
 2752 023f 4A F0 01                		cmp	r8, #1
 2753 0242 61 F8                   		 sknz
 2754 0244 EC 56 02 00             		 br	!!.L100
 2755                             		.loc 1 614 0 is_stmt 0 discriminator 1
 2756 0248 8F 00 00                		mov	a, !_CFG_Parameters_Value+4
 2757 024b 9D F0                   		mov	r8, a
 2758 024d 4A F0 02                		cmp	r8, #2
 2759 0250 61 E8                   		 skz
 2760 0252 EC 6B 02 00             		 br	!!.L99
 2761                             	.L100:
 615:../DGC_A230_Functions/DGC_A230_Parameters_Functions.c **** 			{
 616:../DGC_A230_Functions/DGC_A230_Parameters_Functions.c **** 				convert_binary_to_ascii(0x01, &Parameter_Value[0], &Parameter_Value[1]);
 2762                             		.loc 1 616 0 is_stmt 1
 2763 0256 E6                      		onew	ax
 2764 0257 B8 00                   		movw	[sp], ax
 2765 0259 30 00 00                		movw	ax, #_Parameter_Value
 2766 025c B8 02                   		movw	[sp+2], ax
 2767 025e 30 00 00                		movw	ax, #_Parameter_Value+1
 2768 0261 B8 04                   		movw	[sp+4], ax
 2769 0263 FC 00 00 00             		call	!!%code(_convert_binary_to_ascii)
 2770 0267 EC 8F 02 00             		br	!!.L94
 2771                             	.L99:
 617:../DGC_A230_Functions/DGC_A230_Parameters_Functions.c **** 			}
 618:../DGC_A230_Functions/DGC_A230_Parameters_Functions.c **** 			else
 619:../DGC_A230_Functions/DGC_A230_Parameters_Functions.c **** 			{
 620:../DGC_A230_Functions/DGC_A230_Parameters_Functions.c **** 				convert_binary_to_ascii(CFG_Parameters_Value[CFG_Paramenters_Index], &Parameter_Value[0], &Para
 2772                             		.loc 1 620 0
 2773 026b 8F 00 00                		mov	a, !_CFG_Paramenters_Index
 2774 026e 9D F0                   		mov	r8, a
 2775 0270 F4 F1                   		clrb	r9
 2776 0272 AD F0                   		movw	ax, r8
 2777 0274 04 00 00                		addw	ax, #_CFG_Parameters_Value
 2778 0277 16                      		movw	hl, ax
 2779 0278 8B                      		mov	a, [hl]
 2780 0279 9D F0                   		mov	r8, a
 2781 027b F4 F1                   		clrb	r9
 2782 027d AD F0                   		movw	ax, r8
 2783 027f B8 00                   		movw	[sp], ax
 2784 0281 30 00 00                		movw	ax, #_Parameter_Value
 2785 0284 B8 02                   		movw	[sp+2], ax
 2786 0286 30 00 00                		movw	ax, #_Parameter_Value+1
 2787 0289 B8 04                   		movw	[sp+4], ax
 2788 028b FC 00 00 00             		call	!!%code(_convert_binary_to_ascii)
 2789                             	.L94:
 621:../DGC_A230_Functions/DGC_A230_Parameters_Functions.c **** 			}
 622:../DGC_A230_Functions/DGC_A230_Parameters_Functions.c **** 		}
 623:../DGC_A230_Functions/DGC_A230_Parameters_Functions.c **** 
 624:../DGC_A230_Functions/DGC_A230_Parameters_Functions.c **** 		if ((!UP_KEY) && (Machine_State == MACHINE_STATE_STOP))
 2790                             		.loc 1 624 0
 2791 028f C9 F0 0C FF             		movw	r8, #-244
 2792 0293 AD F0                   		movw	ax, r8
 2793 0295 BD F2                   		movw	r10, ax
 2794 0297 FA F2                   		movw	hl, r10
 2795 0299 8B                      		mov	a, [hl]
 2796 029a 9D F0                   		mov	r8, a
 2797 029c 31 4A                   		shr	a, 4
 2798 029e 9D F0                   		mov	r8, a
 2799 02a0 5A F0 01                		and	r8, #1
 2800 02a3 61 E8                   		skz
 2801 02a5 EC 24 04 00             		 br	!!.L101
 2802                             		 # zero-comparison eliminated
 2803                             		.loc 1 624 0 is_stmt 0 discriminator 1
 2804 02a9 8F 00 00                		mov	a, !_Machine_State
 2805 02ac 9D F0                   		mov	r8, a
 2806 02ae D4 F0                   		cmp0	r8
 2807 02b0 61 E8                   		 skz
 2808 02b2 EC 24 04 00             		 br	!!.L101
 625:../DGC_A230_Functions/DGC_A230_Parameters_Functions.c **** 		{
 626:../DGC_A230_Functions/DGC_A230_Parameters_Functions.c **** 			while(!UP_KEY);
 2809                             		.loc 1 626 0 is_stmt 1
 2810 02b6 00                      		nop
 2811                             	.L102:
 2812                             		.loc 1 626 0 is_stmt 0 discriminator 1
 2813 02b7 C9 F0 0C FF             		movw	r8, #-244
 2814 02bb AD F0                   		movw	ax, r8
 2815 02bd BD F2                   		movw	r10, ax
 2816 02bf FA F2                   		movw	hl, r10
 2817 02c1 8B                      		mov	a, [hl]
 2818 02c2 9D F0                   		mov	r8, a
 2819 02c4 31 4A                   		shr	a, 4
 2820 02c6 9D F0                   		mov	r8, a
 2821 02c8 5A F0 01                		and	r8, #1
 2822 02cb 61 F8                   		sknz
 2823 02cd EC B7 02 00             		 br	!!.L102
 2824                             		 # zero-comparison eliminated
 627:../DGC_A230_Functions/DGC_A230_Parameters_Functions.c **** 			Key_Tick_Count = 0;				// Reset Tick count
 2825                             		.loc 1 627 0 is_stmt 1
 2826 02d1 F6                      		clrw	ax
 2827 02d2 BF 00 00                		movw	!_Key_Tick_Count, ax
 628:../DGC_A230_Functions/DGC_A230_Parameters_Functions.c **** 
 629:../DGC_A230_Functions/DGC_A230_Parameters_Functions.c **** 			if (((CFG_Paramenters_Index < 100) || (CFG_Paramenters_Index > 119)) && (CFG_Paramenters_Index !
 2828                             		.loc 1 629 0
 2829 02d5 8F 00 00                		mov	a, !_CFG_Paramenters_Index
 2830 02d8 9D F0                   		mov	r8, a
 2831 02da 4A F0 63                		cmp	r8, #99
 2832 02dd 61 E3                   		 skh
 2833 02df EC F1 02 00             		 br	!!.L103
 2834                             		.loc 1 629 0 is_stmt 0 discriminator 2
 2835 02e3 8F 00 00                		mov	a, !_CFG_Paramenters_Index
 2836 02e6 9D F0                   		mov	r8, a
 2837 02e8 4A F0 77                		cmp	r8, #119
 2838 02eb 61 E3                   		 skh
 2839 02ed EC 24 04 00             		 br	!!.L101
 2840                             	.L103:
 2841                             		.loc 1 629 0 discriminator 3
 2842 02f1 8F 00 00                		mov	a, !_CFG_Paramenters_Index
 2843 02f4 9D F0                   		mov	r8, a
 2844 02f6 4A F0 5A                		cmp	r8, #90
 2845 02f9 61 F8                   		 sknz
 2846 02fb EC 24 04 00             		 br	!!.L101
 630:../DGC_A230_Functions/DGC_A230_Parameters_Functions.c **** 			{
 631:../DGC_A230_Functions/DGC_A230_Parameters_Functions.c **** 				Parameters_Are_Changed = 1;
 2847                             		.loc 1 631 0 is_stmt 1
 2848 02ff E1                      		oneb	a
 2849 0300 98 08                   		mov	[sp+8], a
 632:../DGC_A230_Functions/DGC_A230_Parameters_Functions.c **** 
 633:../DGC_A230_Functions/DGC_A230_Parameters_Functions.c **** 				if(CFG_Parameters_Value[CFG_Paramenters_Index] == CFG_Parameters_Max_Value[CFG_Paramenters_Inde
 2850                             		.loc 1 633 0
 2851 0302 8F 00 00                		mov	a, !_CFG_Paramenters_Index
 2852 0305 9D F0                   		mov	r8, a
 2853 0307 F4 F1                   		clrb	r9
 2854 0309 AD F0                   		movw	ax, r8
 2855 030b 04 00 00                		addw	ax, #_CFG_Parameters_Value
 2856 030e 16                      		movw	hl, ax
 2857 030f 8B                      		mov	a, [hl]
 2858 0310 9D F2                   		mov	r10, a
 2859 0312 8F 00 00                		mov	a, !_CFG_Paramenters_Index
 2860 0315 9D F0                   		mov	r8, a
 2861 0317 F4 F1                   		clrb	r9
 2862 0319 AD F0                   		movw	ax, r8
 2863 031b 04 00 00                		addw	ax, #_CFG_Parameters_Max_Value
 2864 031e 16                      		movw	hl, ax
 2865 031f 8B                      		mov	a, [hl]
 2866 0320 9D F0                   		mov	r8, a
 2867 0322 8D F2                   		mov	a, r10
 2868 0324 4B F0                   		cmp	a, r8
 2869 0326 61 E8                   		 skz
 2870 0328 EC 70 03 00             		 br	!!.L104
 634:../DGC_A230_Functions/DGC_A230_Parameters_Functions.c **** 				{
 635:../DGC_A230_Functions/DGC_A230_Parameters_Functions.c **** 					CFG_Parameters_Value[CFG_Paramenters_Index] = CFG_Parameters_Min_Value[CFG_Paramenters_Index];
 2871                             		.loc 1 635 0
 2872 032c 8F 00 00                		mov	a, !_CFG_Paramenters_Index
 2873 032f 9D F0                   		mov	r8, a
 2874 0331 F4 F1                   		clrb	r9
 2875 0333 8F 00 00                		mov	a, !_CFG_Paramenters_Index
 2876 0336 9D F2                   		mov	r10, a
 2877 0338 F4 F3                   		clrb	r11
 2878 033a AD F2                   		movw	ax, r10
 2879 033c 04 00 00                		addw	ax, #_CFG_Parameters_Min_Value
 2880 033f 16                      		movw	hl, ax
 2881 0340 8B                      		mov	a, [hl]
 2882 0341 9D F2                   		mov	r10, a
 2883 0343 DA F0                   		movw	bc, r8
 2884 0345 48 00 00                		mov	_CFG_Parameters_Value[bc], a
 636:../DGC_A230_Functions/DGC_A230_Parameters_Functions.c **** 					convert_binary_to_ascii(CFG_Parameters_Value[CFG_Paramenters_Index], &Parameter_Value[0], &Par
 2885                             		.loc 1 636 0
 2886 0348 8F 00 00                		mov	a, !_CFG_Paramenters_Index
 2887 034b 9D F0                   		mov	r8, a
 2888 034d F4 F1                   		clrb	r9
 2889 034f AD F0                   		movw	ax, r8
 2890 0351 04 00 00                		addw	ax, #_CFG_Parameters_Value
 2891 0354 16                      		movw	hl, ax
 2892 0355 8B                      		mov	a, [hl]
 2893 0356 9D F0                   		mov	r8, a
 2894 0358 F4 F1                   		clrb	r9
 2895 035a AD F0                   		movw	ax, r8
 2896 035c B8 00                   		movw	[sp], ax
 2897 035e 30 00 00                		movw	ax, #_Parameter_Value
 2898 0361 B8 02                   		movw	[sp+2], ax
 2899 0363 30 00 00                		movw	ax, #_Parameter_Value+1
 2900 0366 B8 04                   		movw	[sp+4], ax
 2901 0368 FC 00 00 00             		call	!!%code(_convert_binary_to_ascii)
 2902 036c EC 24 04 00             		br	!!.L101
 2903                             	.L104:
 2904                             	.LBB2:
 637:../DGC_A230_Functions/DGC_A230_Parameters_Functions.c **** 				}
 638:../DGC_A230_Functions/DGC_A230_Parameters_Functions.c **** 				else
 639:../DGC_A230_Functions/DGC_A230_Parameters_Functions.c **** 				{
 640:../DGC_A230_Functions/DGC_A230_Parameters_Functions.c **** 					if (++Parameter_Value[1] == 0x3A)
 2905                             		.loc 1 640 0
 2906 0370 8F 00 00                		mov	a, !_Parameter_Value+1
 2907 0373 9D F0                   		mov	r8, a
 2908 0375 A4 F0                   		inc	r8
 2909 0377 8D F0                   		mov	a, r8
 2910 0379 9F 00 00                		mov	!_Parameter_Value+1, a
 2911 037c 9D F0                   		mov	r8, a
 2912 037e 4A F0 3A                		cmp	r8, #58
 2913 0381 61 E8                   		 skz
 2914 0383 EC A8 03 00             		 br	!!.L105
 641:../DGC_A230_Functions/DGC_A230_Parameters_Functions.c **** 					{
 642:../DGC_A230_Functions/DGC_A230_Parameters_Functions.c **** 						Parameter_Value[1] = '0';
 2915                             		.loc 1 642 0
 2916 0387 51 30                   		mov	a, #48
 2917 0389 9F 00 00                		mov	!_Parameter_Value+1, a
 643:../DGC_A230_Functions/DGC_A230_Parameters_Functions.c **** 						if (++Parameter_Value[0] == 0x3A)
 2918                             		.loc 1 643 0
 2919 038c 8F 00 00                		mov	a, !_Parameter_Value
 2920 038f 9D F0                   		mov	r8, a
 2921 0391 A4 F0                   		inc	r8
 2922 0393 8D F0                   		mov	a, r8
 2923 0395 9F 00 00                		mov	!_Parameter_Value, a
 2924 0398 9D F0                   		mov	r8, a
 2925 039a 4A F0 3A                		cmp	r8, #58
 2926 039d 61 E8                   		 skz
 2927 039f EC A8 03 00             		 br	!!.L105
 644:../DGC_A230_Functions/DGC_A230_Parameters_Functions.c **** 						{
 645:../DGC_A230_Functions/DGC_A230_Parameters_Functions.c **** 							Parameter_Value[0] = '0';
 2928                             		.loc 1 645 0
 2929 03a3 51 30                   		mov	a, #48
 2930 03a5 9F 00 00                		mov	!_Parameter_Value, a
 2931                             	.L105:
 646:../DGC_A230_Functions/DGC_A230_Parameters_Functions.c **** 						}
 647:../DGC_A230_Functions/DGC_A230_Parameters_Functions.c **** 					}
 648:../DGC_A230_Functions/DGC_A230_Parameters_Functions.c **** 
 649:../DGC_A230_Functions/DGC_A230_Parameters_Functions.c **** 					if ((CFG_Paramenters_Index == 2)
 2932                             		.loc 1 649 0
 2933 03a8 8F 00 00                		mov	a, !_CFG_Paramenters_Index
 2934 03ab 9D F0                   		mov	r8, a
 2935 03ad 4A F0 02                		cmp	r8, #2
 2936 03b0 61 E8                   		 skz
 2937 03b2 EC F8 03 00             		 br	!!.L106
 650:../DGC_A230_Functions/DGC_A230_Parameters_Functions.c **** 							&& ((CFG_Parameters_Value[4] == 0x01) || (CFG_Parameters_Value[4] == 0x02)))
 2938                             		.loc 1 650 0
 2939 03b6 8F 00 00                		mov	a, !_CFG_Parameters_Value+4
 2940 03b9 9D F0                   		mov	r8, a
 2941 03bb 4A F0 01                		cmp	r8, #1
 2942 03be 61 F8                   		 sknz
 2943 03c0 EC D2 03 00             		 br	!!.L107
 2944                             		.loc 1 650 0 is_stmt 0 discriminator 1
 2945 03c4 8F 00 00                		mov	a, !_CFG_Parameters_Value+4
 2946 03c7 9D F0                   		mov	r8, a
 2947 03c9 4A F0 02                		cmp	r8, #2
 2948 03cc 61 E8                   		 skz
 2949 03ce EC F8 03 00             		 br	!!.L106
 2950                             	.L107:
 651:../DGC_A230_Functions/DGC_A230_Parameters_Functions.c **** 					{
 652:../DGC_A230_Functions/DGC_A230_Parameters_Functions.c **** 						if ((Parameter_Value[0] == '0') && (Parameter_Value[1] == '0'))
 2951                             		.loc 1 652 0 is_stmt 1
 2952 03d2 8F 00 00                		mov	a, !_Parameter_Value
 2953 03d5 9D F0                   		mov	r8, a
 2954 03d7 4A F0 30                		cmp	r8, #48
 2955 03da 61 E8                   		 skz
 2956 03dc EC F8 03 00             		 br	!!.L106
 2957                             		.loc 1 652 0 is_stmt 0 discriminator 1
 2958 03e0 8F 00 00                		mov	a, !_Parameter_Value+1
 2959 03e3 9D F0                   		mov	r8, a
 2960 03e5 4A F0 30                		cmp	r8, #48
 2961 03e8 61 E8                   		 skz
 2962 03ea EC F8 03 00             		 br	!!.L106
 653:../DGC_A230_Functions/DGC_A230_Parameters_Functions.c **** 						{
 654:../DGC_A230_Functions/DGC_A230_Parameters_Functions.c **** 							Parameter_Value[0] = '0';
 2963                             		.loc 1 654 0 is_stmt 1
 2964 03ee 51 30                   		mov	a, #48
 2965 03f0 9F 00 00                		mov	!_Parameter_Value, a
 655:../DGC_A230_Functions/DGC_A230_Parameters_Functions.c **** 							Parameter_Value[1] = '1';
 2966                             		.loc 1 655 0
 2967 03f3 51 31                   		mov	a, #49
 2968 03f5 9F 00 00                		mov	!_Parameter_Value+1, a
 2969                             	.L106:
 656:../DGC_A230_Functions/DGC_A230_Parameters_Functions.c **** 						}
 657:../DGC_A230_Functions/DGC_A230_Parameters_Functions.c **** 					}
 658:../DGC_A230_Functions/DGC_A230_Parameters_Functions.c **** 
 659:../DGC_A230_Functions/DGC_A230_Parameters_Functions.c **** 					CFG_Parameters_Value[CFG_Paramenters_Index] = convert_ascii_to_binary(Parameter_Value[0], Para
 2970                             		.loc 1 659 0
 2971 03f8 8F 00 00                		mov	a, !_CFG_Paramenters_Index
 2972 03fb 9D F0                   		mov	r8, a
 2973 03fd 31 8E                   		shrw	ax, 8
 2974 03ff BD E8                   		movw	r16, ax
 2975 0401 8F 00 00                		mov	a, !_Parameter_Value
 2976 0404 9D F0                   		mov	r8, a
 2977 0406 31 8E                   		shrw	ax, 8
 2978 0408 BD F2                   		movw	r10, ax
 2979 040a 8F 00 00                		mov	a, !_Parameter_Value+1
 2980 040d 9D F0                   		mov	r8, a
 2981 040f F4 F1                   		clrb	r9
 2982 0411 AD F2                   		movw	ax, r10
 2983 0413 B8 00                   		movw	[sp], ax
 2984 0415 AD F0                   		movw	ax, r8
 2985 0417 B8 02                   		movw	[sp+2], ax
 2986 0419 FC 00 00 00             		call	!!%code(_convert_ascii_to_binary)
 2987 041d DA E8                   		movw	bc, r16
 2988 041f 8D F0                   		mov	a, r8
 2989 0421 48 00 00                		mov	_CFG_Parameters_Value[bc], a
 2990                             	.L101:
 2991                             	.LBE2:
 660:../DGC_A230_Functions/DGC_A230_Parameters_Functions.c **** 				}
 661:../DGC_A230_Functions/DGC_A230_Parameters_Functions.c **** 			}
 662:../DGC_A230_Functions/DGC_A230_Parameters_Functions.c **** 		}
 663:../DGC_A230_Functions/DGC_A230_Parameters_Functions.c **** 
 664:../DGC_A230_Functions/DGC_A230_Parameters_Functions.c **** 		if ((!DOWN_KEY) && (Machine_State == MACHINE_STATE_STOP))
 2992                             		.loc 1 664 0
 2993 0424 C9 F0 0C FF             		movw	r8, #-244
 2994 0428 AD F0                   		movw	ax, r8
 2995 042a BD F2                   		movw	r10, ax
 2996 042c FA F2                   		movw	hl, r10
 2997 042e 8B                      		mov	a, [hl]
 2998 042f 9D F0                   		mov	r8, a
 2999 0431 31 3A                   		shr	a, 3
 3000 0433 9D F0                   		mov	r8, a
 3001 0435 5A F0 01                		and	r8, #1
 3002 0438 61 E8                   		skz
 3003 043a EC B9 05 00             		 br	!!.L108
 3004                             		 # zero-comparison eliminated
 3005                             		.loc 1 664 0 is_stmt 0 discriminator 1
 3006 043e 8F 00 00                		mov	a, !_Machine_State
 3007 0441 9D F0                   		mov	r8, a
 3008 0443 D4 F0                   		cmp0	r8
 3009 0445 61 E8                   		 skz
 3010 0447 EC B9 05 00             		 br	!!.L108
 665:../DGC_A230_Functions/DGC_A230_Parameters_Functions.c **** 		{
 666:../DGC_A230_Functions/DGC_A230_Parameters_Functions.c **** 			while(!DOWN_KEY);
 3011                             		.loc 1 666 0 is_stmt 1
 3012 044b 00                      		nop
 3013                             	.L109:
 3014                             		.loc 1 666 0 is_stmt 0 discriminator 1
 3015 044c C9 F0 0C FF             		movw	r8, #-244
 3016 0450 AD F0                   		movw	ax, r8
 3017 0452 BD F2                   		movw	r10, ax
 3018 0454 FA F2                   		movw	hl, r10
 3019 0456 8B                      		mov	a, [hl]
 3020 0457 9D F0                   		mov	r8, a
 3021 0459 31 3A                   		shr	a, 3
 3022 045b 9D F0                   		mov	r8, a
 3023 045d 5A F0 01                		and	r8, #1
 3024 0460 61 F8                   		sknz
 3025 0462 EC 4C 04 00             		 br	!!.L109
 3026                             		 # zero-comparison eliminated
 667:../DGC_A230_Functions/DGC_A230_Parameters_Functions.c **** 			Key_Tick_Count = 0;				// Reset Tick count
 3027                             		.loc 1 667 0 is_stmt 1
 3028 0466 F6                      		clrw	ax
 3029 0467 BF 00 00                		movw	!_Key_Tick_Count, ax
 668:../DGC_A230_Functions/DGC_A230_Parameters_Functions.c **** 
 669:../DGC_A230_Functions/DGC_A230_Parameters_Functions.c **** 			if (((CFG_Paramenters_Index < 100) || (CFG_Paramenters_Index > 119)) && (CFG_Paramenters_Index !
 3030                             		.loc 1 669 0
 3031 046a 8F 00 00                		mov	a, !_CFG_Paramenters_Index
 3032 046d 9D F0                   		mov	r8, a
 3033 046f 4A F0 63                		cmp	r8, #99
 3034 0472 61 E3                   		 skh
 3035 0474 EC 86 04 00             		 br	!!.L110
 3036                             		.loc 1 669 0 is_stmt 0 discriminator 2
 3037 0478 8F 00 00                		mov	a, !_CFG_Paramenters_Index
 3038 047b 9D F0                   		mov	r8, a
 3039 047d 4A F0 77                		cmp	r8, #119
 3040 0480 61 E3                   		 skh
 3041 0482 EC B9 05 00             		 br	!!.L108
 3042                             	.L110:
 3043                             		.loc 1 669 0 discriminator 3
 3044 0486 8F 00 00                		mov	a, !_CFG_Paramenters_Index
 3045 0489 9D F0                   		mov	r8, a
 3046 048b 4A F0 5A                		cmp	r8, #90
 3047 048e 61 F8                   		 sknz
 3048 0490 EC B9 05 00             		 br	!!.L108
 670:../DGC_A230_Functions/DGC_A230_Parameters_Functions.c **** 			{
 671:../DGC_A230_Functions/DGC_A230_Parameters_Functions.c **** 				Parameters_Are_Changed = 1;
 3049                             		.loc 1 671 0 is_stmt 1
 3050 0494 E1                      		oneb	a
 3051 0495 98 08                   		mov	[sp+8], a
 672:../DGC_A230_Functions/DGC_A230_Parameters_Functions.c **** 
 673:../DGC_A230_Functions/DGC_A230_Parameters_Functions.c **** 				if(CFG_Parameters_Value[CFG_Paramenters_Index] == CFG_Parameters_Min_Value[CFG_Paramenters_Inde
 3052                             		.loc 1 673 0
 3053 0497 8F 00 00                		mov	a, !_CFG_Paramenters_Index
 3054 049a 9D F0                   		mov	r8, a
 3055 049c F4 F1                   		clrb	r9
 3056 049e AD F0                   		movw	ax, r8
 3057 04a0 04 00 00                		addw	ax, #_CFG_Parameters_Value
 3058 04a3 16                      		movw	hl, ax
 3059 04a4 8B                      		mov	a, [hl]
 3060 04a5 9D F2                   		mov	r10, a
 3061 04a7 8F 00 00                		mov	a, !_CFG_Paramenters_Index
 3062 04aa 9D F0                   		mov	r8, a
 3063 04ac F4 F1                   		clrb	r9
 3064 04ae AD F0                   		movw	ax, r8
 3065 04b0 04 00 00                		addw	ax, #_CFG_Parameters_Min_Value
 3066 04b3 16                      		movw	hl, ax
 3067 04b4 8B                      		mov	a, [hl]
 3068 04b5 9D F0                   		mov	r8, a
 3069 04b7 8D F2                   		mov	a, r10
 3070 04b9 4B F0                   		cmp	a, r8
 3071 04bb 61 E8                   		 skz
 3072 04bd EC 05 05 00             		 br	!!.L111
 674:../DGC_A230_Functions/DGC_A230_Parameters_Functions.c **** 				{
 675:../DGC_A230_Functions/DGC_A230_Parameters_Functions.c **** 					CFG_Parameters_Value[CFG_Paramenters_Index] = CFG_Parameters_Max_Value[CFG_Paramenters_Index];
 3073                             		.loc 1 675 0
 3074 04c1 8F 00 00                		mov	a, !_CFG_Paramenters_Index
 3075 04c4 9D F0                   		mov	r8, a
 3076 04c6 F4 F1                   		clrb	r9
 3077 04c8 8F 00 00                		mov	a, !_CFG_Paramenters_Index
 3078 04cb 9D F2                   		mov	r10, a
 3079 04cd F4 F3                   		clrb	r11
 3080 04cf AD F2                   		movw	ax, r10
 3081 04d1 04 00 00                		addw	ax, #_CFG_Parameters_Max_Value
 3082 04d4 16                      		movw	hl, ax
 3083 04d5 8B                      		mov	a, [hl]
 3084 04d6 9D F2                   		mov	r10, a
 3085 04d8 DA F0                   		movw	bc, r8
 3086 04da 48 00 00                		mov	_CFG_Parameters_Value[bc], a
 676:../DGC_A230_Functions/DGC_A230_Parameters_Functions.c **** 					convert_binary_to_ascii(CFG_Parameters_Value[CFG_Paramenters_Index], &Parameter_Value[0], &Par
 3087                             		.loc 1 676 0
 3088 04dd 8F 00 00                		mov	a, !_CFG_Paramenters_Index
 3089 04e0 9D F0                   		mov	r8, a
 3090 04e2 F4 F1                   		clrb	r9
 3091 04e4 AD F0                   		movw	ax, r8
 3092 04e6 04 00 00                		addw	ax, #_CFG_Parameters_Value
 3093 04e9 16                      		movw	hl, ax
 3094 04ea 8B                      		mov	a, [hl]
 3095 04eb 9D F0                   		mov	r8, a
 3096 04ed F4 F1                   		clrb	r9
 3097 04ef AD F0                   		movw	ax, r8
 3098 04f1 B8 00                   		movw	[sp], ax
 3099 04f3 30 00 00                		movw	ax, #_Parameter_Value
 3100 04f6 B8 02                   		movw	[sp+2], ax
 3101 04f8 30 00 00                		movw	ax, #_Parameter_Value+1
 3102 04fb B8 04                   		movw	[sp+4], ax
 3103 04fd FC 00 00 00             		call	!!%code(_convert_binary_to_ascii)
 3104 0501 EC B9 05 00             		br	!!.L108
 3105                             	.L111:
 3106                             	.LBB3:
 677:../DGC_A230_Functions/DGC_A230_Parameters_Functions.c **** 				}
 678:../DGC_A230_Functions/DGC_A230_Parameters_Functions.c **** 				else
 679:../DGC_A230_Functions/DGC_A230_Parameters_Functions.c **** 				{
 680:../DGC_A230_Functions/DGC_A230_Parameters_Functions.c **** 					if (--Parameter_Value[1] == 0x2F)
 3107                             		.loc 1 680 0
 3108 0505 8F 00 00                		mov	a, !_Parameter_Value+1
 3109 0508 9D F0                   		mov	r8, a
 3110 050a B4 F0                   		dec	r8
 3111 050c 8D F0                   		mov	a, r8
 3112 050e 9F 00 00                		mov	!_Parameter_Value+1, a
 3113 0511 9D F0                   		mov	r8, a
 3114 0513 4A F0 2F                		cmp	r8, #47
 3115 0516 61 E8                   		 skz
 3116 0518 EC 3D 05 00             		 br	!!.L112
 681:../DGC_A230_Functions/DGC_A230_Parameters_Functions.c **** 					{
 682:../DGC_A230_Functions/DGC_A230_Parameters_Functions.c **** 						Parameter_Value[1] = '9';
 3117                             		.loc 1 682 0
 3118 051c 51 39                   		mov	a, #57
 3119 051e 9F 00 00                		mov	!_Parameter_Value+1, a
 683:../DGC_A230_Functions/DGC_A230_Parameters_Functions.c **** 						if (--Parameter_Value[0] == 0x2F)
 3120                             		.loc 1 683 0
 3121 0521 8F 00 00                		mov	a, !_Parameter_Value
 3122 0524 9D F0                   		mov	r8, a
 3123 0526 B4 F0                   		dec	r8
 3124 0528 8D F0                   		mov	a, r8
 3125 052a 9F 00 00                		mov	!_Parameter_Value, a
 3126 052d 9D F0                   		mov	r8, a
 3127 052f 4A F0 2F                		cmp	r8, #47
 3128 0532 61 E8                   		 skz
 3129 0534 EC 3D 05 00             		 br	!!.L112
 684:../DGC_A230_Functions/DGC_A230_Parameters_Functions.c **** 						{
 685:../DGC_A230_Functions/DGC_A230_Parameters_Functions.c **** 							Parameter_Value[0] = '9';
 3130                             		.loc 1 685 0
 3131 0538 51 39                   		mov	a, #57
 3132 053a 9F 00 00                		mov	!_Parameter_Value, a
 3133                             	.L112:
 686:../DGC_A230_Functions/DGC_A230_Parameters_Functions.c **** 						}
 687:../DGC_A230_Functions/DGC_A230_Parameters_Functions.c **** 					}
 688:../DGC_A230_Functions/DGC_A230_Parameters_Functions.c **** 
 689:../DGC_A230_Functions/DGC_A230_Parameters_Functions.c **** 					if ((CFG_Paramenters_Index == 2)
 3134                             		.loc 1 689 0
 3135 053d 8F 00 00                		mov	a, !_CFG_Paramenters_Index
 3136 0540 9D F0                   		mov	r8, a
 3137 0542 4A F0 02                		cmp	r8, #2
 3138 0545 61 E8                   		 skz
 3139 0547 EC 8D 05 00             		 br	!!.L113
 690:../DGC_A230_Functions/DGC_A230_Parameters_Functions.c **** 							&& ((CFG_Parameters_Value[4] == 0x01) || (CFG_Parameters_Value[4] == 0x02)))
 3140                             		.loc 1 690 0
 3141 054b 8F 00 00                		mov	a, !_CFG_Parameters_Value+4
 3142 054e 9D F0                   		mov	r8, a
 3143 0550 4A F0 01                		cmp	r8, #1
 3144 0553 61 F8                   		 sknz
 3145 0555 EC 67 05 00             		 br	!!.L114
 3146                             		.loc 1 690 0 is_stmt 0 discriminator 1
 3147 0559 8F 00 00                		mov	a, !_CFG_Parameters_Value+4
 3148 055c 9D F0                   		mov	r8, a
 3149 055e 4A F0 02                		cmp	r8, #2
 3150 0561 61 E8                   		 skz
 3151 0563 EC 8D 05 00             		 br	!!.L113
 3152                             	.L114:
 691:../DGC_A230_Functions/DGC_A230_Parameters_Functions.c **** 					{
 692:../DGC_A230_Functions/DGC_A230_Parameters_Functions.c **** 						if ((Parameter_Value[0] == '0') && (Parameter_Value[1] == '0'))
 3153                             		.loc 1 692 0 is_stmt 1
 3154 0567 8F 00 00                		mov	a, !_Parameter_Value
 3155 056a 9D F0                   		mov	r8, a
 3156 056c 4A F0 30                		cmp	r8, #48
 3157 056f 61 E8                   		 skz
 3158 0571 EC 8D 05 00             		 br	!!.L113
 3159                             		.loc 1 692 0 is_stmt 0 discriminator 1
 3160 0575 8F 00 00                		mov	a, !_Parameter_Value+1
 3161 0578 9D F0                   		mov	r8, a
 3162 057a 4A F0 30                		cmp	r8, #48
 3163 057d 61 E8                   		 skz
 3164 057f EC 8D 05 00             		 br	!!.L113
 693:../DGC_A230_Functions/DGC_A230_Parameters_Functions.c **** 						{
 694:../DGC_A230_Functions/DGC_A230_Parameters_Functions.c **** 							Parameter_Value[0] = '9';
 3165                             		.loc 1 694 0 is_stmt 1
 3166 0583 51 39                   		mov	a, #57
 3167 0585 9F 00 00                		mov	!_Parameter_Value, a
 695:../DGC_A230_Functions/DGC_A230_Parameters_Functions.c **** 							Parameter_Value[1] = '9';
 3168                             		.loc 1 695 0
 3169 0588 51 39                   		mov	a, #57
 3170 058a 9F 00 00                		mov	!_Parameter_Value+1, a
 3171                             	.L113:
 696:../DGC_A230_Functions/DGC_A230_Parameters_Functions.c **** 						}
 697:../DGC_A230_Functions/DGC_A230_Parameters_Functions.c **** 					}
 698:../DGC_A230_Functions/DGC_A230_Parameters_Functions.c **** 
 699:../DGC_A230_Functions/DGC_A230_Parameters_Functions.c **** 					CFG_Parameters_Value[CFG_Paramenters_Index] = convert_ascii_to_binary(Parameter_Value[0], Para
 3172                             		.loc 1 699 0
 3173 058d 8F 00 00                		mov	a, !_CFG_Paramenters_Index
 3174 0590 9D F0                   		mov	r8, a
 3175 0592 31 8E                   		shrw	ax, 8
 3176 0594 BD E8                   		movw	r16, ax
 3177 0596 8F 00 00                		mov	a, !_Parameter_Value
 3178 0599 9D F0                   		mov	r8, a
 3179 059b 31 8E                   		shrw	ax, 8
 3180 059d BD F2                   		movw	r10, ax
 3181 059f 8F 00 00                		mov	a, !_Parameter_Value+1
 3182 05a2 9D F0                   		mov	r8, a
 3183 05a4 F4 F1                   		clrb	r9
 3184 05a6 AD F2                   		movw	ax, r10
 3185 05a8 B8 00                   		movw	[sp], ax
 3186 05aa AD F0                   		movw	ax, r8
 3187 05ac B8 02                   		movw	[sp+2], ax
 3188 05ae FC 00 00 00             		call	!!%code(_convert_ascii_to_binary)
 3189 05b2 DA E8                   		movw	bc, r16
 3190 05b4 8D F0                   		mov	a, r8
 3191 05b6 48 00 00                		mov	_CFG_Parameters_Value[bc], a
 3192                             	.L108:
 3193                             	.LBE3:
 700:../DGC_A230_Functions/DGC_A230_Parameters_Functions.c **** 				}
 701:../DGC_A230_Functions/DGC_A230_Parameters_Functions.c **** 			}
 702:../DGC_A230_Functions/DGC_A230_Parameters_Functions.c **** 		}
 703:../DGC_A230_Functions/DGC_A230_Parameters_Functions.c **** 
 704:../DGC_A230_Functions/DGC_A230_Parameters_Functions.c **** 		if ((!PROG_KEY) && (Machine_State == MACHINE_STATE_STOP) && (CFG_Paramenters_Index == 90) && (CFG
 3194                             		.loc 1 704 0
 3195 05b9 C9 F0 01 FF             		movw	r8, #-255
 3196 05bd AD F0                   		movw	ax, r8
 3197 05bf BD F2                   		movw	r10, ax
 3198 05c1 FA F2                   		movw	hl, r10
 3199 05c3 8B                      		mov	a, [hl]
 3200 05c4 9D F0                   		mov	r8, a
 3201 05c6 31 6A                   		shr	a, 6
 3202 05c8 9D F0                   		mov	r8, a
 3203 05ca 5A F0 01                		and	r8, #1
 3204 05cd 61 E8                   		skz
 3205 05cf EC 39 06 00             		 br	!!.L86
 3206                             		 # zero-comparison eliminated
 3207                             		.loc 1 704 0 is_stmt 0 discriminator 1
 3208 05d3 8F 00 00                		mov	a, !_Machine_State
 3209 05d6 9D F0                   		mov	r8, a
 3210 05d8 D4 F0                   		cmp0	r8
 3211 05da 61 E8                   		 skz
 3212 05dc EC 39 06 00             		 br	!!.L86
 3213                             		.loc 1 704 0 discriminator 2
 3214 05e0 8F 00 00                		mov	a, !_CFG_Paramenters_Index
 3215 05e3 9D F0                   		mov	r8, a
 3216 05e5 4A F0 5A                		cmp	r8, #90
 3217 05e8 61 E8                   		 skz
 3218 05ea EC 39 06 00             		 br	!!.L86
 3219                             		.loc 1 704 0 discriminator 3
 3220 05ee 8F 00 00                		mov	a, !_CFG_Parameters_Value+124
 3221 05f1 9D F0                   		mov	r8, a
 3222 05f3 D4 F0                   		cmp0	r8
 3223 05f5 61 E8                   		 skz
 3224 05f7 EC 39 06 00             		 br	!!.L86
 705:../DGC_A230_Functions/DGC_A230_Parameters_Functions.c **** 		{
 706:../DGC_A230_Functions/DGC_A230_Parameters_Functions.c **** 			Key_Tick_Count = 0;								// Reset Tick count
 3225                             		.loc 1 706 0 is_stmt 1
 3226 05fb F6                      		clrw	ax
 3227 05fc BF 00 00                		movw	!_Key_Tick_Count, ax
 707:../DGC_A230_Functions/DGC_A230_Parameters_Functions.c **** 			while(!PROG_KEY);
 3228                             		.loc 1 707 0
 3229 05ff 00                      		nop
 3230                             	.L115:
 3231                             		.loc 1 707 0 is_stmt 0 discriminator 1
 3232 0600 C9 F0 01 FF             		movw	r8, #-255
 3233 0604 AD F0                   		movw	ax, r8
 3234 0606 BD F2                   		movw	r10, ax
 3235 0608 FA F2                   		movw	hl, r10
 3236 060a 8B                      		mov	a, [hl]
 3237 060b 9D F0                   		mov	r8, a
 3238 060d 31 6A                   		shr	a, 6
 3239 060f 9D F0                   		mov	r8, a
 3240 0611 5A F0 01                		and	r8, #1
 3241 0614 61 F8                   		sknz
 3242 0616 EC 00 06 00             		 br	!!.L115
 3243                             		 # zero-comparison eliminated
 708:../DGC_A230_Functions/DGC_A230_Parameters_Functions.c **** 			if (Key_Tick_Count > 400)
 3244                             		.loc 1 708 0 is_stmt 1
 3245 061a AF 00 00                		movw	ax, !_Key_Tick_Count
 3246 061d BD F0                   		movw	r8, ax
 3247 061f 44 90 01                		cmpw	ax, #400
 3248 0622 61 E3                   		 skh
 3249 0624 EC 39 06 00             		 br	!!.L86
 709:../DGC_A230_Functions/DGC_A230_Parameters_Functions.c **** 			{
 710:../DGC_A230_Functions/DGC_A230_Parameters_Functions.c **** 		    	Reset_Factory_Default_Parameters(0x00);	// Reset Factory Default Parameters
 3250                             		.loc 1 710 0
 3251 0628 F1                      		clrb	a
 3252 0629 98 00                   		mov	[sp], a
 3253 062b FC 00 00 00             		call	!!%code(_Reset_Factory_Default_Parameters)
 711:../DGC_A230_Functions/DGC_A230_Parameters_Functions.c **** 		        Calculate_CFG_Parameters();				// ReCalculate Working parameters
 3254                             		.loc 1 711 0
 3255 062f FC 00 00 00             		call	!!%code(_Calculate_CFG_Parameters)
 712:../DGC_A230_Functions/DGC_A230_Parameters_Functions.c **** 		        Key_Tick_Count = 1500;
 3256                             		.loc 1 712 0
 3257 0633 30 DC 05                		movw	ax, #1500
 3258 0636 BF 00 00                		movw	!_Key_Tick_Count, ax
 3259                             	.L86:
 573:../DGC_A230_Functions/DGC_A230_Parameters_Functions.c **** 	{
 3260                             		.loc 1 573 0
 3261 0639 88 07                   		mov	a, [sp+7]
 3262 063b D1                      		cmp0	a
 3263 063c 61 E8                   		 skz
 3264 063e EC 50 06 00             		 br	!!.L116
 573:../DGC_A230_Functions/DGC_A230_Parameters_Functions.c **** 	{
 3265                             		.loc 1 573 0 is_stmt 0 discriminator 1
 3266 0642 AF 00 00                		movw	ax, !_Key_Tick_Count
 3267 0645 BD F0                   		movw	r8, ax
 3268 0647 44 E7 03                		cmpw	ax, #999
 3269 064a 61 E3                   		 skh
 3270 064c EC 67 00 00             		 br	!!.L117
 3271                             	.L116:
 713:../DGC_A230_Functions/DGC_A230_Parameters_Functions.c **** 			}
 714:../DGC_A230_Functions/DGC_A230_Parameters_Functions.c **** 		}
 715:../DGC_A230_Functions/DGC_A230_Parameters_Functions.c **** 	}
 716:../DGC_A230_Functions/DGC_A230_Parameters_Functions.c **** 
 717:../DGC_A230_Functions/DGC_A230_Parameters_Functions.c **** //	R_TAU0_Channel1_Stop();								// Stop Timer channel 1
 718:../DGC_A230_Functions/DGC_A230_Parameters_Functions.c **** 
 719:../DGC_A230_Functions/DGC_A230_Parameters_Functions.c **** 	if (Parameters_Are_Changed == 1)
 3272                             		.loc 1 719 0 is_stmt 1
 3273 0650 88 08                   		mov	a, [sp+8]
 3274 0652 4C 01                   		cmp	a, #1
 3275 0654 61 E8                   		 skz
 3276 0656 EC 62 06 00             		 br	!!.L118
 720:../DGC_A230_Functions/DGC_A230_Parameters_Functions.c **** 	{
 721:../DGC_A230_Functions/DGC_A230_Parameters_Functions.c **** 		Write_Parameters_To_Flash_Memory();				// Store parameters
 3277                             		.loc 1 721 0
 3278 065a FC 00 00 00             		call	!!%code(_Write_Parameters_To_Flash_Memory)
 722:../DGC_A230_Functions/DGC_A230_Parameters_Functions.c **** 	    Calculate_CFG_Parameters();						// Calculate Working parameters
 3279                             		.loc 1 722 0
 3280 065e FC 00 00 00             		call	!!%code(_Calculate_CFG_Parameters)
 3281                             	.L118:
 723:../DGC_A230_Functions/DGC_A230_Parameters_Functions.c **** 	}
 724:../DGC_A230_Functions/DGC_A230_Parameters_Functions.c **** 
 725:../DGC_A230_Functions/DGC_A230_Parameters_Functions.c **** 	Display_Mode = NORMAL_MODE;
 3282                             		.loc 1 725 0
 3283 0662 F5 00 00                		clrb	!_Display_Mode
 726:../DGC_A230_Functions/DGC_A230_Parameters_Functions.c **** }
 3284                             		.loc 1 726 0
 3285 0665 10 0A                   		addw	sp, #10
 3286 0667 61 EF                   		sel	rb2
 3287 0669 C0                      		pop	ax ; r16
 3288 066a 61 CF                   		sel	rb0
 3289 066c D7                      		ret
 3290                             	.LFE6:
 3396                             	.Letext0:
 3397                             		.file 2 "E:/AIoT/Code/Rogger/DGC_A230_6_Rev_1_0_Software/generate/iodefine.h"
 3398                             		.file 3 "E:\\AIoT\\Code\\Rogger\\DGC_A230_6_Rev_1_0_Software\\src/r_cg_macrodriver.h"
 3399                             		.file 4 "E:\\AIoT\\Code\\Rogger\\DGC_A230_6_Rev_1_0_Software\\DGC_A230_Functions/DGC_A230_Define.h
 3400                             		.file 5 "E:\\AIoT\\Code\\Rogger\\DGC_A230_6_Rev_1_0_Software\\pfdl/pfdl_types.h"
