   1                             	r8	=	0xffef0
   2                             	r16	=	0xffee8
   3                             	r24	=	0xffee0
   4                             	r9	=	0xffef1
   5                             	r17	=	0xffee9
   6                             	r25	=	0xffee1
   7                             	r10	=	0xffef2
   8                             	r18	=	0xffeea
   9                             	r26	=	0xffee2
  10                             	r11	=	0xffef3
  11                             	r19	=	0xffeeb
  12                             	r27	=	0xffee3
  13                             	r12	=	0xffef4
  14                             	r20	=	0xffeec
  15                             	r28	=	0xffee4
  16                             	r13	=	0xffef5
  17                             	r21	=	0xffeed
  18                             	r29	=	0xffee5
  19                             	r14	=	0xffef6
  20                             	r22	=	0xffeee
  21                             	r30	=	0xffee6
  22                             	r15	=	0xffef7
  23                             	r23	=	0xffeef
  24                             	r31	=	0xffee7
  25                             	MDUC	=	0xf00e8
  26                             	MDAL	=	0xffff0
  27                             	MDAH	=	0xffff2
  28                             	MDBL	=	0xffff6
  29                             	MDBH	=	0xffff4
  30                             	MDCL	=	0xf00e0
  31                             	MDCH	=	0xf00e2
  32                             	.text
  33                             	.Ltext0:
  34                             		.global	_Leaf_No1_State
  35                             		.section	.bss.Leaf_No1_State,"aw",@nobits
  38                             	_Leaf_No1_State:
  39 0000 00                      		.zero	1
  40                             		.global	_Leaf_No2_State
  41                             		.section	.bss.Leaf_No2_State,"aw",@nobits
  44                             	_Leaf_No2_State:
  45 0000 00                      		.zero	1
  46                             		.global	_M1_Last_Time_Position
  47                             		.section	.bss.M1_Last_Time_Position,"aw",@nobits
  48                             		.balign 2
  51                             	_M1_Last_Time_Position:
  52 0000 00 00                   		.zero	2
  53                             		.global	_M2_Last_Time_Position
  54                             		.section	.bss.M2_Last_Time_Position,"aw",@nobits
  55                             		.balign 2
  58                             	_M2_Last_Time_Position:
  59 0000 00 00                   		.zero	2
  60                             		.global	_M1_Time_Position
  61                             		.section	.bss.M1_Time_Position,"aw",@nobits
  62                             		.balign 2
  65                             	_M1_Time_Position:
  66 0000 00 00                   		.zero	2
  67                             		.global	_M2_Time_Position
  68                             		.section	.bss.M2_Time_Position,"aw",@nobits
  69                             		.balign 2
  72                             	_M2_Time_Position:
  73 0000 00 00                   		.zero	2
  74                             		.comm	_Courtesy_Light_Time,2,2
  75                             		.comm	_Courtesy_Light_Count,2,2
  76                             		.global	_Courtesy_Light_Enable
  77                             		.section	.bss.Courtesy_Light_Enable,"aw",@nobits
  80                             	_Courtesy_Light_Enable:
  81 0000 00                      		.zero	1
  82                             		.comm	_Last_Open_Command_State,1,1
  83                             		.comm	_Last_Close_Command_State,1,1
  84                             		.comm	_Last_Clock_Command_State,1,1
  85                             		.global	_Gate_Open_Indicator_Mode
  86                             		.section	.bss.Gate_Open_Indicator_Mode,"aw",@nobits
  89                             	_Gate_Open_Indicator_Mode:
  90 0000 00                      		.zero	1
  91                             		.global	_Gate_Open_Indicator_Flash_Count
  92                             		.section	.bss.Gate_Open_Indicator_Flash_Count,"aw",@nobits
  95                             	_Gate_Open_Indicator_Flash_Count:
  96 0000 00                      		.zero	1
  97                             		.global	_Auto_Close_Gate_Command
  98                             		.section	.bss.Auto_Close_Gate_Command,"aw",@nobits
 101                             	_Auto_Close_Gate_Command:
 102 0000 00                      		.zero	1
 103                             		.global	_Auto_Close_Gate_Timer_Enable
 104                             		.section	.bss.Auto_Close_Gate_Timer_Enable,"aw",@nobits
 107                             	_Auto_Close_Gate_Timer_Enable:
 108 0000 00                      		.zero	1
 109                             		.global	_Auto_Close_Gate_Timer_Counter
 110                             		.section	.bss.Auto_Close_Gate_Timer_Counter,"aw",@nobits
 111                             		.balign 2
 114                             	_Auto_Close_Gate_Timer_Counter:
 115 0000 00 00                   		.zero	2
 116                             		.global	_Auto_Close_Gate_Retry_Number
 117                             		.section	.bss.Auto_Close_Gate_Retry_Number,"aw",@nobits
 120                             	_Auto_Close_Gate_Retry_Number:
 121 0000 00                      		.zero	1
 122                             		.comm	_Auto_Close_Retry_Number,1,1
 123                             		.global	_Last_Sensing_Edge_COS1_status
 124                             		.section	.bss.Last_Sensing_Edge_COS1_status,"aw",@nobits
 127                             	_Last_Sensing_Edge_COS1_status:
 128 0000 00                      		.zero	1
 129                             		.global	_Last_Sensing_Edge_COS2_status
 130                             		.section	.bss.Last_Sensing_Edge_COS2_status,"aw",@nobits
 133                             	_Last_Sensing_Edge_COS2_status:
 134 0000 00                      		.zero	1
 135                             		.section	.text.Check_Safety_Device_Status,"ax",@progbits
 136                             		.global	_Check_Safety_Device_Status
 138                             	_Check_Safety_Device_Status:
 139                             	.LFB0:
 140                             		.file 1 "../DGC_A230_Functions/DGC_A230_Normal_Mode.c"
   1:../DGC_A230_Functions/DGC_A230_Normal_Mode.c **** /*
   2:../DGC_A230_Functions/DGC_A230_Normal_Mode.c ****  * DGC_A230_Normal_Mode.c
   3:../DGC_A230_Functions/DGC_A230_Normal_Mode.c ****  *
   4:../DGC_A230_Functions/DGC_A230_Normal_Mode.c ****  *  Created on: Nov 22, 2023
   5:../DGC_A230_Functions/DGC_A230_Normal_Mode.c ****  *      Author: Mr. Han
   6:../DGC_A230_Functions/DGC_A230_Normal_Mode.c ****  */
   7:../DGC_A230_Functions/DGC_A230_Normal_Mode.c **** 
   8:../DGC_A230_Functions/DGC_A230_Normal_Mode.c **** #include "r_cg_macrodriver.h"
   9:../DGC_A230_Functions/DGC_A230_Normal_Mode.c **** #include "r_cg_userdefine.h"
  10:../DGC_A230_Functions/DGC_A230_Normal_Mode.c **** 
  11:../DGC_A230_Functions/DGC_A230_Normal_Mode.c **** #include <DGC_A230_Define.h>
  12:../DGC_A230_Functions/DGC_A230_Normal_Mode.c **** #include <Common.h>
  13:../DGC_A230_Functions/DGC_A230_Normal_Mode.c **** 
  14:../DGC_A230_Functions/DGC_A230_Normal_Mode.c **** 
  15:../DGC_A230_Functions/DGC_A230_Normal_Mode.c **** /**************************************************************************************************
  16:../DGC_A230_Functions/DGC_A230_Normal_Mode.c **** Global variables and functions
  17:../DGC_A230_Functions/DGC_A230_Normal_Mode.c **** ***************************************************************************************************
  18:../DGC_A230_Functions/DGC_A230_Normal_Mode.c **** extern uint8_t Command_Status_No1, Command_Status_No2, Safety_Status_No1, Safety_Status_No2;
  19:../DGC_A230_Functions/DGC_A230_Normal_Mode.c **** uint8_t Leaf_No1_State = GATE_STATE_UNKNOWN, Leaf_No2_State = GATE_STATE_UNKNOWN;
  20:../DGC_A230_Functions/DGC_A230_Normal_Mode.c **** extern struct Device_Config_Parameters CFG_parameter;
  21:../DGC_A230_Functions/DGC_A230_Normal_Mode.c **** extern uint8_t	M1_Timestamp, M2_Timestamp;
  22:../DGC_A230_Functions/DGC_A230_Normal_Mode.c **** extern uint16_t Key_Tick_Count;
  23:../DGC_A230_Functions/DGC_A230_Normal_Mode.c **** extern uint8_t	Pre_flash_Time;
  24:../DGC_A230_Functions/DGC_A230_Normal_Mode.c **** 
  25:../DGC_A230_Functions/DGC_A230_Normal_Mode.c **** extern uint8_t Power_failure;
  26:../DGC_A230_Functions/DGC_A230_Normal_Mode.c **** //code
  27:../DGC_A230_Functions/DGC_A230_Normal_Mode.c **** extern uint8_t Power_failure_gate_1;
  28:../DGC_A230_Functions/DGC_A230_Normal_Mode.c **** extern uint8_t Power_failure_gate_2;
  29:../DGC_A230_Functions/DGC_A230_Normal_Mode.c **** //code
  30:../DGC_A230_Functions/DGC_A230_Normal_Mode.c **** 
  31:../DGC_A230_Functions/DGC_A230_Normal_Mode.c **** uint16_t M1_Last_Time_Position = 0, M2_Last_Time_Position = 0;		// Last Gate Position in time
  32:../DGC_A230_Functions/DGC_A230_Normal_Mode.c **** uint16_t M1_Time_Position = 0, M2_Time_Position = 0;				// Gate position in time
  33:../DGC_A230_Functions/DGC_A230_Normal_Mode.c **** 
  34:../DGC_A230_Functions/DGC_A230_Normal_Mode.c **** uint16_t Courtesy_Light_Time, Courtesy_Light_Count;
  35:../DGC_A230_Functions/DGC_A230_Normal_Mode.c **** uint8_t  Courtesy_Light_Enable = 0;
  36:../DGC_A230_Functions/DGC_A230_Normal_Mode.c **** 
  37:../DGC_A230_Functions/DGC_A230_Normal_Mode.c **** extern uint8_t Machine_State;
  38:../DGC_A230_Functions/DGC_A230_Normal_Mode.c **** 
  39:../DGC_A230_Functions/DGC_A230_Normal_Mode.c **** uint8_t Last_Open_Command_State, Last_Close_Command_State, Last_Clock_Command_State;
  40:../DGC_A230_Functions/DGC_A230_Normal_Mode.c **** 
  41:../DGC_A230_Functions/DGC_A230_Normal_Mode.c **** uint8_t Gate_Open_Indicator_Mode = 0;
  42:../DGC_A230_Functions/DGC_A230_Normal_Mode.c **** uint8_t Gate_Open_Indicator_Flash_Count = 0;
  43:../DGC_A230_Functions/DGC_A230_Normal_Mode.c **** 
  44:../DGC_A230_Functions/DGC_A230_Normal_Mode.c **** uint8_t Auto_Close_Gate_Command = AUTO_CLOSE_GATE_COMMAND_OFF;
  45:../DGC_A230_Functions/DGC_A230_Normal_Mode.c **** uint8_t Auto_Close_Gate_Timer_Enable = 0;
  46:../DGC_A230_Functions/DGC_A230_Normal_Mode.c **** uint16_t Auto_Close_Gate_Timer_Counter = 0;
  47:../DGC_A230_Functions/DGC_A230_Normal_Mode.c **** uint8_t Auto_Close_Gate_Retry_Number = 0;
  48:../DGC_A230_Functions/DGC_A230_Normal_Mode.c **** uint8_t Auto_Close_Retry_Number;
  49:../DGC_A230_Functions/DGC_A230_Normal_Mode.c **** 
  50:../DGC_A230_Functions/DGC_A230_Normal_Mode.c **** uint8_t Last_Sensing_Edge_COS1_status = SENSING_EDGE_STATUS_INACTIVE, Last_Sensing_Edge_COS2_status
  51:../DGC_A230_Functions/DGC_A230_Normal_Mode.c **** 
  52:../DGC_A230_Functions/DGC_A230_Normal_Mode.c **** void Check_Safety_Device_Status(void)
  53:../DGC_A230_Functions/DGC_A230_Normal_Mode.c **** {
 141                             		.loc 1 53 0
  54:../DGC_A230_Functions/DGC_A230_Normal_Mode.c **** 	// E_STOP Emergency Stop Status
  55:../DGC_A230_Functions/DGC_A230_Normal_Mode.c **** 	if (E_STOP) SET_BIT(Command_Status_No2, BIT(0));
 142                             		.loc 1 55 0
 143 0000 C9 F0 07 FF             		movw	r8, #-249
 144 0004 AD F0                   		movw	ax, r8
 145 0006 BD F2                   		movw	r10, ax
 146 0008 FA F2                   		movw	hl, r10
 147 000a 8B                      		mov	a, [hl]
 148 000b 9D F0                   		mov	r8, a
 149 000d 31 4A                   		shr	a, 4
 150 000f 9D F0                   		mov	r8, a
 151 0011 5A F0 01                		and	r8, #1
 152 0014 61 F8                   		sknz
 153 0016 EC 2B 00 00             		 br	!!.L2
 154                             		 # zero-comparison eliminated
 155                             		.loc 1 55 0 is_stmt 0 discriminator 1
 156 001a 8F 00 00                		mov	a, !_Command_Status_No2
 157 001d 9D F0                   		mov	r8, a
 158 001f 6A F0 01                		or	r8, #1
 159 0022 8D F0                   		mov	a, r8
 160 0024 9F 00 00                		mov	!_Command_Status_No2, a
 161 0027 EC 38 00 00             		br	!!.L3
 162                             	.L2:
  56:../DGC_A230_Functions/DGC_A230_Normal_Mode.c **** 	else CLEAR_BIT(Command_Status_No2, BIT(0));
 163                             		.loc 1 56 0 is_stmt 1
 164 002b 8F 00 00                		mov	a, !_Command_Status_No2
 165 002e 9D F0                   		mov	r8, a
 166 0030 5A F0 FE                		and	r8, #-2
 167 0033 8D F0                   		mov	a, r8
 168 0035 9F 00 00                		mov	!_Command_Status_No2, a
 169                             	.L3:
  57:../DGC_A230_Functions/DGC_A230_Normal_Mode.c **** 
  58:../DGC_A230_Functions/DGC_A230_Normal_Mode.c **** 	// Photo cell FT1 Status
  59:../DGC_A230_Functions/DGC_A230_Normal_Mode.c **** 	if (FT1) SET_BIT(Safety_Status_No1, BIT(7));
 170                             		.loc 1 59 0
 171 0038 C9 F0 07 FF             		movw	r8, #-249
 172 003c AD F0                   		movw	ax, r8
 173 003e BD F2                   		movw	r10, ax
 174 0040 FA F2                   		movw	hl, r10
 175 0042 8B                      		mov	a, [hl]
 176 0043 9D F0                   		mov	r8, a
 177 0045 31 1A                   		shr	a, 1
 178 0047 9D F0                   		mov	r8, a
 179 0049 5A F0 01                		and	r8, #1
 180 004c 61 F8                   		sknz
 181 004e EC 63 00 00             		 br	!!.L4
 182                             		 # zero-comparison eliminated
 183                             		.loc 1 59 0 is_stmt 0 discriminator 1
 184 0052 8F 00 00                		mov	a, !_Safety_Status_No1
 185 0055 9D F0                   		mov	r8, a
 186 0057 6A F0 80                		or	r8, #-128
 187 005a 8D F0                   		mov	a, r8
 188 005c 9F 00 00                		mov	!_Safety_Status_No1, a
 189 005f EC 70 00 00             		br	!!.L5
 190                             	.L4:
  60:../DGC_A230_Functions/DGC_A230_Normal_Mode.c **** 	else CLEAR_BIT(Safety_Status_No1, BIT(7));
 191                             		.loc 1 60 0 is_stmt 1
 192 0063 8F 00 00                		mov	a, !_Safety_Status_No1
 193 0066 9D F0                   		mov	r8, a
 194 0068 5A F0 7F                		and	r8, #127
 195 006b 8D F0                   		mov	a, r8
 196 006d 9F 00 00                		mov	!_Safety_Status_No1, a
 197                             	.L5:
  61:../DGC_A230_Functions/DGC_A230_Normal_Mode.c **** 
  62:../DGC_A230_Functions/DGC_A230_Normal_Mode.c **** 	// COS1 sensing edge Status
  63:../DGC_A230_Functions/DGC_A230_Normal_Mode.c **** 	if (COS1) SET_BIT(Safety_Status_No1, BIT(1));
 198                             		.loc 1 63 0
 199 0070 C9 F0 07 FF             		movw	r8, #-249
 200 0074 AD F0                   		movw	ax, r8
 201 0076 BD F2                   		movw	r10, ax
 202 0078 FA F2                   		movw	hl, r10
 203 007a 8B                      		mov	a, [hl]
 204 007b 9D F0                   		mov	r8, a
 205 007d 31 3A                   		shr	a, 3
 206 007f 9D F0                   		mov	r8, a
 207 0081 5A F0 01                		and	r8, #1
 208 0084 61 F8                   		sknz
 209 0086 EC 9B 00 00             		 br	!!.L6
 210                             		 # zero-comparison eliminated
 211                             		.loc 1 63 0 is_stmt 0 discriminator 1
 212 008a 8F 00 00                		mov	a, !_Safety_Status_No1
 213 008d 9D F0                   		mov	r8, a
 214 008f 6A F0 02                		or	r8, #2
 215 0092 8D F0                   		mov	a, r8
 216 0094 9F 00 00                		mov	!_Safety_Status_No1, a
 217 0097 EC A8 00 00             		br	!!.L7
 218                             	.L6:
  64:../DGC_A230_Functions/DGC_A230_Normal_Mode.c **** 	else CLEAR_BIT(Safety_Status_No1, BIT(1));
 219                             		.loc 1 64 0 is_stmt 1
 220 009b 8F 00 00                		mov	a, !_Safety_Status_No1
 221 009e 9D F0                   		mov	r8, a
 222 00a0 5A F0 FD                		and	r8, #-3
 223 00a3 8D F0                   		mov	a, r8
 224 00a5 9F 00 00                		mov	!_Safety_Status_No1, a
 225                             	.L7:
  65:../DGC_A230_Functions/DGC_A230_Normal_Mode.c **** 
  66:../DGC_A230_Functions/DGC_A230_Normal_Mode.c **** 	// FCA1 Gate Open limit switches LEAF#1 Status
  67:../DGC_A230_Functions/DGC_A230_Normal_Mode.c **** 	if (FCA1_IN) SET_BIT(Safety_Status_No1, BIT(3));
 226                             		.loc 1 67 0
 227 00a8 C9 F0 04 FF             		movw	r8, #-252
 228 00ac AD F0                   		movw	ax, r8
 229 00ae BD F2                   		movw	r10, ax
 230 00b0 FA F2                   		movw	hl, r10
 231 00b2 8B                      		mov	a, [hl]
 232 00b3 9D F0                   		mov	r8, a
 233 00b5 31 1A                   		shr	a, 1
 234 00b7 9D F0                   		mov	r8, a
 235 00b9 5A F0 01                		and	r8, #1
 236 00bc 61 F8                   		sknz
 237 00be EC D3 00 00             		 br	!!.L8
 238                             		 # zero-comparison eliminated
 239                             		.loc 1 67 0 is_stmt 0 discriminator 1
 240 00c2 8F 00 00                		mov	a, !_Safety_Status_No1
 241 00c5 9D F0                   		mov	r8, a
 242 00c7 6A F0 08                		or	r8, #8
 243 00ca 8D F0                   		mov	a, r8
 244 00cc 9F 00 00                		mov	!_Safety_Status_No1, a
 245 00cf EC E0 00 00             		br	!!.L9
 246                             	.L8:
  68:../DGC_A230_Functions/DGC_A230_Normal_Mode.c **** 	else CLEAR_BIT(Safety_Status_No1, BIT(3));
 247                             		.loc 1 68 0 is_stmt 1
 248 00d3 8F 00 00                		mov	a, !_Safety_Status_No1
 249 00d6 9D F0                   		mov	r8, a
 250 00d8 5A F0 F7                		and	r8, #-9
 251 00db 8D F0                   		mov	a, r8
 252 00dd 9F 00 00                		mov	!_Safety_Status_No1, a
 253                             	.L9:
  69:../DGC_A230_Functions/DGC_A230_Normal_Mode.c **** 
  70:../DGC_A230_Functions/DGC_A230_Normal_Mode.c **** 	// FCC1 Gate Close limit switches LEAF#1 Status
  71:../DGC_A230_Functions/DGC_A230_Normal_Mode.c **** 	if (FCC1_IN) SET_BIT(Safety_Status_No1, BIT(5));
 254                             		.loc 1 71 0
 255 00e0 C9 F0 04 FF             		movw	r8, #-252
 256 00e4 AD F0                   		movw	ax, r8
 257 00e6 BD F2                   		movw	r10, ax
 258 00e8 FA F2                   		movw	hl, r10
 259 00ea 8B                      		mov	a, [hl]
 260 00eb 9D F0                   		mov	r8, a
 261 00ed 31 2A                   		shr	a, 2
 262 00ef 9D F0                   		mov	r8, a
 263 00f1 5A F0 01                		and	r8, #1
 264 00f4 61 F8                   		sknz
 265 00f6 EC 0B 01 00             		 br	!!.L10
 266                             		 # zero-comparison eliminated
 267                             		.loc 1 71 0 is_stmt 0 discriminator 1
 268 00fa 8F 00 00                		mov	a, !_Safety_Status_No1
 269 00fd 9D F0                   		mov	r8, a
 270 00ff 6A F0 20                		or	r8, #32
 271 0102 8D F0                   		mov	a, r8
 272 0104 9F 00 00                		mov	!_Safety_Status_No1, a
 273 0107 EC 18 01 00             		br	!!.L11
 274                             	.L10:
  72:../DGC_A230_Functions/DGC_A230_Normal_Mode.c **** 	else CLEAR_BIT(Safety_Status_No1, BIT(5));
 275                             		.loc 1 72 0 is_stmt 1
 276 010b 8F 00 00                		mov	a, !_Safety_Status_No1
 277 010e 9D F0                   		mov	r8, a
 278 0110 5A F0 DF                		and	r8, #-33
 279 0113 8D F0                   		mov	a, r8
 280 0115 9F 00 00                		mov	!_Safety_Status_No1, a
 281                             	.L11:
  73:../DGC_A230_Functions/DGC_A230_Normal_Mode.c **** 
  74:../DGC_A230_Functions/DGC_A230_Normal_Mode.c **** 	// ENC1 Encoder Motor#1 Status
  75:../DGC_A230_Functions/DGC_A230_Normal_Mode.c **** 	if (ENC1) SET_BIT(Safety_Status_No1, BIT(0));
 282                             		.loc 1 75 0
 283 0118 C9 F0 05 FF             		movw	r8, #-251
 284 011c AD F0                   		movw	ax, r8
 285 011e BD F2                   		movw	r10, ax
 286 0120 EA F2                   		movw	de, r10
 287 0122 89                      		mov	a, [de]
 288 0123 5C 01                   		and	a, #1
 289 0125 9D F0                   		mov	r8, a
 290 0127 D4 F0                   		cmp0	r8
 291 0129 61 F8                   		 sknz
 292 012b EC 40 01 00             		 br	!!.L12
 293                             		.loc 1 75 0 is_stmt 0 discriminator 1
 294 012f 8F 00 00                		mov	a, !_Safety_Status_No1
 295 0132 9D F0                   		mov	r8, a
 296 0134 6A F0 01                		or	r8, #1
 297 0137 8D F0                   		mov	a, r8
 298 0139 9F 00 00                		mov	!_Safety_Status_No1, a
 299 013c EC 4D 01 00             		br	!!.L13
 300                             	.L12:
  76:../DGC_A230_Functions/DGC_A230_Normal_Mode.c **** 	else CLEAR_BIT(Safety_Status_No1, BIT(0));
 301                             		.loc 1 76 0 is_stmt 1
 302 0140 8F 00 00                		mov	a, !_Safety_Status_No1
 303 0143 9D F0                   		mov	r8, a
 304 0145 5A F0 FE                		and	r8, #-2
 305 0148 8D F0                   		mov	a, r8
 306 014a 9F 00 00                		mov	!_Safety_Status_No1, a
 307                             	.L13:
  77:../DGC_A230_Functions/DGC_A230_Normal_Mode.c **** 
  78:../DGC_A230_Functions/DGC_A230_Normal_Mode.c **** 	// Photo cell FT2 Status
  79:../DGC_A230_Functions/DGC_A230_Normal_Mode.c **** 	if (FT2) SET_BIT(Safety_Status_No2, BIT(7));
 308                             		.loc 1 79 0
 309 014d C9 F0 07 FF             		movw	r8, #-249
 310 0151 AD F0                   		movw	ax, r8
 311 0153 BD F2                   		movw	r10, ax
 312 0155 EA F2                   		movw	de, r10
 313 0157 89                      		mov	a, [de]
 314 0158 5C 01                   		and	a, #1
 315 015a 9D F0                   		mov	r8, a
 316 015c D4 F0                   		cmp0	r8
 317 015e 61 F8                   		 sknz
 318 0160 EC 75 01 00             		 br	!!.L14
 319                             		.loc 1 79 0 is_stmt 0 discriminator 1
 320 0164 8F 00 00                		mov	a, !_Safety_Status_No2
 321 0167 9D F0                   		mov	r8, a
 322 0169 6A F0 80                		or	r8, #-128
 323 016c 8D F0                   		mov	a, r8
 324 016e 9F 00 00                		mov	!_Safety_Status_No2, a
 325 0171 EC 82 01 00             		br	!!.L15
 326                             	.L14:
  80:../DGC_A230_Functions/DGC_A230_Normal_Mode.c **** 	else CLEAR_BIT(Safety_Status_No2, BIT(7));
 327                             		.loc 1 80 0 is_stmt 1
 328 0175 8F 00 00                		mov	a, !_Safety_Status_No2
 329 0178 9D F0                   		mov	r8, a
 330 017a 5A F0 7F                		and	r8, #127
 331 017d 8D F0                   		mov	a, r8
 332 017f 9F 00 00                		mov	!_Safety_Status_No2, a
 333                             	.L15:
  81:../DGC_A230_Functions/DGC_A230_Normal_Mode.c **** 
  82:../DGC_A230_Functions/DGC_A230_Normal_Mode.c **** 	// COS2 sensing edge Status
  83:../DGC_A230_Functions/DGC_A230_Normal_Mode.c **** 	if (COS2) SET_BIT(Safety_Status_No2, BIT(1));
 334                             		.loc 1 83 0
 335 0182 C9 F0 07 FF             		movw	r8, #-249
 336 0186 AD F0                   		movw	ax, r8
 337 0188 BD F2                   		movw	r10, ax
 338 018a FA F2                   		movw	hl, r10
 339 018c 8B                      		mov	a, [hl]
 340 018d 9D F0                   		mov	r8, a
 341 018f 31 2A                   		shr	a, 2
 342 0191 9D F0                   		mov	r8, a
 343 0193 5A F0 01                		and	r8, #1
 344 0196 61 F8                   		sknz
 345 0198 EC AD 01 00             		 br	!!.L16
 346                             		 # zero-comparison eliminated
 347                             		.loc 1 83 0 is_stmt 0 discriminator 1
 348 019c 8F 00 00                		mov	a, !_Safety_Status_No2
 349 019f 9D F0                   		mov	r8, a
 350 01a1 6A F0 02                		or	r8, #2
 351 01a4 8D F0                   		mov	a, r8
 352 01a6 9F 00 00                		mov	!_Safety_Status_No2, a
 353 01a9 EC BA 01 00             		br	!!.L17
 354                             	.L16:
  84:../DGC_A230_Functions/DGC_A230_Normal_Mode.c **** 	else CLEAR_BIT(Safety_Status_No2, BIT(1));
 355                             		.loc 1 84 0 is_stmt 1
 356 01ad 8F 00 00                		mov	a, !_Safety_Status_No2
 357 01b0 9D F0                   		mov	r8, a
 358 01b2 5A F0 FD                		and	r8, #-3
 359 01b5 8D F0                   		mov	a, r8
 360 01b7 9F 00 00                		mov	!_Safety_Status_No2, a
 361                             	.L17:
  85:../DGC_A230_Functions/DGC_A230_Normal_Mode.c **** 
  86:../DGC_A230_Functions/DGC_A230_Normal_Mode.c **** 	// FCA2 Gate Open limit switches LEAF#1 Status
  87:../DGC_A230_Functions/DGC_A230_Normal_Mode.c **** 	if (FCA2_IN) SET_BIT(Safety_Status_No2, BIT(3));
 362                             		.loc 1 87 0
 363 01ba C9 F0 04 FF             		movw	r8, #-252
 364 01be AD F0                   		movw	ax, r8
 365 01c0 BD F2                   		movw	r10, ax
 366 01c2 FA F2                   		movw	hl, r10
 367 01c4 8B                      		mov	a, [hl]
 368 01c5 9D F0                   		mov	r8, a
 369 01c7 31 3A                   		shr	a, 3
 370 01c9 9D F0                   		mov	r8, a
 371 01cb 5A F0 01                		and	r8, #1
 372 01ce 61 F8                   		sknz
 373 01d0 EC E5 01 00             		 br	!!.L18
 374                             		 # zero-comparison eliminated
 375                             		.loc 1 87 0 is_stmt 0 discriminator 1
 376 01d4 8F 00 00                		mov	a, !_Safety_Status_No2
 377 01d7 9D F0                   		mov	r8, a
 378 01d9 6A F0 08                		or	r8, #8
 379 01dc 8D F0                   		mov	a, r8
 380 01de 9F 00 00                		mov	!_Safety_Status_No2, a
 381 01e1 EC F2 01 00             		br	!!.L19
 382                             	.L18:
  88:../DGC_A230_Functions/DGC_A230_Normal_Mode.c **** 	else CLEAR_BIT(Safety_Status_No2, BIT(3));
 383                             		.loc 1 88 0 is_stmt 1
 384 01e5 8F 00 00                		mov	a, !_Safety_Status_No2
 385 01e8 9D F0                   		mov	r8, a
 386 01ea 5A F0 F7                		and	r8, #-9
 387 01ed 8D F0                   		mov	a, r8
 388 01ef 9F 00 00                		mov	!_Safety_Status_No2, a
 389                             	.L19:
  89:../DGC_A230_Functions/DGC_A230_Normal_Mode.c **** 
  90:../DGC_A230_Functions/DGC_A230_Normal_Mode.c **** 	// FCC2 Gate Close limit switches LEAF#1 Status
  91:../DGC_A230_Functions/DGC_A230_Normal_Mode.c **** 	if (FCC2_IN) SET_BIT(Safety_Status_No2, BIT(5));
 390                             		.loc 1 91 0
 391 01f2 C9 F0 0C FF             		movw	r8, #-244
 392 01f6 AD F0                   		movw	ax, r8
 393 01f8 BD F2                   		movw	r10, ax
 394 01fa EA F2                   		movw	de, r10
 395 01fc 89                      		mov	a, [de]
 396 01fd 5C 01                   		and	a, #1
 397 01ff 9D F0                   		mov	r8, a
 398 0201 D4 F0                   		cmp0	r8
 399 0203 61 F8                   		 sknz
 400 0205 EC 1A 02 00             		 br	!!.L20
 401                             		.loc 1 91 0 is_stmt 0 discriminator 1
 402 0209 8F 00 00                		mov	a, !_Safety_Status_No2
 403 020c 9D F0                   		mov	r8, a
 404 020e 6A F0 20                		or	r8, #32
 405 0211 8D F0                   		mov	a, r8
 406 0213 9F 00 00                		mov	!_Safety_Status_No2, a
 407 0216 EC 27 02 00             		br	!!.L21
 408                             	.L20:
  92:../DGC_A230_Functions/DGC_A230_Normal_Mode.c **** 	else CLEAR_BIT(Safety_Status_No2, BIT(5));
 409                             		.loc 1 92 0 is_stmt 1
 410 021a 8F 00 00                		mov	a, !_Safety_Status_No2
 411 021d 9D F0                   		mov	r8, a
 412 021f 5A F0 DF                		and	r8, #-33
 413 0222 8D F0                   		mov	a, r8
 414 0224 9F 00 00                		mov	!_Safety_Status_No2, a
 415                             	.L21:
  93:../DGC_A230_Functions/DGC_A230_Normal_Mode.c **** 
  94:../DGC_A230_Functions/DGC_A230_Normal_Mode.c **** 	// ENC2 Encoder Motor#2 Status
  95:../DGC_A230_Functions/DGC_A230_Normal_Mode.c **** 	if (ENC2) SET_BIT(Safety_Status_No2, BIT(0));
 416                             		.loc 1 95 0
 417 0227 C9 F0 05 FF             		movw	r8, #-251
 418 022b AD F0                   		movw	ax, r8
 419 022d BD F2                   		movw	r10, ax
 420 022f FA F2                   		movw	hl, r10
 421 0231 8B                      		mov	a, [hl]
 422 0232 9D F0                   		mov	r8, a
 423 0234 31 1A                   		shr	a, 1
 424 0236 9D F0                   		mov	r8, a
 425 0238 5A F0 01                		and	r8, #1
 426 023b 61 F8                   		sknz
 427 023d EC 52 02 00             		 br	!!.L22
 428                             		 # zero-comparison eliminated
 429                             		.loc 1 95 0 is_stmt 0 discriminator 1
 430 0241 8F 00 00                		mov	a, !_Safety_Status_No2
 431 0244 9D F0                   		mov	r8, a
 432 0246 6A F0 01                		or	r8, #1
 433 0249 8D F0                   		mov	a, r8
 434 024b 9F 00 00                		mov	!_Safety_Status_No2, a
 435 024e EC 5F 02 00             		br	!!.L23
 436                             	.L22:
  96:../DGC_A230_Functions/DGC_A230_Normal_Mode.c **** 	else CLEAR_BIT(Safety_Status_No2, BIT(0));
 437                             		.loc 1 96 0 is_stmt 1
 438 0252 8F 00 00                		mov	a, !_Safety_Status_No2
 439 0255 9D F0                   		mov	r8, a
 440 0257 5A F0 FE                		and	r8, #-2
 441 025a 8D F0                   		mov	a, r8
 442 025c 9F 00 00                		mov	!_Safety_Status_No2, a
 443                             	.L23:
  97:../DGC_A230_Functions/DGC_A230_Normal_Mode.c **** 
  98:../DGC_A230_Functions/DGC_A230_Normal_Mode.c **** 	// AP Input Command
  99:../DGC_A230_Functions/DGC_A230_Normal_Mode.c **** 	if (!AP_IN) SET_BIT(Command_Status_No1, BIT(7));
 444                             		.loc 1 99 0
 445 025f C9 F0 06 FF             		movw	r8, #-250
 446 0263 AD F0                   		movw	ax, r8
 447 0265 BD F2                   		movw	r10, ax
 448 0267 FA F2                   		movw	hl, r10
 449 0269 8B                      		mov	a, [hl]
 450 026a 9D F0                   		mov	r8, a
 451 026c 31 3A                   		shr	a, 3
 452 026e 9D F0                   		mov	r8, a
 453 0270 5A F0 01                		and	r8, #1
 454 0273 61 E8                   		skz
 455 0275 EC 8A 02 00             		 br	!!.L24
 456                             		 # zero-comparison eliminated
 457                             		.loc 1 99 0 is_stmt 0 discriminator 1
 458 0279 8F 00 00                		mov	a, !_Command_Status_No1
 459 027c 9D F0                   		mov	r8, a
 460 027e 6A F0 80                		or	r8, #-128
 461 0281 8D F0                   		mov	a, r8
 462 0283 9F 00 00                		mov	!_Command_Status_No1, a
 463 0286 EC 97 02 00             		br	!!.L25
 464                             	.L24:
 100:../DGC_A230_Functions/DGC_A230_Normal_Mode.c **** 	else CLEAR_BIT(Command_Status_No1, BIT(7));
 465                             		.loc 1 100 0 is_stmt 1
 466 028a 8F 00 00                		mov	a, !_Command_Status_No1
 467 028d 9D F0                   		mov	r8, a
 468 028f 5A F0 7F                		and	r8, #127
 469 0292 8D F0                   		mov	a, r8
 470 0294 9F 00 00                		mov	!_Command_Status_No1, a
 471                             	.L25:
 101:../DGC_A230_Functions/DGC_A230_Normal_Mode.c **** 
 102:../DGC_A230_Functions/DGC_A230_Normal_Mode.c **** 	// CH Input Command
 103:../DGC_A230_Functions/DGC_A230_Normal_Mode.c **** 	if (!CH_IN) SET_BIT(Command_Status_No1, BIT(4));
 472                             		.loc 1 103 0
 473 0297 C9 F0 06 FF             		movw	r8, #-250
 474 029b AD F0                   		movw	ax, r8
 475 029d BD F2                   		movw	r10, ax
 476 029f FA F2                   		movw	hl, r10
 477 02a1 8B                      		mov	a, [hl]
 478 02a2 9D F0                   		mov	r8, a
 479 02a4 31 2A                   		shr	a, 2
 480 02a6 9D F0                   		mov	r8, a
 481 02a8 5A F0 01                		and	r8, #1
 482 02ab 61 E8                   		skz
 483 02ad EC C2 02 00             		 br	!!.L26
 484                             		 # zero-comparison eliminated
 485                             		.loc 1 103 0 is_stmt 0 discriminator 1
 486 02b1 8F 00 00                		mov	a, !_Command_Status_No1
 487 02b4 9D F0                   		mov	r8, a
 488 02b6 6A F0 10                		or	r8, #16
 489 02b9 8D F0                   		mov	a, r8
 490 02bb 9F 00 00                		mov	!_Command_Status_No1, a
 491 02be EC CF 02 00             		br	!!.L27
 492                             	.L26:
 104:../DGC_A230_Functions/DGC_A230_Normal_Mode.c **** 	else CLEAR_BIT(Command_Status_No1, BIT(4));
 493                             		.loc 1 104 0 is_stmt 1
 494 02c2 8F 00 00                		mov	a, !_Command_Status_No1
 495 02c5 9D F0                   		mov	r8, a
 496 02c7 5A F0 EF                		and	r8, #-17
 497 02ca 8D F0                   		mov	a, r8
 498 02cc 9F 00 00                		mov	!_Command_Status_No1, a
 499                             	.L27:
 105:../DGC_A230_Functions/DGC_A230_Normal_Mode.c **** 
 106:../DGC_A230_Functions/DGC_A230_Normal_Mode.c **** 	// PED Input Command
 107:../DGC_A230_Functions/DGC_A230_Normal_Mode.c **** 	if (!PED_IN) SET_BIT(Command_Status_No1, BIT(1));
 500                             		.loc 1 107 0
 501 02cf C9 F0 06 FF             		movw	r8, #-250
 502 02d3 AD F0                   		movw	ax, r8
 503 02d5 BD F2                   		movw	r10, ax
 504 02d7 EA F2                   		movw	de, r10
 505 02d9 89                      		mov	a, [de]
 506 02da 5C 01                   		and	a, #1
 507 02dc 9D F0                   		mov	r8, a
 508 02de D4 F0                   		cmp0	r8
 509 02e0 61 E8                   		 skz
 510 02e2 EC F7 02 00             		 br	!!.L28
 511                             		.loc 1 107 0 is_stmt 0 discriminator 1
 512 02e6 8F 00 00                		mov	a, !_Command_Status_No1
 513 02e9 9D F0                   		mov	r8, a
 514 02eb 6A F0 02                		or	r8, #2
 515 02ee 8D F0                   		mov	a, r8
 516 02f0 9F 00 00                		mov	!_Command_Status_No1, a
 517 02f3 EC 04 03 00             		br	!!.L29
 518                             	.L28:
 108:../DGC_A230_Functions/DGC_A230_Normal_Mode.c **** 	else CLEAR_BIT(Command_Status_No1, BIT(1));
 519                             		.loc 1 108 0 is_stmt 1
 520 02f7 8F 00 00                		mov	a, !_Command_Status_No1
 521 02fa 9D F0                   		mov	r8, a
 522 02fc 5A F0 FD                		and	r8, #-3
 523 02ff 8D F0                   		mov	a, r8
 524 0301 9F 00 00                		mov	!_Command_Status_No1, a
 525                             	.L29:
 109:../DGC_A230_Functions/DGC_A230_Normal_Mode.c **** 
 110:../DGC_A230_Functions/DGC_A230_Normal_Mode.c **** 	// PP Input Command
 111:../DGC_A230_Functions/DGC_A230_Normal_Mode.c **** 	if (!PP_IN) SET_BIT(Command_Status_No2, BIT(7));
 526                             		.loc 1 111 0
 527 0304 C9 F0 06 FF             		movw	r8, #-250
 528 0308 AD F0                   		movw	ax, r8
 529 030a BD F2                   		movw	r10, ax
 530 030c FA F2                   		movw	hl, r10
 531 030e 8B                      		mov	a, [hl]
 532 030f 9D F0                   		mov	r8, a
 533 0311 31 1A                   		shr	a, 1
 534 0313 9D F0                   		mov	r8, a
 535 0315 5A F0 01                		and	r8, #1
 536 0318 61 E8                   		skz
 537 031a EC 2F 03 00             		 br	!!.L30
 538                             		 # zero-comparison eliminated
 539                             		.loc 1 111 0 is_stmt 0 discriminator 1
 540 031e 8F 00 00                		mov	a, !_Command_Status_No2
 541 0321 9D F0                   		mov	r8, a
 542 0323 6A F0 80                		or	r8, #-128
 543 0326 8D F0                   		mov	a, r8
 544 0328 9F 00 00                		mov	!_Command_Status_No2, a
 545 032b EC 3C 03 00             		br	!!.L31
 546                             	.L30:
 112:../DGC_A230_Functions/DGC_A230_Normal_Mode.c **** 	else CLEAR_BIT(Command_Status_No2, BIT(7));
 547                             		.loc 1 112 0 is_stmt 1
 548 032f 8F 00 00                		mov	a, !_Command_Status_No2
 549 0332 9D F0                   		mov	r8, a
 550 0334 5A F0 7F                		and	r8, #127
 551 0337 8D F0                   		mov	a, r8
 552 0339 9F 00 00                		mov	!_Command_Status_No2, a
 553                             	.L31:
 113:../DGC_A230_Functions/DGC_A230_Normal_Mode.c **** 
 114:../DGC_A230_Functions/DGC_A230_Normal_Mode.c **** 	// ORO Input Command
 115:../DGC_A230_Functions/DGC_A230_Normal_Mode.c **** 	if (!ORO_IN) SET_BIT(Command_Status_No2, BIT(4));
 554                             		.loc 1 115 0
 555 033c C9 F0 03 FF             		movw	r8, #-253
 556 0340 AD F0                   		movw	ax, r8
 557 0342 BD F2                   		movw	r10, ax
 558 0344 FA F2                   		movw	hl, r10
 559 0346 8B                      		mov	a, [hl]
 560 0347 9D F0                   		mov	r8, a
 561 0349 31 1A                   		shr	a, 1
 562 034b 9D F0                   		mov	r8, a
 563 034d 5A F0 01                		and	r8, #1
 564 0350 61 E8                   		skz
 565 0352 EC 67 03 00             		 br	!!.L32
 566                             		 # zero-comparison eliminated
 567                             		.loc 1 115 0 is_stmt 0 discriminator 1
 568 0356 8F 00 00                		mov	a, !_Command_Status_No2
 569 0359 9D F0                   		mov	r8, a
 570 035b 6A F0 10                		or	r8, #16
 571 035e 8D F0                   		mov	a, r8
 572 0360 9F 00 00                		mov	!_Command_Status_No2, a
 573 0363 EC 74 03 00             		br	!!.L1
 574                             	.L32:
 116:../DGC_A230_Functions/DGC_A230_Normal_Mode.c **** 	else CLEAR_BIT(Command_Status_No2, BIT(4));
 575                             		.loc 1 116 0 is_stmt 1
 576 0367 8F 00 00                		mov	a, !_Command_Status_No2
 577 036a 9D F0                   		mov	r8, a
 578 036c 5A F0 EF                		and	r8, #-17
 579 036f 8D F0                   		mov	a, r8
 580 0371 9F 00 00                		mov	!_Command_Status_No2, a
 581                             	.L1:
 117:../DGC_A230_Functions/DGC_A230_Normal_Mode.c **** }
 582                             		.loc 1 117 0
 583 0374 D7                      		ret
 584                             	.LFE0:
 586                             		.section	.text.Courtesy_Light_After_Maneuver_Is_Complete,"ax",@progbits
 587                             		.global	_Courtesy_Light_After_Maneuver_Is_Complete
 589                             	_Courtesy_Light_After_Maneuver_Is_Complete:
 590                             	.LFB1:
 118:../DGC_A230_Functions/DGC_A230_Normal_Mode.c **** 
 119:../DGC_A230_Functions/DGC_A230_Normal_Mode.c **** void Courtesy_Light_After_Maneuver_Is_Complete (void)
 120:../DGC_A230_Functions/DGC_A230_Normal_Mode.c **** {
 591                             		.loc 1 120 0
 121:../DGC_A230_Functions/DGC_A230_Normal_Mode.c **** 	Courtesy_Light_Enable = 0;
 592                             		.loc 1 121 0
 593 0000 F5 00 00                		clrb	!_Courtesy_Light_Enable
 122:../DGC_A230_Functions/DGC_A230_Normal_Mode.c **** 	if (CFG_parameter.Courtery_Light_Mode >= 3)
 594                             		.loc 1 122 0
 595 0003 8F 00 00                		mov	a, !_CFG_parameter+54
 596 0006 9D F0                   		mov	r8, a
 597 0008 4A F0 02                		cmp	r8, #2
 598 000b 61 E3                   		 skh
 599 000d EC 7F 00 00             		 br	!!.L35
 123:../DGC_A230_Functions/DGC_A230_Normal_Mode.c **** 	{
 124:../DGC_A230_Functions/DGC_A230_Normal_Mode.c **** 		Courtesy_Light_Enable = 1;
 600                             		.loc 1 124 0
 601 0011 E5 00 00                		oneb	!_Courtesy_Light_Enable
 125:../DGC_A230_Functions/DGC_A230_Normal_Mode.c **** 		if (CFG_parameter.Courtery_Light_Mode <= 91)
 602                             		.loc 1 125 0
 603 0014 8F 00 00                		mov	a, !_CFG_parameter+54
 604 0017 9D F0                   		mov	r8, a
 605 0019 4A F0 5B                		cmp	r8, #91
 606 001c 61 F3                   		 sknh
 607 001e EC 35 00 00             		 br	!!.L36
 126:../DGC_A230_Functions/DGC_A230_Normal_Mode.c **** 		{
 127:../DGC_A230_Functions/DGC_A230_Normal_Mode.c **** 			Courtesy_Light_Time = CFG_parameter.Courtery_Light_Mode * 2;
 608                             		.loc 1 127 0
 609 0022 8F 00 00                		mov	a, !_CFG_parameter+54
 610 0025 9D F0                   		mov	r8, a
 611 0027 F4 F1                   		clrb	r9
 612 0029 AD F0                   		movw	ax, r8
 613 002b 01                      		addw	ax, ax
 614 002c BD F0                   		movw	r8, ax
 615 002e BF 00 00                		movw	!_Courtesy_Light_Time, ax
 616 0031 EC 60 00 00             		br	!!.L37
 617                             	.L36:
 128:../DGC_A230_Functions/DGC_A230_Normal_Mode.c **** 		}
 129:../DGC_A230_Functions/DGC_A230_Normal_Mode.c **** 		else if (CFG_parameter.Courtery_Light_Mode >= 92)
 618                             		.loc 1 129 0
 619 0035 8F 00 00                		mov	a, !_CFG_parameter+54
 620 0038 9D F0                   		mov	r8, a
 621 003a 4A F0 5B                		cmp	r8, #91
 622 003d 61 E3                   		 skh
 623 003f EC 60 00 00             		 br	!!.L37
 130:../DGC_A230_Functions/DGC_A230_Normal_Mode.c **** 		{
 131:../DGC_A230_Functions/DGC_A230_Normal_Mode.c **** 			Courtesy_Light_Time = (CFG_parameter.Courtery_Light_Mode - 90) * 60 *2;
 624                             		.loc 1 131 0
 625 0043 8F 00 00                		mov	a, !_CFG_parameter+54
 626 0046 9D F0                   		mov	r8, a
 627 0048 F4 F1                   		clrb	r9
 628 004a AD F0                   		movw	ax, r8
 629 004c 04 A6 FF                		addw	ax, #-90
 630 004f BD F0                   		movw	r8, ax
 631 0051 31 3D                   		shlw	ax, 3
 632 0053 BD F0                   		movw	r8, ax
 633 0055 31 4D                   		shlw	ax, 4
 634 0057 BD F2                   		movw	r10, ax
 635 0059 26 F0                   		subw	ax, r8
 636 005b BD F0                   		movw	r8, ax
 637 005d BF 00 00                		movw	!_Courtesy_Light_Time, ax
 638                             	.L37:
 132:../DGC_A230_Functions/DGC_A230_Normal_Mode.c **** 		}
 133:../DGC_A230_Functions/DGC_A230_Normal_Mode.c **** 		COURTESY = 1;
 639                             		.loc 1 133 0
 640 0060 C9 F0 02 FF             		movw	r8, #-254
 641 0064 AD F0                   		movw	ax, r8
 642 0066 BD F4                   		movw	r12, ax
 643 0068 FA F4                   		movw	hl, r12
 644 006a 8B                      		mov	a, [hl]
 645 006b 9D F2                   		mov	r10, a
 646 006d 6A F2 01                		or	r10, #1
 647 0070 AD F0                   		movw	ax, r8
 648 0072 EA F4                   		movw	de, r12
 649 0074 8D F2                   		mov	a, r10
 650 0076 99                      		mov	[de], a
 134:../DGC_A230_Functions/DGC_A230_Normal_Mode.c **** 		Courtesy_Light_Count = 0;
 651                             		.loc 1 134 0
 652 0077 F6                      		clrw	ax
 653 0078 BF 00 00                		movw	!_Courtesy_Light_Count, ax
 654 007b EC 96 00 00             		br	!!.L34
 655                             	.L35:
 135:../DGC_A230_Functions/DGC_A230_Normal_Mode.c **** 	}
 136:../DGC_A230_Functions/DGC_A230_Normal_Mode.c **** 	else
 137:../DGC_A230_Functions/DGC_A230_Normal_Mode.c **** 	{
 138:../DGC_A230_Functions/DGC_A230_Normal_Mode.c **** 		COURTESY = 0;
 656                             		.loc 1 138 0
 657 007f C9 F0 02 FF             		movw	r8, #-254
 658 0083 AD F0                   		movw	ax, r8
 659 0085 BD F4                   		movw	r12, ax
 660 0087 FA F4                   		movw	hl, r12
 661 0089 8B                      		mov	a, [hl]
 662 008a 9D F2                   		mov	r10, a
 663 008c 5A F2 FE                		and	r10, #-2
 664 008f AD F0                   		movw	ax, r8
 665 0091 EA F4                   		movw	de, r12
 666 0093 8D F2                   		mov	a, r10
 667 0095 99                      		mov	[de], a
 668                             	.L34:
 139:../DGC_A230_Functions/DGC_A230_Normal_Mode.c **** 	}
 140:../DGC_A230_Functions/DGC_A230_Normal_Mode.c **** }
 669                             		.loc 1 140 0
 670 0096 D7                      		ret
 671                             	.LFE1:
 673                             		.section	.text.TestPB_Pressed_Process,"ax",@progbits
 674                             		.global	_TestPB_Pressed_Process
 676                             	_TestPB_Pressed_Process:
 677                             	.LFB2:
 141:../DGC_A230_Functions/DGC_A230_Normal_Mode.c **** 
 142:../DGC_A230_Functions/DGC_A230_Normal_Mode.c **** void TestPB_Pressed_Process(void)
 143:../DGC_A230_Functions/DGC_A230_Normal_Mode.c **** {
 678                             		.loc 1 143 0
 679                             		; start of function
 680                             		; outgoing: 2 bytes
 681                             		; uses ES register
 682 0000 20 02                   		subw	sp, #2
 683                             	.LCFI0:
 144:../DGC_A230_Functions/DGC_A230_Normal_Mode.c **** 	switch (Machine_State)
 684                             		.loc 1 144 0
 685 0002 8F 00 00                		mov	a, !_Machine_State
 686 0005 9D F0                   		mov	r8, a
 687 0007 F4 F1                   		clrb	r9
 688 0009 AD F0                   		movw	ax, r8
 689 000b 44 02 00                		cmpw	ax, #2
 690 000e 61 F8                   		 sknz
 691 0010 EC 79 00 00             		 br	!!.L41
 692 0014 AD F0                   		movw	ax, r8
 693 0016 44 02 00                		cmpw	ax, #2
 694 0019 71 FF                   		 xor1	CY, a.7
 695 001b 61 F3                   		 sknh
 696 001d EC 3B 00 00             		 br	!!.L42
 697 0021 AD F0                   		movw	ax, r8
 698 0023 44 00 00                		cmpw	ax, #0
 699 0026 61 F8                   		 sknz
 700 0028 EC 55 00 00             		 br	!!.L43
 701 002c AD F0                   		movw	ax, r8
 702 002e 44 01 00                		cmpw	ax, #1
 703 0031 61 F8                   		 sknz
 704 0033 EC 5D 00 00             		 br	!!.L44
 145:../DGC_A230_Functions/DGC_A230_Normal_Mode.c **** 	{
 146:../DGC_A230_Functions/DGC_A230_Normal_Mode.c **** 		case MACHINE_STATE_STOP:
 147:../DGC_A230_Functions/DGC_A230_Normal_Mode.c **** 		{
 148:../DGC_A230_Functions/DGC_A230_Normal_Mode.c **** 			Test_Command_Process();			// Test Command and Safety Signal Procedure
 149:../DGC_A230_Functions/DGC_A230_Normal_Mode.c **** 		} break;
 150:../DGC_A230_Functions/DGC_A230_Normal_Mode.c **** 
 151:../DGC_A230_Functions/DGC_A230_Normal_Mode.c **** 		case MACHINE_STATE_NORMAL_OPENING:
 152:../DGC_A230_Functions/DGC_A230_Normal_Mode.c **** 		{
 153:../DGC_A230_Functions/DGC_A230_Normal_Mode.c **** 			Leaf_No1_State = GATE_STATE_OPENING_PAUSE;
 154:../DGC_A230_Functions/DGC_A230_Normal_Mode.c **** 			Leaf_No2_State = GATE_STATE_OPENING_PAUSE;
 155:../DGC_A230_Functions/DGC_A230_Normal_Mode.c **** 			__Do_Stop_Gate_Motor1(OPEN_MOVING_DIRECTION);
 156:../DGC_A230_Functions/DGC_A230_Normal_Mode.c **** 			__Do_Stop_Gate_Motor2(OPEN_MOVING_DIRECTION);
 157:../DGC_A230_Functions/DGC_A230_Normal_Mode.c **** 		} break;
 158:../DGC_A230_Functions/DGC_A230_Normal_Mode.c **** 
 159:../DGC_A230_Functions/DGC_A230_Normal_Mode.c **** 		case MACHINE_STATE_NORMAL_CLOSING:
 160:../DGC_A230_Functions/DGC_A230_Normal_Mode.c **** 		{
 161:../DGC_A230_Functions/DGC_A230_Normal_Mode.c **** 			Leaf_No1_State = GATE_STATE_CLOSING_PAUSE;
 162:../DGC_A230_Functions/DGC_A230_Normal_Mode.c **** 			Leaf_No2_State = GATE_STATE_CLOSING_PAUSE;
 163:../DGC_A230_Functions/DGC_A230_Normal_Mode.c **** 			__Do_Stop_Gate_Motor1(CLOSE_MOVING_DIRECTION);
 164:../DGC_A230_Functions/DGC_A230_Normal_Mode.c **** 			__Do_Stop_Gate_Motor2(CLOSE_MOVING_DIRECTION);
 165:../DGC_A230_Functions/DGC_A230_Normal_Mode.c **** 		} break;
 166:../DGC_A230_Functions/DGC_A230_Normal_Mode.c **** 
 167:../DGC_A230_Functions/DGC_A230_Normal_Mode.c **** 		case MACHINE_STATE_PARTIAL_OPENING:
 168:../DGC_A230_Functions/DGC_A230_Normal_Mode.c **** 		{
 169:../DGC_A230_Functions/DGC_A230_Normal_Mode.c **** 			Leaf_No1_State = GATE_STATE_OPENING_PAUSE;
 170:../DGC_A230_Functions/DGC_A230_Normal_Mode.c **** 			__Do_Partial_Stop_Gate(OPEN_MOVING_DIRECTION);
 171:../DGC_A230_Functions/DGC_A230_Normal_Mode.c **** 		} break;
 172:../DGC_A230_Functions/DGC_A230_Normal_Mode.c **** 
 173:../DGC_A230_Functions/DGC_A230_Normal_Mode.c **** 		case MACHINE_STATE_PARTIAL_CLOSING:
 174:../DGC_A230_Functions/DGC_A230_Normal_Mode.c **** 		{
 175:../DGC_A230_Functions/DGC_A230_Normal_Mode.c **** 			Leaf_No1_State = GATE_STATE_CLOSING_PAUSE;
 176:../DGC_A230_Functions/DGC_A230_Normal_Mode.c **** 			__Do_Partial_Stop_Gate(CLOSE_MOVING_DIRECTION);
 177:../DGC_A230_Functions/DGC_A230_Normal_Mode.c **** 		} break;
 178:../DGC_A230_Functions/DGC_A230_Normal_Mode.c **** 
 179:../DGC_A230_Functions/DGC_A230_Normal_Mode.c **** 		default: break;
 705                             		.loc 1 179 0
 706 0037 EC B2 00 00             		br	!!.L39
 707                             	.L42:
 144:../DGC_A230_Functions/DGC_A230_Normal_Mode.c **** 	switch (Machine_State)
 708                             		.loc 1 144 0
 709 003b AD F0                   		movw	ax, r8
 710 003d 44 03 00                		cmpw	ax, #3
 711 0040 61 F8                   		 sknz
 712 0042 EC 95 00 00             		 br	!!.L45
 713 0046 AD F0                   		movw	ax, r8
 714 0048 44 04 00                		cmpw	ax, #4
 715 004b 61 F8                   		 sknz
 716 004d EC A5 00 00             		 br	!!.L46
 717                             		.loc 1 179 0
 718 0051 EC B2 00 00             		br	!!.L39
 719                             	.L43:
 720                             	.LBB2:
 148:../DGC_A230_Functions/DGC_A230_Normal_Mode.c **** 		} break;
 721                             		.loc 1 148 0
 722 0055 FC 00 00 00             		call	!!%code(_Test_Command_Process)
 723                             	.LBE2:
 149:../DGC_A230_Functions/DGC_A230_Normal_Mode.c **** 
 724                             		.loc 1 149 0
 725 0059 EC B2 00 00             		br	!!.L39
 726                             	.L44:
 727                             	.LBB3:
 153:../DGC_A230_Functions/DGC_A230_Normal_Mode.c **** 			Leaf_No2_State = GATE_STATE_OPENING_PAUSE;
 728                             		.loc 1 153 0
 729 005d 51 06                   		mov	a, #6
 730 005f 9F 00 00                		mov	!_Leaf_No1_State, a
 154:../DGC_A230_Functions/DGC_A230_Normal_Mode.c **** 			__Do_Stop_Gate_Motor1(OPEN_MOVING_DIRECTION);
 731                             		.loc 1 154 0
 732 0062 51 06                   		mov	a, #6
 733 0064 9F 00 00                		mov	!_Leaf_No2_State, a
 155:../DGC_A230_Functions/DGC_A230_Normal_Mode.c **** 			__Do_Stop_Gate_Motor2(OPEN_MOVING_DIRECTION);
 734                             		.loc 1 155 0
 735 0067 F6                      		clrw	ax
 736 0068 B8 00                   		movw	[sp], ax
 737 006a FC 00 00 00             		call	!!%code(___Do_Stop_Gate_Motor1)
 156:../DGC_A230_Functions/DGC_A230_Normal_Mode.c **** 		} break;
 738                             		.loc 1 156 0
 739 006e F6                      		clrw	ax
 740 006f B8 00                   		movw	[sp], ax
 741 0071 FC 00 00 00             		call	!!%code(___Do_Stop_Gate_Motor2)
 742                             	.LBE3:
 157:../DGC_A230_Functions/DGC_A230_Normal_Mode.c **** 
 743                             		.loc 1 157 0
 744 0075 EC B2 00 00             		br	!!.L39
 745                             	.L41:
 746                             	.LBB4:
 161:../DGC_A230_Functions/DGC_A230_Normal_Mode.c **** 			Leaf_No2_State = GATE_STATE_CLOSING_PAUSE;
 747                             		.loc 1 161 0
 748 0079 51 07                   		mov	a, #7
 749 007b 9F 00 00                		mov	!_Leaf_No1_State, a
 162:../DGC_A230_Functions/DGC_A230_Normal_Mode.c **** 			__Do_Stop_Gate_Motor1(CLOSE_MOVING_DIRECTION);
 750                             		.loc 1 162 0
 751 007e 51 07                   		mov	a, #7
 752 0080 9F 00 00                		mov	!_Leaf_No2_State, a
 163:../DGC_A230_Functions/DGC_A230_Normal_Mode.c **** 			__Do_Stop_Gate_Motor2(CLOSE_MOVING_DIRECTION);
 753                             		.loc 1 163 0
 754 0083 E6                      		onew	ax
 755 0084 B8 00                   		movw	[sp], ax
 756 0086 FC 00 00 00             		call	!!%code(___Do_Stop_Gate_Motor1)
 164:../DGC_A230_Functions/DGC_A230_Normal_Mode.c **** 		} break;
 757                             		.loc 1 164 0
 758 008a E6                      		onew	ax
 759 008b B8 00                   		movw	[sp], ax
 760 008d FC 00 00 00             		call	!!%code(___Do_Stop_Gate_Motor2)
 761                             	.LBE4:
 165:../DGC_A230_Functions/DGC_A230_Normal_Mode.c **** 
 762                             		.loc 1 165 0
 763 0091 EC B2 00 00             		br	!!.L39
 764                             	.L45:
 765                             	.LBB5:
 169:../DGC_A230_Functions/DGC_A230_Normal_Mode.c **** 			__Do_Partial_Stop_Gate(OPEN_MOVING_DIRECTION);
 766                             		.loc 1 169 0
 767 0095 51 06                   		mov	a, #6
 768 0097 9F 00 00                		mov	!_Leaf_No1_State, a
 170:../DGC_A230_Functions/DGC_A230_Normal_Mode.c **** 		} break;
 769                             		.loc 1 170 0
 770 009a F6                      		clrw	ax
 771 009b B8 00                   		movw	[sp], ax
 772 009d FC 00 00 00             		call	!!%code(___Do_Partial_Stop_Gate)
 773                             	.LBE5:
 171:../DGC_A230_Functions/DGC_A230_Normal_Mode.c **** 
 774                             		.loc 1 171 0
 775 00a1 EC B2 00 00             		br	!!.L39
 776                             	.L46:
 777                             	.LBB6:
 175:../DGC_A230_Functions/DGC_A230_Normal_Mode.c **** 			__Do_Partial_Stop_Gate(CLOSE_MOVING_DIRECTION);
 778                             		.loc 1 175 0
 779 00a5 51 07                   		mov	a, #7
 780 00a7 9F 00 00                		mov	!_Leaf_No1_State, a
 176:../DGC_A230_Functions/DGC_A230_Normal_Mode.c **** 		} break;
 781                             		.loc 1 176 0
 782 00aa E6                      		onew	ax
 783 00ab B8 00                   		movw	[sp], ax
 784 00ad FC 00 00 00             		call	!!%code(___Do_Partial_Stop_Gate)
 785                             	.LBE6:
 177:../DGC_A230_Functions/DGC_A230_Normal_Mode.c **** 
 786                             		.loc 1 177 0
 787 00b1 00                      		nop
 788                             	.L39:
 180:../DGC_A230_Functions/DGC_A230_Normal_Mode.c **** 	}
 181:../DGC_A230_Functions/DGC_A230_Normal_Mode.c **** }
 789                             		.loc 1 181 0
 790 00b2 10 02                   		addw	sp, #2
 791 00b4 D7                      		ret
 792                             	.LFE2:
 794                             		.section	.text.Partial_Command_Process,"ax",@progbits
 795                             		.global	_Partial_Command_Process
 797                             	_Partial_Command_Process:
 798                             	.LFB3:
 182:../DGC_A230_Functions/DGC_A230_Normal_Mode.c **** 
 183:../DGC_A230_Functions/DGC_A230_Normal_Mode.c **** void Partial_Command_Process ()
 184:../DGC_A230_Functions/DGC_A230_Normal_Mode.c **** {
 799                             		.loc 1 184 0
 800                             		; start of function
 801                             		; outgoing: 2 bytes
 802                             		; uses ES register
 803 0000 20 02                   		subw	sp, #2
 804                             	.LCFI1:
 185:../DGC_A230_Functions/DGC_A230_Normal_Mode.c **** 	switch(Machine_State)
 805                             		.loc 1 185 0
 806 0002 8F 00 00                		mov	a, !_Machine_State
 807 0005 9D F0                   		mov	r8, a
 808 0007 F4 F1                   		clrb	r9
 809 0009 AD F0                   		movw	ax, r8
 810 000b 44 03 00                		cmpw	ax, #3
 811 000e 61 F8                   		 sknz
 812 0010 EC A0 01 00             		 br	!!.L50
 813 0014 AD F0                   		movw	ax, r8
 814 0016 44 04 00                		cmpw	ax, #4
 815 0019 61 F8                   		 sknz
 816 001b EC C1 01 00             		 br	!!.L51
 817 001f AD F0                   		movw	ax, r8
 818 0021 44 00 00                		cmpw	ax, #0
 819 0024 61 F8                   		 sknz
 820 0026 EC 2E 00 00             		 br	!!.L52
 186:../DGC_A230_Functions/DGC_A230_Normal_Mode.c **** 	{
 187:../DGC_A230_Functions/DGC_A230_Normal_Mode.c **** 	case MACHINE_STATE_STOP:
 188:../DGC_A230_Functions/DGC_A230_Normal_Mode.c **** 	{
 189:../DGC_A230_Functions/DGC_A230_Normal_Mode.c **** 		if ((Leaf_No2_State == GATE_STATE_CLOSED) || (CFG_parameter.Number_Of_Motors == 0x01))
 190:../DGC_A230_Functions/DGC_A230_Normal_Mode.c **** 		{
 191:../DGC_A230_Functions/DGC_A230_Normal_Mode.c **** 			if (Leaf_No1_State == GATE_STATE_CLOSED) // Step OPen
 192:../DGC_A230_Functions/DGC_A230_Normal_Mode.c **** 			{
 193:../DGC_A230_Functions/DGC_A230_Normal_Mode.c **** 				if (!((FT1 && (CFG_parameter.Photocell_FT1_Mode_Closed == 0x00)) || (FT2 && (CFG_parameter.Phot
 194:../DGC_A230_Functions/DGC_A230_Normal_Mode.c **** 				{
 195:../DGC_A230_Functions/DGC_A230_Normal_Mode.c **** 					Pre_flash_Time = CFG_parameter.Pre_Flashing;
 196:../DGC_A230_Functions/DGC_A230_Normal_Mode.c **** 					__Do_Partial_Open_Gate();
 197:../DGC_A230_Functions/DGC_A230_Normal_Mode.c **** 				}
 198:../DGC_A230_Functions/DGC_A230_Normal_Mode.c **** 			}
 199:../DGC_A230_Functions/DGC_A230_Normal_Mode.c **** 			else if (Leaf_No1_State == GATE_STATE_CLOSING_PAUSE)
 200:../DGC_A230_Functions/DGC_A230_Normal_Mode.c **** 			{
 201:../DGC_A230_Functions/DGC_A230_Normal_Mode.c **** 				if (CFG_parameter.M1_Partial_Space >= M1_Time_Position)
 202:../DGC_A230_Functions/DGC_A230_Normal_Mode.c **** 				{
 203:../DGC_A230_Functions/DGC_A230_Normal_Mode.c **** 					Pre_flash_Time = CFG_parameter.Pre_Flashing;
 204:../DGC_A230_Functions/DGC_A230_Normal_Mode.c **** 					__Do_Partial_Open_Gate();
 205:../DGC_A230_Functions/DGC_A230_Normal_Mode.c **** 				}
 206:../DGC_A230_Functions/DGC_A230_Normal_Mode.c **** 			}
 207:../DGC_A230_Functions/DGC_A230_Normal_Mode.c **** 			else if (Leaf_No1_State == GATE_STATE_PATIAL_OPENING_PAUSE)
 208:../DGC_A230_Functions/DGC_A230_Normal_Mode.c **** 			{
 209:../DGC_A230_Functions/DGC_A230_Normal_Mode.c **** 				if (CFG_parameter.Patial_Function == 0x01)
 210:../DGC_A230_Functions/DGC_A230_Normal_Mode.c **** 				{
 211:../DGC_A230_Functions/DGC_A230_Normal_Mode.c **** 					Auto_Close_Gate_Retry_Number = Auto_Close_Retry_Number;
 212:../DGC_A230_Functions/DGC_A230_Normal_Mode.c **** 					Auto_Close_Gate_Timer_Counter = 0;
 213:../DGC_A230_Functions/DGC_A230_Normal_Mode.c **** 					Auto_Close_Gate_Timer_Enable = 0;
 214:../DGC_A230_Functions/DGC_A230_Normal_Mode.c **** 					Pre_flash_Time = CFG_parameter.Pre_Flashing;
 215:../DGC_A230_Functions/DGC_A230_Normal_Mode.c **** 					__Do_Partial_Open_Gate();
 216:../DGC_A230_Functions/DGC_A230_Normal_Mode.c **** 				}
 217:../DGC_A230_Functions/DGC_A230_Normal_Mode.c **** 				else
 218:../DGC_A230_Functions/DGC_A230_Normal_Mode.c **** 				{
 219:../DGC_A230_Functions/DGC_A230_Normal_Mode.c **** 					Pre_flash_Time = CFG_parameter.Pre_Flashing;
 220:../DGC_A230_Functions/DGC_A230_Normal_Mode.c **** 					__Do_Partial_Close_Gate();
 221:../DGC_A230_Functions/DGC_A230_Normal_Mode.c **** 				}
 222:../DGC_A230_Functions/DGC_A230_Normal_Mode.c **** 			}
 223:../DGC_A230_Functions/DGC_A230_Normal_Mode.c **** 			else 	// Step Close
 224:../DGC_A230_Functions/DGC_A230_Normal_Mode.c **** 			{
 225:../DGC_A230_Functions/DGC_A230_Normal_Mode.c **** 				if (CFG_parameter.Patial_Function == 0x00)
 226:../DGC_A230_Functions/DGC_A230_Normal_Mode.c **** 				{
 227:../DGC_A230_Functions/DGC_A230_Normal_Mode.c **** 					if (Leaf_No1_State == GATE_STATE_PARTIAL)
 228:../DGC_A230_Functions/DGC_A230_Normal_Mode.c **** 					{
 229:../DGC_A230_Functions/DGC_A230_Normal_Mode.c **** 						Auto_Close_Gate_Retry_Number = Auto_Close_Retry_Number;
 230:../DGC_A230_Functions/DGC_A230_Normal_Mode.c **** 						Auto_Close_Gate_Timer_Counter = 0;
 231:../DGC_A230_Functions/DGC_A230_Normal_Mode.c **** 						Auto_Close_Gate_Timer_Enable = 0;
 232:../DGC_A230_Functions/DGC_A230_Normal_Mode.c **** 					}
 233:../DGC_A230_Functions/DGC_A230_Normal_Mode.c **** 					if (CFG_parameter.M1_Partial_Space >= M1_Time_Position)
 234:../DGC_A230_Functions/DGC_A230_Normal_Mode.c **** 					{
 235:../DGC_A230_Functions/DGC_A230_Normal_Mode.c **** 						Pre_flash_Time = CFG_parameter.Pre_Flashing;
 236:../DGC_A230_Functions/DGC_A230_Normal_Mode.c **** 						__Do_Partial_Close_Gate();
 237:../DGC_A230_Functions/DGC_A230_Normal_Mode.c **** 					}
 238:../DGC_A230_Functions/DGC_A230_Normal_Mode.c **** 				}
 239:../DGC_A230_Functions/DGC_A230_Normal_Mode.c **** 				else
 240:../DGC_A230_Functions/DGC_A230_Normal_Mode.c **** 				{
 241:../DGC_A230_Functions/DGC_A230_Normal_Mode.c **** 					if (Leaf_No1_State == GATE_STATE_PARTIAL)
 242:../DGC_A230_Functions/DGC_A230_Normal_Mode.c **** 					{
 243:../DGC_A230_Functions/DGC_A230_Normal_Mode.c **** 						Auto_Close_Gate_Retry_Number = Auto_Close_Retry_Number;
 244:../DGC_A230_Functions/DGC_A230_Normal_Mode.c **** 						Auto_Close_Gate_Timer_Counter = 0;
 245:../DGC_A230_Functions/DGC_A230_Normal_Mode.c **** 					}
 246:../DGC_A230_Functions/DGC_A230_Normal_Mode.c **** 				}
 247:../DGC_A230_Functions/DGC_A230_Normal_Mode.c **** 			}
 248:../DGC_A230_Functions/DGC_A230_Normal_Mode.c **** 		}
 249:../DGC_A230_Functions/DGC_A230_Normal_Mode.c **** 	} break;
 250:../DGC_A230_Functions/DGC_A230_Normal_Mode.c **** 
 251:../DGC_A230_Functions/DGC_A230_Normal_Mode.c **** 	case MACHINE_STATE_PARTIAL_OPENING:
 252:../DGC_A230_Functions/DGC_A230_Normal_Mode.c **** 	{
 253:../DGC_A230_Functions/DGC_A230_Normal_Mode.c **** 		if (CFG_parameter.Patial_Function == 0x00)
 254:../DGC_A230_Functions/DGC_A230_Normal_Mode.c **** 		{
 255:../DGC_A230_Functions/DGC_A230_Normal_Mode.c **** 		Leaf_No1_State = GATE_STATE_PATIAL_OPENING_PAUSE;
 256:../DGC_A230_Functions/DGC_A230_Normal_Mode.c **** 		__Do_Partial_Stop_Gate(OPEN_MOVING_DIRECTION);
 257:../DGC_A230_Functions/DGC_A230_Normal_Mode.c **** 		}
 258:../DGC_A230_Functions/DGC_A230_Normal_Mode.c **** 	} break;
 259:../DGC_A230_Functions/DGC_A230_Normal_Mode.c **** 
 260:../DGC_A230_Functions/DGC_A230_Normal_Mode.c **** 	case MACHINE_STATE_PARTIAL_CLOSING:
 261:../DGC_A230_Functions/DGC_A230_Normal_Mode.c **** 	{
 262:../DGC_A230_Functions/DGC_A230_Normal_Mode.c **** 		Leaf_No1_State = GATE_STATE_CLOSING_PAUSE;
 263:../DGC_A230_Functions/DGC_A230_Normal_Mode.c **** 		Auto_Close_Gate_Retry_Number = Auto_Close_Retry_Number;
 264:../DGC_A230_Functions/DGC_A230_Normal_Mode.c **** 		Auto_Close_Gate_Timer_Counter = 0;
 265:../DGC_A230_Functions/DGC_A230_Normal_Mode.c **** 		Auto_Close_Gate_Timer_Enable = 0;
 266:../DGC_A230_Functions/DGC_A230_Normal_Mode.c **** 		__Do_Partial_Stop_Gate(CLOSE_MOVING_DIRECTION);
 267:../DGC_A230_Functions/DGC_A230_Normal_Mode.c **** 		if (CFG_parameter.Patial_Function == 0x01)
 268:../DGC_A230_Functions/DGC_A230_Normal_Mode.c **** 		{
 269:../DGC_A230_Functions/DGC_A230_Normal_Mode.c **** 			Pre_flash_Time = 0x00;
 270:../DGC_A230_Functions/DGC_A230_Normal_Mode.c **** 			__Do_Partial_Open_Gate();
 271:../DGC_A230_Functions/DGC_A230_Normal_Mode.c **** 		}
 272:../DGC_A230_Functions/DGC_A230_Normal_Mode.c **** 	} break;
 273:../DGC_A230_Functions/DGC_A230_Normal_Mode.c **** 
 274:../DGC_A230_Functions/DGC_A230_Normal_Mode.c **** 	case MACHINE_STATE_NORMAL_OPENING:
 275:../DGC_A230_Functions/DGC_A230_Normal_Mode.c **** 	case MACHINE_STATE_NORMAL_CLOSING:
 276:../DGC_A230_Functions/DGC_A230_Normal_Mode.c **** 	default: break;
 821                             		.loc 1 276 0
 822 002a EC F6 01 00             		br	!!.L48
 823                             	.L52:
 189:../DGC_A230_Functions/DGC_A230_Normal_Mode.c **** 		{
 824                             		.loc 1 189 0
 825 002e 8F 00 00                		mov	a, !_Leaf_No2_State
 826 0031 9D F0                   		mov	r8, a
 827 0033 4A F0 01                		cmp	r8, #1
 828 0036 61 F8                   		 sknz
 829 0038 EC 4A 00 00             		 br	!!.L53
 189:../DGC_A230_Functions/DGC_A230_Normal_Mode.c **** 		{
 830                             		.loc 1 189 0 is_stmt 0 discriminator 1
 831 003c 8F 00 00                		mov	a, !_CFG_parameter+1
 832 003f 9D F0                   		mov	r8, a
 833 0041 4A F0 01                		cmp	r8, #1
 834 0044 61 E8                   		 skz
 835 0046 EC 9C 01 00             		 br	!!.L54
 836                             	.L53:
 191:../DGC_A230_Functions/DGC_A230_Normal_Mode.c **** 			{
 837                             		.loc 1 191 0 is_stmt 1
 838 004a 8F 00 00                		mov	a, !_Leaf_No1_State
 839 004d 9D F0                   		mov	r8, a
 840 004f 4A F0 01                		cmp	r8, #1
 841 0052 61 E8                   		 skz
 842 0054 EC B3 00 00             		 br	!!.L55
 193:../DGC_A230_Functions/DGC_A230_Normal_Mode.c **** 				{
 843                             		.loc 1 193 0
 844 0058 C9 F0 07 FF             		movw	r8, #-249
 845 005c AD F0                   		movw	ax, r8
 846 005e BD F2                   		movw	r10, ax
 847 0060 FA F2                   		movw	hl, r10
 848 0062 8B                      		mov	a, [hl]
 849 0063 9D F0                   		mov	r8, a
 850 0065 31 1A                   		shr	a, 1
 851 0067 9D F0                   		mov	r8, a
 852 0069 5A F0 01                		and	r8, #1
 853 006c 61 F8                   		sknz
 854 006e EC 7F 00 00             		 br	!!.L56
 855                             		 # zero-comparison eliminated
 193:../DGC_A230_Functions/DGC_A230_Normal_Mode.c **** 				{
 856                             		.loc 1 193 0 is_stmt 0 discriminator 2
 857 0072 8F 00 00                		mov	a, !_CFG_parameter+82
 858 0075 9D F0                   		mov	r8, a
 859 0077 D4 F0                   		cmp0	r8
 860 0079 61 F8                   		 sknz
 861 007b EC 9C 01 00             		 br	!!.L54
 862                             	.L56:
 193:../DGC_A230_Functions/DGC_A230_Normal_Mode.c **** 				{
 863                             		.loc 1 193 0 discriminator 3
 864 007f C9 F0 07 FF             		movw	r8, #-249
 865 0083 AD F0                   		movw	ax, r8
 866 0085 BD F2                   		movw	r10, ax
 867 0087 EA F2                   		movw	de, r10
 868 0089 89                      		mov	a, [de]
 869 008a 5C 01                   		and	a, #1
 870 008c 9D F0                   		mov	r8, a
 871 008e D4 F0                   		cmp0	r8
 872 0090 61 F8                   		 sknz
 873 0092 EC A3 00 00             		 br	!!.L58
 193:../DGC_A230_Functions/DGC_A230_Normal_Mode.c **** 				{
 874                             		.loc 1 193 0 discriminator 4
 875 0096 8F 00 00                		mov	a, !_CFG_parameter+85
 876 0099 9D F0                   		mov	r8, a
 877 009b D4 F0                   		cmp0	r8
 878 009d 61 F8                   		 sknz
 879 009f EC 9C 01 00             		 br	!!.L54
 880                             	.L58:
 881                             	.LBB7:
 195:../DGC_A230_Functions/DGC_A230_Normal_Mode.c **** 					__Do_Partial_Open_Gate();
 882                             		.loc 1 195 0 is_stmt 1
 883 00a3 8F 00 00                		mov	a, !_CFG_parameter+52
 884 00a6 9D F0                   		mov	r8, a
 885 00a8 9F 00 00                		mov	!_Pre_flash_Time, a
 196:../DGC_A230_Functions/DGC_A230_Normal_Mode.c **** 				}
 886                             		.loc 1 196 0
 887 00ab FC 00 00 00             		call	!!%code(___Do_Partial_Open_Gate)
 888                             	.LBE7:
 249:../DGC_A230_Functions/DGC_A230_Normal_Mode.c **** 
 889                             		.loc 1 249 0
 890 00af EC F6 01 00             		br	!!.L48
 891                             	.L55:
 199:../DGC_A230_Functions/DGC_A230_Normal_Mode.c **** 			{
 892                             		.loc 1 199 0
 893 00b3 8F 00 00                		mov	a, !_Leaf_No1_State
 894 00b6 9D F0                   		mov	r8, a
 895 00b8 4A F0 07                		cmp	r8, #7
 896 00bb 61 E8                   		 skz
 897 00bd EC E5 00 00             		 br	!!.L59
 201:../DGC_A230_Functions/DGC_A230_Normal_Mode.c **** 				{
 898                             		.loc 1 201 0
 899 00c1 AF 00 00                		movw	ax, !_CFG_parameter+28
 900 00c4 BD F2                   		movw	r10, ax
 901 00c6 AF 00 00                		movw	ax, !_M1_Time_Position
 902 00c9 BD F0                   		movw	r8, ax
 903 00cb AD F2                   		movw	ax, r10
 904 00cd 46 F0                   		cmpw	ax, r8
 905 00cf 61 D8                   		 sknc
 906 00d1 EC 9C 01 00             		 br	!!.L54
 907                             	.LBB8:
 203:../DGC_A230_Functions/DGC_A230_Normal_Mode.c **** 					__Do_Partial_Open_Gate();
 908                             		.loc 1 203 0
 909 00d5 8F 00 00                		mov	a, !_CFG_parameter+52
 910 00d8 9D F0                   		mov	r8, a
 911 00da 9F 00 00                		mov	!_Pre_flash_Time, a
 204:../DGC_A230_Functions/DGC_A230_Normal_Mode.c **** 				}
 912                             		.loc 1 204 0
 913 00dd FC 00 00 00             		call	!!%code(___Do_Partial_Open_Gate)
 914                             	.LBE8:
 249:../DGC_A230_Functions/DGC_A230_Normal_Mode.c **** 
 915                             		.loc 1 249 0
 916 00e1 EC F6 01 00             		br	!!.L48
 917                             	.L59:
 207:../DGC_A230_Functions/DGC_A230_Normal_Mode.c **** 			{
 918                             		.loc 1 207 0
 919 00e5 8F 00 00                		mov	a, !_Leaf_No1_State
 920 00e8 9D F0                   		mov	r8, a
 921 00ea 4A F0 08                		cmp	r8, #8
 922 00ed 61 E8                   		 skz
 923 00ef EC 30 01 00             		 br	!!.L61
 209:../DGC_A230_Functions/DGC_A230_Normal_Mode.c **** 				{
 924                             		.loc 1 209 0
 925 00f3 8F 00 00                		mov	a, !_CFG_parameter+56
 926 00f6 9D F0                   		mov	r8, a
 927 00f8 4A F0 01                		cmp	r8, #1
 928 00fb 61 E8                   		 skz
 929 00fd EC 20 01 00             		 br	!!.L62
 930                             	.LBB9:
 211:../DGC_A230_Functions/DGC_A230_Normal_Mode.c **** 					Auto_Close_Gate_Timer_Counter = 0;
 931                             		.loc 1 211 0
 932 0101 8F 00 00                		mov	a, !_Auto_Close_Retry_Number
 933 0104 9D F0                   		mov	r8, a
 934 0106 9F 00 00                		mov	!_Auto_Close_Gate_Retry_Number, a
 212:../DGC_A230_Functions/DGC_A230_Normal_Mode.c **** 					Auto_Close_Gate_Timer_Enable = 0;
 935                             		.loc 1 212 0
 936 0109 F6                      		clrw	ax
 937 010a BF 00 00                		movw	!_Auto_Close_Gate_Timer_Counter, ax
 213:../DGC_A230_Functions/DGC_A230_Normal_Mode.c **** 					Pre_flash_Time = CFG_parameter.Pre_Flashing;
 938                             		.loc 1 213 0
 939 010d F5 00 00                		clrb	!_Auto_Close_Gate_Timer_Enable
 214:../DGC_A230_Functions/DGC_A230_Normal_Mode.c **** 					__Do_Partial_Open_Gate();
 940                             		.loc 1 214 0
 941 0110 8F 00 00                		mov	a, !_CFG_parameter+52
 942 0113 9D F0                   		mov	r8, a
 943 0115 9F 00 00                		mov	!_Pre_flash_Time, a
 215:../DGC_A230_Functions/DGC_A230_Normal_Mode.c **** 				}
 944                             		.loc 1 215 0
 945 0118 FC 00 00 00             		call	!!%code(___Do_Partial_Open_Gate)
 946                             	.LBE9:
 947 011c EC 9C 01 00             		br	!!.L54
 948                             	.L62:
 949                             	.LBB10:
 219:../DGC_A230_Functions/DGC_A230_Normal_Mode.c **** 					__Do_Partial_Close_Gate();
 950                             		.loc 1 219 0
 951 0120 8F 00 00                		mov	a, !_CFG_parameter+52
 952 0123 9D F0                   		mov	r8, a
 953 0125 9F 00 00                		mov	!_Pre_flash_Time, a
 220:../DGC_A230_Functions/DGC_A230_Normal_Mode.c **** 				}
 954                             		.loc 1 220 0
 955 0128 FC 00 00 00             		call	!!%code(___Do_Partial_Close_Gate)
 956                             	.LBE10:
 249:../DGC_A230_Functions/DGC_A230_Normal_Mode.c **** 
 957                             		.loc 1 249 0
 958 012c EC F6 01 00             		br	!!.L48
 959                             	.L61:
 225:../DGC_A230_Functions/DGC_A230_Normal_Mode.c **** 				{
 960                             		.loc 1 225 0
 961 0130 8F 00 00                		mov	a, !_CFG_parameter+56
 962 0133 9D F0                   		mov	r8, a
 963 0135 D4 F0                   		cmp0	r8
 964 0137 61 E8                   		 skz
 965 0139 EC 7E 01 00             		 br	!!.L64
 227:../DGC_A230_Functions/DGC_A230_Normal_Mode.c **** 					{
 966                             		.loc 1 227 0
 967 013d 8F 00 00                		mov	a, !_Leaf_No1_State
 968 0140 9D F0                   		mov	r8, a
 969 0142 4A F0 05                		cmp	r8, #5
 970 0145 61 E8                   		 skz
 971 0147 EC 5A 01 00             		 br	!!.L65
 229:../DGC_A230_Functions/DGC_A230_Normal_Mode.c **** 						Auto_Close_Gate_Timer_Counter = 0;
 972                             		.loc 1 229 0
 973 014b 8F 00 00                		mov	a, !_Auto_Close_Retry_Number
 974 014e 9D F0                   		mov	r8, a
 975 0150 9F 00 00                		mov	!_Auto_Close_Gate_Retry_Number, a
 230:../DGC_A230_Functions/DGC_A230_Normal_Mode.c **** 						Auto_Close_Gate_Timer_Enable = 0;
 976                             		.loc 1 230 0
 977 0153 F6                      		clrw	ax
 978 0154 BF 00 00                		movw	!_Auto_Close_Gate_Timer_Counter, ax
 231:../DGC_A230_Functions/DGC_A230_Normal_Mode.c **** 					}
 979                             		.loc 1 231 0
 980 0157 F5 00 00                		clrb	!_Auto_Close_Gate_Timer_Enable
 981                             	.L65:
 233:../DGC_A230_Functions/DGC_A230_Normal_Mode.c **** 					{
 982                             		.loc 1 233 0
 983 015a AF 00 00                		movw	ax, !_CFG_parameter+28
 984 015d BD F2                   		movw	r10, ax
 985 015f AF 00 00                		movw	ax, !_M1_Time_Position
 986 0162 BD F0                   		movw	r8, ax
 987 0164 AD F2                   		movw	ax, r10
 988 0166 46 F0                   		cmpw	ax, r8
 989 0168 61 D8                   		 sknc
 990 016a EC 9C 01 00             		 br	!!.L54
 991                             	.LBB11:
 235:../DGC_A230_Functions/DGC_A230_Normal_Mode.c **** 						__Do_Partial_Close_Gate();
 992                             		.loc 1 235 0
 993 016e 8F 00 00                		mov	a, !_CFG_parameter+52
 994 0171 9D F0                   		mov	r8, a
 995 0173 9F 00 00                		mov	!_Pre_flash_Time, a
 236:../DGC_A230_Functions/DGC_A230_Normal_Mode.c **** 					}
 996                             		.loc 1 236 0
 997 0176 FC 00 00 00             		call	!!%code(___Do_Partial_Close_Gate)
 998                             	.LBE11:
 249:../DGC_A230_Functions/DGC_A230_Normal_Mode.c **** 
 999                             		.loc 1 249 0
 1000 017a EC F6 01 00             		br	!!.L48
 1001                             	.L64:
 241:../DGC_A230_Functions/DGC_A230_Normal_Mode.c **** 					{
 1002                             		.loc 1 241 0
 1003 017e 8F 00 00                		mov	a, !_Leaf_No1_State
 1004 0181 9D F0                   		mov	r8, a
 1005 0183 4A F0 05                		cmp	r8, #5
 1006 0186 61 E8                   		 skz
 1007 0188 EC 9C 01 00             		 br	!!.L54
 243:../DGC_A230_Functions/DGC_A230_Normal_Mode.c **** 						Auto_Close_Gate_Timer_Counter = 0;
 1008                             		.loc 1 243 0
 1009 018c 8F 00 00                		mov	a, !_Auto_Close_Retry_Number
 1010 018f 9D F0                   		mov	r8, a
 1011 0191 9F 00 00                		mov	!_Auto_Close_Gate_Retry_Number, a
 244:../DGC_A230_Functions/DGC_A230_Normal_Mode.c **** 					}
 1012                             		.loc 1 244 0
 1013 0194 F6                      		clrw	ax
 1014 0195 BF 00 00                		movw	!_Auto_Close_Gate_Timer_Counter, ax
 249:../DGC_A230_Functions/DGC_A230_Normal_Mode.c **** 
 1015                             		.loc 1 249 0
 1016 0198 EC F6 01 00             		br	!!.L48
 1017                             	.L54:
 249:../DGC_A230_Functions/DGC_A230_Normal_Mode.c **** 
 1018                             		.loc 1 249 0 is_stmt 0 discriminator 1
 1019 019c EC F6 01 00             		br	!!.L48
 1020                             	.L50:
 253:../DGC_A230_Functions/DGC_A230_Normal_Mode.c **** 		{
 1021                             		.loc 1 253 0 is_stmt 1
 1022 01a0 8F 00 00                		mov	a, !_CFG_parameter+56
 1023 01a3 9D F0                   		mov	r8, a
 1024 01a5 D4 F0                   		cmp0	r8
 1025 01a7 61 E8                   		 skz
 1026 01a9 EC BD 01 00             		 br	!!.L68
 1027                             	.LBB12:
 255:../DGC_A230_Functions/DGC_A230_Normal_Mode.c **** 		__Do_Partial_Stop_Gate(OPEN_MOVING_DIRECTION);
 1028                             		.loc 1 255 0
 1029 01ad 51 08                   		mov	a, #8
 1030 01af 9F 00 00                		mov	!_Leaf_No1_State, a
 256:../DGC_A230_Functions/DGC_A230_Normal_Mode.c **** 		}
 1031                             		.loc 1 256 0
 1032 01b2 F6                      		clrw	ax
 1033 01b3 B8 00                   		movw	[sp], ax
 1034 01b5 FC 00 00 00             		call	!!%code(___Do_Partial_Stop_Gate)
 1035                             	.LBE12:
 258:../DGC_A230_Functions/DGC_A230_Normal_Mode.c **** 
 1036                             		.loc 1 258 0
 1037 01b9 EC F6 01 00             		br	!!.L48
 1038                             	.L68:
 1039 01bd EC F6 01 00             		br	!!.L48
 1040                             	.L51:
 1041                             	.LBB13:
 262:../DGC_A230_Functions/DGC_A230_Normal_Mode.c **** 		Auto_Close_Gate_Retry_Number = Auto_Close_Retry_Number;
 1042                             		.loc 1 262 0
 1043 01c1 51 07                   		mov	a, #7
 1044 01c3 9F 00 00                		mov	!_Leaf_No1_State, a
 263:../DGC_A230_Functions/DGC_A230_Normal_Mode.c **** 		Auto_Close_Gate_Timer_Counter = 0;
 1045                             		.loc 1 263 0
 1046 01c6 8F 00 00                		mov	a, !_Auto_Close_Retry_Number
 1047 01c9 9D F0                   		mov	r8, a
 1048 01cb 9F 00 00                		mov	!_Auto_Close_Gate_Retry_Number, a
 264:../DGC_A230_Functions/DGC_A230_Normal_Mode.c **** 		Auto_Close_Gate_Timer_Enable = 0;
 1049                             		.loc 1 264 0
 1050 01ce F6                      		clrw	ax
 1051 01cf BF 00 00                		movw	!_Auto_Close_Gate_Timer_Counter, ax
 265:../DGC_A230_Functions/DGC_A230_Normal_Mode.c **** 		__Do_Partial_Stop_Gate(CLOSE_MOVING_DIRECTION);
 1052                             		.loc 1 265 0
 1053 01d2 F5 00 00                		clrb	!_Auto_Close_Gate_Timer_Enable
 266:../DGC_A230_Functions/DGC_A230_Normal_Mode.c **** 		if (CFG_parameter.Patial_Function == 0x01)
 1054                             		.loc 1 266 0
 1055 01d5 E6                      		onew	ax
 1056 01d6 B8 00                   		movw	[sp], ax
 1057 01d8 FC 00 00 00             		call	!!%code(___Do_Partial_Stop_Gate)
 267:../DGC_A230_Functions/DGC_A230_Normal_Mode.c **** 		{
 1058                             		.loc 1 267 0
 1059 01dc 8F 00 00                		mov	a, !_CFG_parameter+56
 1060 01df 9D F0                   		mov	r8, a
 1061 01e1 4A F0 01                		cmp	r8, #1
 1062 01e4 61 E8                   		 skz
 1063 01e6 EC F5 01 00             		 br	!!.L69
 1064                             	.LBB14:
 269:../DGC_A230_Functions/DGC_A230_Normal_Mode.c **** 			__Do_Partial_Open_Gate();
 1065                             		.loc 1 269 0
 1066 01ea F5 00 00                		clrb	!_Pre_flash_Time
 270:../DGC_A230_Functions/DGC_A230_Normal_Mode.c **** 		}
 1067                             		.loc 1 270 0
 1068 01ed FC 00 00 00             		call	!!%code(___Do_Partial_Open_Gate)
 1069                             	.LBE14:
 1070                             	.LBE13:
 272:../DGC_A230_Functions/DGC_A230_Normal_Mode.c **** 
 1071                             		.loc 1 272 0
 1072 01f1 EC F5 01 00             		br	!!.L70
 1073                             	.L69:
 1074                             	.L70:
 1075 01f5 00                      		nop
 1076                             	.L48:
 277:../DGC_A230_Functions/DGC_A230_Normal_Mode.c **** 	}
 278:../DGC_A230_Functions/DGC_A230_Normal_Mode.c **** }
 1077                             		.loc 1 278 0
 1078 01f6 10 02                   		addw	sp, #2
 1079 01f8 D7                      		ret
 1080                             	.LFE3:
 1082                             		.section	.text.Step_Command_Process_Mode_0,"ax",@progbits
 1083                             		.global	_Step_Command_Process_Mode_0
 1085                             	_Step_Command_Process_Mode_0:
 1086                             	.LFB4:
 279:../DGC_A230_Functions/DGC_A230_Normal_Mode.c **** 
 280:../DGC_A230_Functions/DGC_A230_Normal_Mode.c **** void Step_Command_Process_Mode_0 (void)
 281:../DGC_A230_Functions/DGC_A230_Normal_Mode.c **** {
 1087                             		.loc 1 281 0
 1088                             		; start of function
 1089                             		; outgoing: 2 bytes
 1090                             		; uses ES register
 1091 0000 20 02                   		subw	sp, #2
 1092                             	.LCFI2:
 282:../DGC_A230_Functions/DGC_A230_Normal_Mode.c **** 	switch(Machine_State)
 1093                             		.loc 1 282 0
 1094 0002 8F 00 00                		mov	a, !_Machine_State
 1095 0005 9D F0                   		mov	r8, a
 1096 0007 F4 F1                   		clrb	r9
 1097 0009 AD F0                   		movw	ax, r8
 1098 000b 44 02 00                		cmpw	ax, #2
 1099 000e 61 F8                   		 sknz
 1100 0010 EC 44 01 00             		 br	!!.L73
 1101 0014 AD F0                   		movw	ax, r8
 1102 0016 44 02 00                		cmpw	ax, #2
 1103 0019 71 FF                   		 xor1	CY, a.7
 1104 001b 61 F3                   		 sknh
 1105 001d EC 3B 00 00             		 br	!!.L74
 1106 0021 AD F0                   		movw	ax, r8
 1107 0023 44 00 00                		cmpw	ax, #0
 1108 0026 61 F8                   		 sknz
 1109 0028 EC 55 00 00             		 br	!!.L75
 1110 002c AD F0                   		movw	ax, r8
 1111 002e 44 01 00                		cmpw	ax, #1
 1112 0031 61 F8                   		 sknz
 1113 0033 EC 28 01 00             		 br	!!.L76
 283:../DGC_A230_Functions/DGC_A230_Normal_Mode.c **** 	{
 284:../DGC_A230_Functions/DGC_A230_Normal_Mode.c **** 	case MACHINE_STATE_STOP:
 285:../DGC_A230_Functions/DGC_A230_Normal_Mode.c **** 	{
 286:../DGC_A230_Functions/DGC_A230_Normal_Mode.c **** 		if (Leaf_No1_State == GATE_STATE_CLOSED) // Step OPen
 287:../DGC_A230_Functions/DGC_A230_Normal_Mode.c **** 		{
 288:../DGC_A230_Functions/DGC_A230_Normal_Mode.c **** 			if (!((FT1 && (CFG_parameter.Photocell_FT1_Mode_Closed == 0x00)) || (FT2 && (CFG_parameter.Photo
 289:../DGC_A230_Functions/DGC_A230_Normal_Mode.c **** 			{
 290:../DGC_A230_Functions/DGC_A230_Normal_Mode.c **** 				Pre_flash_Time = CFG_parameter.Pre_Flashing;
 291:../DGC_A230_Functions/DGC_A230_Normal_Mode.c **** 				__Do_Open_Gate_Motor1();
 292:../DGC_A230_Functions/DGC_A230_Normal_Mode.c **** 				__Do_Open_Gate_Motor2();
 293:../DGC_A230_Functions/DGC_A230_Normal_Mode.c **** 			}
 294:../DGC_A230_Functions/DGC_A230_Normal_Mode.c **** 		}
 295:../DGC_A230_Functions/DGC_A230_Normal_Mode.c **** 		else if (Leaf_No1_State == GATE_STATE_CLOSING_PAUSE)
 296:../DGC_A230_Functions/DGC_A230_Normal_Mode.c **** 		{
 297:../DGC_A230_Functions/DGC_A230_Normal_Mode.c **** 			Pre_flash_Time = CFG_parameter.Pre_Flashing;
 298:../DGC_A230_Functions/DGC_A230_Normal_Mode.c **** 			__Do_Open_Gate_Motor1();
 299:../DGC_A230_Functions/DGC_A230_Normal_Mode.c **** 			__Do_Open_Gate_Motor2();
 300:../DGC_A230_Functions/DGC_A230_Normal_Mode.c **** 		}
 301:../DGC_A230_Functions/DGC_A230_Normal_Mode.c **** 		else if ((Leaf_No1_State == GATE_STATE_PARTIAL) || (Leaf_No1_State == GATE_STATE_PATIAL_OPENING_P
 302:../DGC_A230_Functions/DGC_A230_Normal_Mode.c **** 		{
 303:../DGC_A230_Functions/DGC_A230_Normal_Mode.c **** 			Pre_flash_Time = CFG_parameter.Pre_Flashing;
 304:../DGC_A230_Functions/DGC_A230_Normal_Mode.c **** 			__Do_Partial_Close_Gate();
 305:../DGC_A230_Functions/DGC_A230_Normal_Mode.c **** 		}
 306:../DGC_A230_Functions/DGC_A230_Normal_Mode.c **** 		else		// Step Close
 307:../DGC_A230_Functions/DGC_A230_Normal_Mode.c **** 		{
 308:../DGC_A230_Functions/DGC_A230_Normal_Mode.c **** 			Pre_flash_Time = CFG_parameter.Pre_Flashing;
 309:../DGC_A230_Functions/DGC_A230_Normal_Mode.c **** 			__Do_Close_Gate_Motor1();
 310:../DGC_A230_Functions/DGC_A230_Normal_Mode.c **** 			__Do_Close_Gate_Motor2();
 311:../DGC_A230_Functions/DGC_A230_Normal_Mode.c **** 		}
 312:../DGC_A230_Functions/DGC_A230_Normal_Mode.c **** 	} break;
 313:../DGC_A230_Functions/DGC_A230_Normal_Mode.c **** 
 314:../DGC_A230_Functions/DGC_A230_Normal_Mode.c **** 	case MACHINE_STATE_NORMAL_OPENING:
 315:../DGC_A230_Functions/DGC_A230_Normal_Mode.c **** 	{
 316:../DGC_A230_Functions/DGC_A230_Normal_Mode.c **** 		Leaf_No1_State = GATE_STATE_OPENING_PAUSE;
 317:../DGC_A230_Functions/DGC_A230_Normal_Mode.c **** 		Leaf_No2_State = GATE_STATE_OPENING_PAUSE;
 318:../DGC_A230_Functions/DGC_A230_Normal_Mode.c **** 		__Do_Stop_Gate_Motor1(OPEN_MOVING_DIRECTION);
 319:../DGC_A230_Functions/DGC_A230_Normal_Mode.c **** 		__Do_Stop_Gate_Motor2(OPEN_MOVING_DIRECTION);
 320:../DGC_A230_Functions/DGC_A230_Normal_Mode.c **** 	} break;
 321:../DGC_A230_Functions/DGC_A230_Normal_Mode.c **** 
 322:../DGC_A230_Functions/DGC_A230_Normal_Mode.c **** 	case MACHINE_STATE_NORMAL_CLOSING:
 323:../DGC_A230_Functions/DGC_A230_Normal_Mode.c **** 	{
 324:../DGC_A230_Functions/DGC_A230_Normal_Mode.c **** 		Leaf_No1_State = GATE_STATE_CLOSING_PAUSE;
 325:../DGC_A230_Functions/DGC_A230_Normal_Mode.c **** 		Leaf_No2_State = GATE_STATE_CLOSING_PAUSE;
 326:../DGC_A230_Functions/DGC_A230_Normal_Mode.c **** 		__Do_Stop_Gate_Motor1(CLOSE_MOVING_DIRECTION);
 327:../DGC_A230_Functions/DGC_A230_Normal_Mode.c **** 		__Do_Stop_Gate_Motor2(CLOSE_MOVING_DIRECTION);
 328:../DGC_A230_Functions/DGC_A230_Normal_Mode.c **** 	} break;
 329:../DGC_A230_Functions/DGC_A230_Normal_Mode.c **** 
 330:../DGC_A230_Functions/DGC_A230_Normal_Mode.c **** 	case MACHINE_STATE_PARTIAL_OPENING:
 331:../DGC_A230_Functions/DGC_A230_Normal_Mode.c **** 	{
 332:../DGC_A230_Functions/DGC_A230_Normal_Mode.c **** 		Leaf_No1_State = GATE_STATE_PATIAL_OPENING_PAUSE;
 333:../DGC_A230_Functions/DGC_A230_Normal_Mode.c **** 		__Do_Partial_Stop_Gate(OPEN_MOVING_DIRECTION);
 334:../DGC_A230_Functions/DGC_A230_Normal_Mode.c **** 	} break;
 335:../DGC_A230_Functions/DGC_A230_Normal_Mode.c **** 
 336:../DGC_A230_Functions/DGC_A230_Normal_Mode.c **** 	case MACHINE_STATE_PARTIAL_CLOSING:
 337:../DGC_A230_Functions/DGC_A230_Normal_Mode.c **** 	{
 338:../DGC_A230_Functions/DGC_A230_Normal_Mode.c **** 		Leaf_No1_State = GATE_STATE_CLOSING_PAUSE;
 339:../DGC_A230_Functions/DGC_A230_Normal_Mode.c **** 		__Do_Partial_Stop_Gate(CLOSE_MOVING_DIRECTION);
 340:../DGC_A230_Functions/DGC_A230_Normal_Mode.c **** 	} break;
 341:../DGC_A230_Functions/DGC_A230_Normal_Mode.c **** 
 342:../DGC_A230_Functions/DGC_A230_Normal_Mode.c **** 	default: break;
 1114                             		.loc 1 342 0
 1115 0037 EC 7D 01 00             		br	!!.L71
 1116                             	.L74:
 282:../DGC_A230_Functions/DGC_A230_Normal_Mode.c **** 	switch(Machine_State)
 1117                             		.loc 1 282 0
 1118 003b AD F0                   		movw	ax, r8
 1119 003d 44 03 00                		cmpw	ax, #3
 1120 0040 61 F8                   		 sknz
 1121 0042 EC 60 01 00             		 br	!!.L77
 1122 0046 AD F0                   		movw	ax, r8
 1123 0048 44 04 00                		cmpw	ax, #4
 1124 004b 61 F8                   		 sknz
 1125 004d EC 70 01 00             		 br	!!.L78
 1126                             		.loc 1 342 0
 1127 0051 EC 7D 01 00             		br	!!.L71
 1128                             	.L75:
 286:../DGC_A230_Functions/DGC_A230_Normal_Mode.c **** 		{
 1129                             		.loc 1 286 0
 1130 0055 8F 00 00                		mov	a, !_Leaf_No1_State
 1131 0058 9D F0                   		mov	r8, a
 1132 005a 4A F0 01                		cmp	r8, #1
 1133 005d 61 E8                   		 skz
 1134 005f EC C2 00 00             		 br	!!.L79
 288:../DGC_A230_Functions/DGC_A230_Normal_Mode.c **** 			{
 1135                             		.loc 1 288 0
 1136 0063 C9 F0 07 FF             		movw	r8, #-249
 1137 0067 AD F0                   		movw	ax, r8
 1138 0069 BD F2                   		movw	r10, ax
 1139 006b FA F2                   		movw	hl, r10
 1140 006d 8B                      		mov	a, [hl]
 1141 006e 9D F0                   		mov	r8, a
 1142 0070 31 1A                   		shr	a, 1
 1143 0072 9D F0                   		mov	r8, a
 1144 0074 5A F0 01                		and	r8, #1
 1145 0077 61 F8                   		sknz
 1146 0079 EC 8A 00 00             		 br	!!.L80
 1147                             		 # zero-comparison eliminated
 288:../DGC_A230_Functions/DGC_A230_Normal_Mode.c **** 			{
 1148                             		.loc 1 288 0 is_stmt 0 discriminator 2
 1149 007d 8F 00 00                		mov	a, !_CFG_parameter+82
 1150 0080 9D F0                   		mov	r8, a
 1151 0082 D4 F0                   		cmp0	r8
 1152 0084 61 F8                   		 sknz
 1153 0086 EC 24 01 00             		 br	!!.L83
 1154                             	.L80:
 288:../DGC_A230_Functions/DGC_A230_Normal_Mode.c **** 			{
 1155                             		.loc 1 288 0 discriminator 3
 1156 008a C9 F0 07 FF             		movw	r8, #-249
 1157 008e AD F0                   		movw	ax, r8
 1158 0090 BD F2                   		movw	r10, ax
 1159 0092 EA F2                   		movw	de, r10
 1160 0094 89                      		mov	a, [de]
 1161 0095 5C 01                   		and	a, #1
 1162 0097 9D F0                   		mov	r8, a
 1163 0099 D4 F0                   		cmp0	r8
 1164 009b 61 F8                   		 sknz
 1165 009d EC AE 00 00             		 br	!!.L82
 288:../DGC_A230_Functions/DGC_A230_Normal_Mode.c **** 			{
 1166                             		.loc 1 288 0 discriminator 4
 1167 00a1 8F 00 00                		mov	a, !_CFG_parameter+85
 1168 00a4 9D F0                   		mov	r8, a
 1169 00a6 D4 F0                   		cmp0	r8
 1170 00a8 61 F8                   		 sknz
 1171 00aa EC 24 01 00             		 br	!!.L83
 1172                             	.L82:
 1173                             	.LBB15:
 290:../DGC_A230_Functions/DGC_A230_Normal_Mode.c **** 				__Do_Open_Gate_Motor1();
 1174                             		.loc 1 290 0 is_stmt 1
 1175 00ae 8F 00 00                		mov	a, !_CFG_parameter+52
 1176 00b1 9D F0                   		mov	r8, a
 1177 00b3 9F 00 00                		mov	!_Pre_flash_Time, a
 291:../DGC_A230_Functions/DGC_A230_Normal_Mode.c **** 				__Do_Open_Gate_Motor2();
 1178                             		.loc 1 291 0
 1179 00b6 FC 00 00 00             		call	!!%code(___Do_Open_Gate_Motor1)
 292:../DGC_A230_Functions/DGC_A230_Normal_Mode.c **** 			}
 1180                             		.loc 1 292 0
 1181 00ba FC 00 00 00             		call	!!%code(___Do_Open_Gate_Motor2)
 1182                             	.LBE15:
 312:../DGC_A230_Functions/DGC_A230_Normal_Mode.c **** 
 1183                             		.loc 1 312 0
 1184 00be EC 7D 01 00             		br	!!.L71
 1185                             	.L79:
 295:../DGC_A230_Functions/DGC_A230_Normal_Mode.c **** 		{
 1186                             		.loc 1 295 0
 1187 00c2 8F 00 00                		mov	a, !_Leaf_No1_State
 1188 00c5 9D F0                   		mov	r8, a
 1189 00c7 4A F0 07                		cmp	r8, #7
 1190 00ca 61 E8                   		 skz
 1191 00cc EC E4 00 00             		 br	!!.L84
 1192                             	.LBB16:
 297:../DGC_A230_Functions/DGC_A230_Normal_Mode.c **** 			__Do_Open_Gate_Motor1();
 1193                             		.loc 1 297 0
 1194 00d0 8F 00 00                		mov	a, !_CFG_parameter+52
 1195 00d3 9D F0                   		mov	r8, a
 1196 00d5 9F 00 00                		mov	!_Pre_flash_Time, a
 298:../DGC_A230_Functions/DGC_A230_Normal_Mode.c **** 			__Do_Open_Gate_Motor2();
 1197                             		.loc 1 298 0
 1198 00d8 FC 00 00 00             		call	!!%code(___Do_Open_Gate_Motor1)
 299:../DGC_A230_Functions/DGC_A230_Normal_Mode.c **** 		}
 1199                             		.loc 1 299 0
 1200 00dc FC 00 00 00             		call	!!%code(___Do_Open_Gate_Motor2)
 1201                             	.LBE16:
 1202 00e0 EC 24 01 00             		br	!!.L83
 1203                             	.L84:
 301:../DGC_A230_Functions/DGC_A230_Normal_Mode.c **** 		{
 1204                             		.loc 1 301 0
 1205 00e4 8F 00 00                		mov	a, !_Leaf_No1_State
 1206 00e7 9D F0                   		mov	r8, a
 1207 00e9 4A F0 05                		cmp	r8, #5
 1208 00ec 61 F8                   		 sknz
 1209 00ee EC 00 01 00             		 br	!!.L85
 301:../DGC_A230_Functions/DGC_A230_Normal_Mode.c **** 		{
 1210                             		.loc 1 301 0 is_stmt 0 discriminator 1
 1211 00f2 8F 00 00                		mov	a, !_Leaf_No1_State
 1212 00f5 9D F0                   		mov	r8, a
 1213 00f7 4A F0 08                		cmp	r8, #8
 1214 00fa 61 E8                   		 skz
 1215 00fc EC 10 01 00             		 br	!!.L86
 1216                             	.L85:
 1217                             	.LBB17:
 303:../DGC_A230_Functions/DGC_A230_Normal_Mode.c **** 			__Do_Partial_Close_Gate();
 1218                             		.loc 1 303 0 is_stmt 1
 1219 0100 8F 00 00                		mov	a, !_CFG_parameter+52
 1220 0103 9D F0                   		mov	r8, a
 1221 0105 9F 00 00                		mov	!_Pre_flash_Time, a
 304:../DGC_A230_Functions/DGC_A230_Normal_Mode.c **** 		}
 1222                             		.loc 1 304 0
 1223 0108 FC 00 00 00             		call	!!%code(___Do_Partial_Close_Gate)
 1224                             	.LBE17:
 302:../DGC_A230_Functions/DGC_A230_Normal_Mode.c **** 			Pre_flash_Time = CFG_parameter.Pre_Flashing;
 1225                             		.loc 1 302 0
 1226 010c EC 24 01 00             		br	!!.L83
 1227                             	.L86:
 1228                             	.LBB18:
 308:../DGC_A230_Functions/DGC_A230_Normal_Mode.c **** 			__Do_Close_Gate_Motor1();
 1229                             		.loc 1 308 0
 1230 0110 8F 00 00                		mov	a, !_CFG_parameter+52
 1231 0113 9D F0                   		mov	r8, a
 1232 0115 9F 00 00                		mov	!_Pre_flash_Time, a
 309:../DGC_A230_Functions/DGC_A230_Normal_Mode.c **** 			__Do_Close_Gate_Motor2();
 1233                             		.loc 1 309 0
 1234 0118 FC 00 00 00             		call	!!%code(___Do_Close_Gate_Motor1)
 310:../DGC_A230_Functions/DGC_A230_Normal_Mode.c **** 		}
 1235                             		.loc 1 310 0
 1236 011c FC 00 00 00             		call	!!%code(___Do_Close_Gate_Motor2)
 1237                             	.LBE18:
 312:../DGC_A230_Functions/DGC_A230_Normal_Mode.c **** 
 1238                             		.loc 1 312 0
 1239 0120 EC 7D 01 00             		br	!!.L71
 1240                             	.L83:
 312:../DGC_A230_Functions/DGC_A230_Normal_Mode.c **** 
 1241                             		.loc 1 312 0 is_stmt 0 discriminator 1
 1242 0124 EC 7D 01 00             		br	!!.L71
 1243                             	.L76:
 1244                             	.LBB19:
 316:../DGC_A230_Functions/DGC_A230_Normal_Mode.c **** 		Leaf_No2_State = GATE_STATE_OPENING_PAUSE;
 1245                             		.loc 1 316 0 is_stmt 1
 1246 0128 51 06                   		mov	a, #6
 1247 012a 9F 00 00                		mov	!_Leaf_No1_State, a
 317:../DGC_A230_Functions/DGC_A230_Normal_Mode.c **** 		__Do_Stop_Gate_Motor1(OPEN_MOVING_DIRECTION);
 1248                             		.loc 1 317 0
 1249 012d 51 06                   		mov	a, #6
 1250 012f 9F 00 00                		mov	!_Leaf_No2_State, a
 318:../DGC_A230_Functions/DGC_A230_Normal_Mode.c **** 		__Do_Stop_Gate_Motor2(OPEN_MOVING_DIRECTION);
 1251                             		.loc 1 318 0
 1252 0132 F6                      		clrw	ax
 1253 0133 B8 00                   		movw	[sp], ax
 1254 0135 FC 00 00 00             		call	!!%code(___Do_Stop_Gate_Motor1)
 319:../DGC_A230_Functions/DGC_A230_Normal_Mode.c **** 	} break;
 1255                             		.loc 1 319 0
 1256 0139 F6                      		clrw	ax
 1257 013a B8 00                   		movw	[sp], ax
 1258 013c FC 00 00 00             		call	!!%code(___Do_Stop_Gate_Motor2)
 1259                             	.LBE19:
 320:../DGC_A230_Functions/DGC_A230_Normal_Mode.c **** 
 1260                             		.loc 1 320 0
 1261 0140 EC 7D 01 00             		br	!!.L71
 1262                             	.L73:
 1263                             	.LBB20:
 324:../DGC_A230_Functions/DGC_A230_Normal_Mode.c **** 		Leaf_No2_State = GATE_STATE_CLOSING_PAUSE;
 1264                             		.loc 1 324 0
 1265 0144 51 07                   		mov	a, #7
 1266 0146 9F 00 00                		mov	!_Leaf_No1_State, a
 325:../DGC_A230_Functions/DGC_A230_Normal_Mode.c **** 		__Do_Stop_Gate_Motor1(CLOSE_MOVING_DIRECTION);
 1267                             		.loc 1 325 0
 1268 0149 51 07                   		mov	a, #7
 1269 014b 9F 00 00                		mov	!_Leaf_No2_State, a
 326:../DGC_A230_Functions/DGC_A230_Normal_Mode.c **** 		__Do_Stop_Gate_Motor2(CLOSE_MOVING_DIRECTION);
 1270                             		.loc 1 326 0
 1271 014e E6                      		onew	ax
 1272 014f B8 00                   		movw	[sp], ax
 1273 0151 FC 00 00 00             		call	!!%code(___Do_Stop_Gate_Motor1)
 327:../DGC_A230_Functions/DGC_A230_Normal_Mode.c **** 	} break;
 1274                             		.loc 1 327 0
 1275 0155 E6                      		onew	ax
 1276 0156 B8 00                   		movw	[sp], ax
 1277 0158 FC 00 00 00             		call	!!%code(___Do_Stop_Gate_Motor2)
 1278                             	.LBE20:
 328:../DGC_A230_Functions/DGC_A230_Normal_Mode.c **** 
 1279                             		.loc 1 328 0
 1280 015c EC 7D 01 00             		br	!!.L71
 1281                             	.L77:
 1282                             	.LBB21:
 332:../DGC_A230_Functions/DGC_A230_Normal_Mode.c **** 		__Do_Partial_Stop_Gate(OPEN_MOVING_DIRECTION);
 1283                             		.loc 1 332 0
 1284 0160 51 08                   		mov	a, #8
 1285 0162 9F 00 00                		mov	!_Leaf_No1_State, a
 333:../DGC_A230_Functions/DGC_A230_Normal_Mode.c **** 	} break;
 1286                             		.loc 1 333 0
 1287 0165 F6                      		clrw	ax
 1288 0166 B8 00                   		movw	[sp], ax
 1289 0168 FC 00 00 00             		call	!!%code(___Do_Partial_Stop_Gate)
 1290                             	.LBE21:
 334:../DGC_A230_Functions/DGC_A230_Normal_Mode.c **** 
 1291                             		.loc 1 334 0
 1292 016c EC 7D 01 00             		br	!!.L71
 1293                             	.L78:
 1294                             	.LBB22:
 338:../DGC_A230_Functions/DGC_A230_Normal_Mode.c **** 		__Do_Partial_Stop_Gate(CLOSE_MOVING_DIRECTION);
 1295                             		.loc 1 338 0
 1296 0170 51 07                   		mov	a, #7
 1297 0172 9F 00 00                		mov	!_Leaf_No1_State, a
 339:../DGC_A230_Functions/DGC_A230_Normal_Mode.c **** 	} break;
 1298                             		.loc 1 339 0
 1299 0175 E6                      		onew	ax
 1300 0176 B8 00                   		movw	[sp], ax
 1301 0178 FC 00 00 00             		call	!!%code(___Do_Partial_Stop_Gate)
 1302                             	.LBE22:
 340:../DGC_A230_Functions/DGC_A230_Normal_Mode.c **** 
 1303                             		.loc 1 340 0
 1304 017c 00                      		nop
 1305                             	.L71:
 343:../DGC_A230_Functions/DGC_A230_Normal_Mode.c **** 	}
 344:../DGC_A230_Functions/DGC_A230_Normal_Mode.c **** }
 1306                             		.loc 1 344 0
 1307 017d 10 02                   		addw	sp, #2
 1308 017f D7                      		ret
 1309                             	.LFE4:
 1311                             		.section	.text.Step_Command_Process_Mode_1,"ax",@progbits
 1312                             		.global	_Step_Command_Process_Mode_1
 1314                             	_Step_Command_Process_Mode_1:
 1315                             	.LFB5:
 345:../DGC_A230_Functions/DGC_A230_Normal_Mode.c **** 
 346:../DGC_A230_Functions/DGC_A230_Normal_Mode.c **** void Step_Command_Process_Mode_1 (void)
 347:../DGC_A230_Functions/DGC_A230_Normal_Mode.c **** {
 1316                             		.loc 1 347 0
 1317                             		; start of function
 1318                             		; outgoing: 2 bytes
 1319                             		; uses ES register
 1320 0000 20 02                   		subw	sp, #2
 1321                             	.LCFI3:
 348:../DGC_A230_Functions/DGC_A230_Normal_Mode.c **** 	switch(Machine_State)
 1322                             		.loc 1 348 0
 1323 0002 8F 00 00                		mov	a, !_Machine_State
 1324 0005 9D F0                   		mov	r8, a
 1325 0007 F4 F1                   		clrb	r9
 1326 0009 AD F0                   		movw	ax, r8
 1327 000b 44 02 00                		cmpw	ax, #2
 1328 000e 61 F8                   		 sknz
 1329 0010 EC 5C 01 00             		 br	!!.L90
 1330 0014 AD F0                   		movw	ax, r8
 1331 0016 44 02 00                		cmpw	ax, #2
 1332 0019 71 FF                   		 xor1	CY, a.7
 1333 001b 61 F3                   		 sknh
 1334 001d EC 3B 00 00             		 br	!!.L91
 1335 0021 AD F0                   		movw	ax, r8
 1336 0023 44 00 00                		cmpw	ax, #0
 1337 0026 61 F8                   		 sknz
 1338 0028 EC 55 00 00             		 br	!!.L92
 1339 002c AD F0                   		movw	ax, r8
 1340 002e 44 01 00                		cmpw	ax, #1
 1341 0031 61 F8                   		 sknz
 1342 0033 EC 05 02 00             		 br	!!.L108
 349:../DGC_A230_Functions/DGC_A230_Normal_Mode.c **** 	{
 350:../DGC_A230_Functions/DGC_A230_Normal_Mode.c **** 	case MACHINE_STATE_STOP:
 351:../DGC_A230_Functions/DGC_A230_Normal_Mode.c **** 	{
 352:../DGC_A230_Functions/DGC_A230_Normal_Mode.c **** 		if (((Leaf_No1_State == GATE_STATE_OPENED) && (CFG_parameter.Number_Of_Motors == 0x01))
 353:../DGC_A230_Functions/DGC_A230_Normal_Mode.c **** 			|| ((Leaf_No1_State == GATE_STATE_OPENED) && (Leaf_No2_State == GATE_STATE_OPENED) && (CFG_param
 354:../DGC_A230_Functions/DGC_A230_Normal_Mode.c **** 		{
 355:../DGC_A230_Functions/DGC_A230_Normal_Mode.c **** 			Auto_Close_Gate_Retry_Number = Auto_Close_Retry_Number;
 356:../DGC_A230_Functions/DGC_A230_Normal_Mode.c **** 			Auto_Close_Gate_Timer_Counter = 0;
 357:../DGC_A230_Functions/DGC_A230_Normal_Mode.c **** 			Auto_Close_Gate_Timer_Enable = 1;
 358:../DGC_A230_Functions/DGC_A230_Normal_Mode.c **** 		}
 359:../DGC_A230_Functions/DGC_A230_Normal_Mode.c **** 		else if (Leaf_No1_State == GATE_STATE_PARTIAL)
 360:../DGC_A230_Functions/DGC_A230_Normal_Mode.c **** 		{
 361:../DGC_A230_Functions/DGC_A230_Normal_Mode.c **** 			Auto_Close_Gate_Timer_Counter = 0;
 362:../DGC_A230_Functions/DGC_A230_Normal_Mode.c **** 			Auto_Close_Gate_Timer_Enable = 0;
 363:../DGC_A230_Functions/DGC_A230_Normal_Mode.c **** 			Pre_flash_Time = CFG_parameter.Pre_Flashing;
 364:../DGC_A230_Functions/DGC_A230_Normal_Mode.c **** 			__Do_Open_Gate_Motor1();
 365:../DGC_A230_Functions/DGC_A230_Normal_Mode.c **** 			__Do_Open_Gate_Motor2();
 366:../DGC_A230_Functions/DGC_A230_Normal_Mode.c **** 		}
 367:../DGC_A230_Functions/DGC_A230_Normal_Mode.c **** 		else
 368:../DGC_A230_Functions/DGC_A230_Normal_Mode.c **** 		{
 369:../DGC_A230_Functions/DGC_A230_Normal_Mode.c **** 			if (Leaf_No1_State == GATE_STATE_CLOSED) // Step OPen
 370:../DGC_A230_Functions/DGC_A230_Normal_Mode.c **** 			{
 371:../DGC_A230_Functions/DGC_A230_Normal_Mode.c **** 				if (!((FT1 && (CFG_parameter.Photocell_FT1_Mode_Closed == 0x00)) || (FT2 && (CFG_parameter.Phot
 372:../DGC_A230_Functions/DGC_A230_Normal_Mode.c **** 				{
 373:../DGC_A230_Functions/DGC_A230_Normal_Mode.c **** 					Pre_flash_Time = CFG_parameter.Pre_Flashing;
 374:../DGC_A230_Functions/DGC_A230_Normal_Mode.c **** 					__Do_Open_Gate_Motor1();
 375:../DGC_A230_Functions/DGC_A230_Normal_Mode.c **** 					__Do_Open_Gate_Motor2();
 376:../DGC_A230_Functions/DGC_A230_Normal_Mode.c **** 				}
 377:../DGC_A230_Functions/DGC_A230_Normal_Mode.c **** 			}
 378:../DGC_A230_Functions/DGC_A230_Normal_Mode.c **** 			else
 379:../DGC_A230_Functions/DGC_A230_Normal_Mode.c **** 			{
 380:../DGC_A230_Functions/DGC_A230_Normal_Mode.c **** 				Pre_flash_Time = CFG_parameter.Pre_Flashing;
 381:../DGC_A230_Functions/DGC_A230_Normal_Mode.c **** 				__Do_Open_Gate_Motor1();
 382:../DGC_A230_Functions/DGC_A230_Normal_Mode.c **** 				__Do_Open_Gate_Motor2();
 383:../DGC_A230_Functions/DGC_A230_Normal_Mode.c **** 			}
 384:../DGC_A230_Functions/DGC_A230_Normal_Mode.c **** 		}
 385:../DGC_A230_Functions/DGC_A230_Normal_Mode.c **** 	} break;
 386:../DGC_A230_Functions/DGC_A230_Normal_Mode.c **** 
 387:../DGC_A230_Functions/DGC_A230_Normal_Mode.c **** 	case MACHINE_STATE_NORMAL_OPENING:
 388:../DGC_A230_Functions/DGC_A230_Normal_Mode.c **** 	{
 389:../DGC_A230_Functions/DGC_A230_Normal_Mode.c **** 	} break;
 390:../DGC_A230_Functions/DGC_A230_Normal_Mode.c **** 
 391:../DGC_A230_Functions/DGC_A230_Normal_Mode.c **** 	case MACHINE_STATE_NORMAL_CLOSING:
 392:../DGC_A230_Functions/DGC_A230_Normal_Mode.c **** 	{
 393:../DGC_A230_Functions/DGC_A230_Normal_Mode.c **** 		Leaf_No1_State = GATE_STATE_CLOSING_PAUSE;
 394:../DGC_A230_Functions/DGC_A230_Normal_Mode.c **** 		Leaf_No2_State = GATE_STATE_CLOSING_PAUSE;
 395:../DGC_A230_Functions/DGC_A230_Normal_Mode.c **** 
 396:../DGC_A230_Functions/DGC_A230_Normal_Mode.c **** 		if (CFG_parameter.Reverse_Command_Enable_Braking == 0x01)
 397:../DGC_A230_Functions/DGC_A230_Normal_Mode.c **** 		{
 398:../DGC_A230_Functions/DGC_A230_Normal_Mode.c **** 			if (CFG_parameter.Number_Of_Motors == 0x02)
 399:../DGC_A230_Functions/DGC_A230_Normal_Mode.c **** 				__Do_Brake_Motor_Type_2(CLOSE_MOVING_DIRECTION);
 400:../DGC_A230_Functions/DGC_A230_Normal_Mode.c **** 			else
 401:../DGC_A230_Functions/DGC_A230_Normal_Mode.c **** 				__Do_Brake_Motor_Type_1(CLOSE_MOVING_DIRECTION);
 402:../DGC_A230_Functions/DGC_A230_Normal_Mode.c **** 		}
 403:../DGC_A230_Functions/DGC_A230_Normal_Mode.c **** 		__Do_Stop_Gate_Motor1(CLOSE_MOVING_DIRECTION);
 404:../DGC_A230_Functions/DGC_A230_Normal_Mode.c **** 		__Do_Stop_Gate_Motor2(CLOSE_MOVING_DIRECTION);
 405:../DGC_A230_Functions/DGC_A230_Normal_Mode.c **** 
 406:../DGC_A230_Functions/DGC_A230_Normal_Mode.c **** 		Auto_Close_Gate_Timer_Counter = 0;
 407:../DGC_A230_Functions/DGC_A230_Normal_Mode.c **** 		Auto_Close_Gate_Timer_Enable = 0;
 408:../DGC_A230_Functions/DGC_A230_Normal_Mode.c **** 		Auto_Close_Gate_Retry_Number = Auto_Close_Retry_Number;
 409:../DGC_A230_Functions/DGC_A230_Normal_Mode.c **** 		Pre_flash_Time = 0x00;
 410:../DGC_A230_Functions/DGC_A230_Normal_Mode.c **** 		__Do_Open_Gate_Motor1();
 411:../DGC_A230_Functions/DGC_A230_Normal_Mode.c **** 		__Do_Open_Gate_Motor2();
 412:../DGC_A230_Functions/DGC_A230_Normal_Mode.c **** 	} break;
 413:../DGC_A230_Functions/DGC_A230_Normal_Mode.c **** 
 414:../DGC_A230_Functions/DGC_A230_Normal_Mode.c **** 	case MACHINE_STATE_PARTIAL_OPENING:
 415:../DGC_A230_Functions/DGC_A230_Normal_Mode.c **** 	{
 416:../DGC_A230_Functions/DGC_A230_Normal_Mode.c **** 		Leaf_No1_State = GATE_STATE_PATIAL_OPENING_PAUSE;
 417:../DGC_A230_Functions/DGC_A230_Normal_Mode.c **** 		__Do_Partial_Stop_Gate(OPEN_MOVING_DIRECTION);
 418:../DGC_A230_Functions/DGC_A230_Normal_Mode.c **** 		Pre_flash_Time = 0x00;
 419:../DGC_A230_Functions/DGC_A230_Normal_Mode.c **** 		__Do_Open_Gate_Motor1();
 420:../DGC_A230_Functions/DGC_A230_Normal_Mode.c **** 		__Do_Open_Gate_Motor2();
 421:../DGC_A230_Functions/DGC_A230_Normal_Mode.c **** 	} break;
 422:../DGC_A230_Functions/DGC_A230_Normal_Mode.c **** 
 423:../DGC_A230_Functions/DGC_A230_Normal_Mode.c **** 	case MACHINE_STATE_PARTIAL_CLOSING:
 424:../DGC_A230_Functions/DGC_A230_Normal_Mode.c **** 	{
 425:../DGC_A230_Functions/DGC_A230_Normal_Mode.c **** 		Leaf_No1_State = GATE_STATE_CLOSING_PAUSE;
 426:../DGC_A230_Functions/DGC_A230_Normal_Mode.c **** 		__Do_Partial_Stop_Gate(CLOSE_MOVING_DIRECTION);
 427:../DGC_A230_Functions/DGC_A230_Normal_Mode.c **** 		Auto_Close_Gate_Timer_Counter = 0;
 428:../DGC_A230_Functions/DGC_A230_Normal_Mode.c **** 		Auto_Close_Gate_Timer_Enable = 0;
 429:../DGC_A230_Functions/DGC_A230_Normal_Mode.c **** 		Auto_Close_Gate_Retry_Number = Auto_Close_Retry_Number;
 430:../DGC_A230_Functions/DGC_A230_Normal_Mode.c **** 		Pre_flash_Time = 0x00;
 431:../DGC_A230_Functions/DGC_A230_Normal_Mode.c **** 		__Do_Open_Gate_Motor1();
 432:../DGC_A230_Functions/DGC_A230_Normal_Mode.c **** 		__Do_Open_Gate_Motor2();
 433:../DGC_A230_Functions/DGC_A230_Normal_Mode.c **** 	} break;
 434:../DGC_A230_Functions/DGC_A230_Normal_Mode.c **** 
 435:../DGC_A230_Functions/DGC_A230_Normal_Mode.c **** 	default: break;
 1343                             		.loc 1 435 0
 1344 0037 EC 06 02 00             		br	!!.L88
 1345                             	.L91:
 348:../DGC_A230_Functions/DGC_A230_Normal_Mode.c **** 	switch(Machine_State)
 1346                             		.loc 1 348 0
 1347 003b AD F0                   		movw	ax, r8
 1348 003d 44 03 00                		cmpw	ax, #3
 1349 0040 61 F8                   		 sknz
 1350 0042 EC C0 01 00             		 br	!!.L94
 1351 0046 AD F0                   		movw	ax, r8
 1352 0048 44 04 00                		cmpw	ax, #4
 1353 004b 61 F8                   		 sknz
 1354 004d EC DB 01 00             		 br	!!.L95
 1355                             		.loc 1 435 0
 1356 0051 EC 06 02 00             		br	!!.L88
 1357                             	.L92:
 352:../DGC_A230_Functions/DGC_A230_Normal_Mode.c **** 			|| ((Leaf_No1_State == GATE_STATE_OPENED) && (Leaf_No2_State == GATE_STATE_OPENED) && (CFG_param
 1358                             		.loc 1 352 0
 1359 0055 8F 00 00                		mov	a, !_Leaf_No1_State
 1360 0058 9D F0                   		mov	r8, a
 1361 005a 4A F0 03                		cmp	r8, #3
 1362 005d 61 E8                   		 skz
 1363 005f EC 71 00 00             		 br	!!.L96
 352:../DGC_A230_Functions/DGC_A230_Normal_Mode.c **** 			|| ((Leaf_No1_State == GATE_STATE_OPENED) && (Leaf_No2_State == GATE_STATE_OPENED) && (CFG_param
 1364                             		.loc 1 352 0 is_stmt 0 discriminator 1
 1365 0063 8F 00 00                		mov	a, !_CFG_parameter+1
 1366 0066 9D F0                   		mov	r8, a
 1367 0068 4A F0 01                		cmp	r8, #1
 1368 006b 61 F8                   		 sknz
 1369 006d EC 9B 00 00             		 br	!!.L97
 1370                             	.L96:
 353:../DGC_A230_Functions/DGC_A230_Normal_Mode.c **** 		{
 1371                             		.loc 1 353 0 is_stmt 1
 1372 0071 8F 00 00                		mov	a, !_Leaf_No1_State
 1373 0074 9D F0                   		mov	r8, a
 1374 0076 4A F0 03                		cmp	r8, #3
 1375 0079 61 E8                   		 skz
 1376 007b EC AE 00 00             		 br	!!.L98
 353:../DGC_A230_Functions/DGC_A230_Normal_Mode.c **** 		{
 1377                             		.loc 1 353 0 is_stmt 0 discriminator 1
 1378 007f 8F 00 00                		mov	a, !_Leaf_No2_State
 1379 0082 9D F0                   		mov	r8, a
 1380 0084 4A F0 03                		cmp	r8, #3
 1381 0087 61 E8                   		 skz
 1382 0089 EC AE 00 00             		 br	!!.L98
 353:../DGC_A230_Functions/DGC_A230_Normal_Mode.c **** 		{
 1383                             		.loc 1 353 0 discriminator 2
 1384 008d 8F 00 00                		mov	a, !_CFG_parameter+1
 1385 0090 9D F0                   		mov	r8, a
 1386 0092 4A F0 02                		cmp	r8, #2
 1387 0095 61 E8                   		 skz
 1388 0097 EC AE 00 00             		 br	!!.L98
 1389                             	.L97:
 355:../DGC_A230_Functions/DGC_A230_Normal_Mode.c **** 			Auto_Close_Gate_Timer_Counter = 0;
 1390                             		.loc 1 355 0 is_stmt 1
 1391 009b 8F 00 00                		mov	a, !_Auto_Close_Retry_Number
 1392 009e 9D F0                   		mov	r8, a
 1393 00a0 9F 00 00                		mov	!_Auto_Close_Gate_Retry_Number, a
 356:../DGC_A230_Functions/DGC_A230_Normal_Mode.c **** 			Auto_Close_Gate_Timer_Enable = 1;
 1394                             		.loc 1 356 0
 1395 00a3 F6                      		clrw	ax
 1396 00a4 BF 00 00                		movw	!_Auto_Close_Gate_Timer_Counter, ax
 357:../DGC_A230_Functions/DGC_A230_Normal_Mode.c **** 		}
 1397                             		.loc 1 357 0
 1398 00a7 E5 00 00                		oneb	!_Auto_Close_Gate_Timer_Enable
 1399 00aa EC 58 01 00             		br	!!.L99
 1400                             	.L98:
 359:../DGC_A230_Functions/DGC_A230_Normal_Mode.c **** 		{
 1401                             		.loc 1 359 0
 1402 00ae 8F 00 00                		mov	a, !_Leaf_No1_State
 1403 00b1 9D F0                   		mov	r8, a
 1404 00b3 4A F0 05                		cmp	r8, #5
 1405 00b6 61 E8                   		 skz
 1406 00b8 EC D7 00 00             		 br	!!.L100
 1407                             	.LBB23:
 361:../DGC_A230_Functions/DGC_A230_Normal_Mode.c **** 			Auto_Close_Gate_Timer_Enable = 0;
 1408                             		.loc 1 361 0
 1409 00bc F6                      		clrw	ax
 1410 00bd BF 00 00                		movw	!_Auto_Close_Gate_Timer_Counter, ax
 362:../DGC_A230_Functions/DGC_A230_Normal_Mode.c **** 			Pre_flash_Time = CFG_parameter.Pre_Flashing;
 1411                             		.loc 1 362 0
 1412 00c0 F5 00 00                		clrb	!_Auto_Close_Gate_Timer_Enable
 363:../DGC_A230_Functions/DGC_A230_Normal_Mode.c **** 			__Do_Open_Gate_Motor1();
 1413                             		.loc 1 363 0
 1414 00c3 8F 00 00                		mov	a, !_CFG_parameter+52
 1415 00c6 9D F0                   		mov	r8, a
 1416 00c8 9F 00 00                		mov	!_Pre_flash_Time, a
 364:../DGC_A230_Functions/DGC_A230_Normal_Mode.c **** 			__Do_Open_Gate_Motor2();
 1417                             		.loc 1 364 0
 1418 00cb FC 00 00 00             		call	!!%code(___Do_Open_Gate_Motor1)
 365:../DGC_A230_Functions/DGC_A230_Normal_Mode.c **** 		}
 1419                             		.loc 1 365 0
 1420 00cf FC 00 00 00             		call	!!%code(___Do_Open_Gate_Motor2)
 1421                             	.LBE23:
 1422 00d3 EC 58 01 00             		br	!!.L99
 1423                             	.L100:
 369:../DGC_A230_Functions/DGC_A230_Normal_Mode.c **** 			{
 1424                             		.loc 1 369 0
 1425 00d7 8F 00 00                		mov	a, !_Leaf_No1_State
 1426 00da 9D F0                   		mov	r8, a
 1427 00dc 4A F0 01                		cmp	r8, #1
 1428 00df 61 E8                   		 skz
 1429 00e1 EC 44 01 00             		 br	!!.L101
 371:../DGC_A230_Functions/DGC_A230_Normal_Mode.c **** 				{
 1430                             		.loc 1 371 0
 1431 00e5 C9 F0 07 FF             		movw	r8, #-249
 1432 00e9 AD F0                   		movw	ax, r8
 1433 00eb BD F2                   		movw	r10, ax
 1434 00ed FA F2                   		movw	hl, r10
 1435 00ef 8B                      		mov	a, [hl]
 1436 00f0 9D F0                   		mov	r8, a
 1437 00f2 31 1A                   		shr	a, 1
 1438 00f4 9D F0                   		mov	r8, a
 1439 00f6 5A F0 01                		and	r8, #1
 1440 00f9 61 F8                   		sknz
 1441 00fb EC 0C 01 00             		 br	!!.L102
 1442                             		 # zero-comparison eliminated
 371:../DGC_A230_Functions/DGC_A230_Normal_Mode.c **** 				{
 1443                             		.loc 1 371 0 is_stmt 0 discriminator 2
 1444 00ff 8F 00 00                		mov	a, !_CFG_parameter+82
 1445 0102 9D F0                   		mov	r8, a
 1446 0104 D4 F0                   		cmp0	r8
 1447 0106 61 F8                   		 sknz
 1448 0108 EC 58 01 00             		 br	!!.L99
 1449                             	.L102:
 371:../DGC_A230_Functions/DGC_A230_Normal_Mode.c **** 				{
 1450                             		.loc 1 371 0 discriminator 3
 1451 010c C9 F0 07 FF             		movw	r8, #-249
 1452 0110 AD F0                   		movw	ax, r8
 1453 0112 BD F2                   		movw	r10, ax
 1454 0114 EA F2                   		movw	de, r10
 1455 0116 89                      		mov	a, [de]
 1456 0117 5C 01                   		and	a, #1
 1457 0119 9D F0                   		mov	r8, a
 1458 011b D4 F0                   		cmp0	r8
 1459 011d 61 F8                   		 sknz
 1460 011f EC 30 01 00             		 br	!!.L104
 371:../DGC_A230_Functions/DGC_A230_Normal_Mode.c **** 				{
 1461                             		.loc 1 371 0 discriminator 4
 1462 0123 8F 00 00                		mov	a, !_CFG_parameter+85
 1463 0126 9D F0                   		mov	r8, a
 1464 0128 D4 F0                   		cmp0	r8
 1465 012a 61 F8                   		 sknz
 1466 012c EC 58 01 00             		 br	!!.L99
 1467                             	.L104:
 1468                             	.LBB24:
 373:../DGC_A230_Functions/DGC_A230_Normal_Mode.c **** 					__Do_Open_Gate_Motor1();
 1469                             		.loc 1 373 0 is_stmt 1
 1470 0130 8F 00 00                		mov	a, !_CFG_parameter+52
 1471 0133 9D F0                   		mov	r8, a
 1472 0135 9F 00 00                		mov	!_Pre_flash_Time, a
 374:../DGC_A230_Functions/DGC_A230_Normal_Mode.c **** 					__Do_Open_Gate_Motor2();
 1473                             		.loc 1 374 0
 1474 0138 FC 00 00 00             		call	!!%code(___Do_Open_Gate_Motor1)
 375:../DGC_A230_Functions/DGC_A230_Normal_Mode.c **** 				}
 1475                             		.loc 1 375 0
 1476 013c FC 00 00 00             		call	!!%code(___Do_Open_Gate_Motor2)
 1477                             	.LBE24:
 385:../DGC_A230_Functions/DGC_A230_Normal_Mode.c **** 
 1478                             		.loc 1 385 0
 1479 0140 EC 06 02 00             		br	!!.L88
 1480                             	.L101:
 1481                             	.LBB25:
 380:../DGC_A230_Functions/DGC_A230_Normal_Mode.c **** 				__Do_Open_Gate_Motor1();
 1482                             		.loc 1 380 0
 1483 0144 8F 00 00                		mov	a, !_CFG_parameter+52
 1484 0147 9D F0                   		mov	r8, a
 1485 0149 9F 00 00                		mov	!_Pre_flash_Time, a
 381:../DGC_A230_Functions/DGC_A230_Normal_Mode.c **** 				__Do_Open_Gate_Motor2();
 1486                             		.loc 1 381 0
 1487 014c FC 00 00 00             		call	!!%code(___Do_Open_Gate_Motor1)
 382:../DGC_A230_Functions/DGC_A230_Normal_Mode.c **** 			}
 1488                             		.loc 1 382 0
 1489 0150 FC 00 00 00             		call	!!%code(___Do_Open_Gate_Motor2)
 1490                             	.LBE25:
 385:../DGC_A230_Functions/DGC_A230_Normal_Mode.c **** 
 1491                             		.loc 1 385 0
 1492 0154 EC 06 02 00             		br	!!.L88
 1493                             	.L99:
 385:../DGC_A230_Functions/DGC_A230_Normal_Mode.c **** 
 1494                             		.loc 1 385 0 is_stmt 0 discriminator 1
 1495 0158 EC 06 02 00             		br	!!.L88
 1496                             	.L90:
 1497                             	.LBB26:
 393:../DGC_A230_Functions/DGC_A230_Normal_Mode.c **** 		Leaf_No2_State = GATE_STATE_CLOSING_PAUSE;
 1498                             		.loc 1 393 0 is_stmt 1
 1499 015c 51 07                   		mov	a, #7
 1500 015e 9F 00 00                		mov	!_Leaf_No1_State, a
 394:../DGC_A230_Functions/DGC_A230_Normal_Mode.c **** 
 1501                             		.loc 1 394 0
 1502 0161 51 07                   		mov	a, #7
 1503 0163 9F 00 00                		mov	!_Leaf_No2_State, a
 396:../DGC_A230_Functions/DGC_A230_Normal_Mode.c **** 		{
 1504                             		.loc 1 396 0
 1505 0166 8F 00 00                		mov	a, !_CFG_parameter+90
 1506 0169 9D F0                   		mov	r8, a
 1507 016b 4A F0 01                		cmp	r8, #1
 1508 016e 61 E8                   		 skz
 1509 0170 EC 94 01 00             		 br	!!.L106
 1510                             	.LBB27:
 398:../DGC_A230_Functions/DGC_A230_Normal_Mode.c **** 				__Do_Brake_Motor_Type_2(CLOSE_MOVING_DIRECTION);
 1511                             		.loc 1 398 0
 1512 0174 8F 00 00                		mov	a, !_CFG_parameter+1
 1513 0177 9D F0                   		mov	r8, a
 1514 0179 4A F0 02                		cmp	r8, #2
 1515 017c 61 E8                   		 skz
 1516 017e EC 8D 01 00             		 br	!!.L107
 399:../DGC_A230_Functions/DGC_A230_Normal_Mode.c **** 			else
 1517                             		.loc 1 399 0
 1518 0182 E6                      		onew	ax
 1519 0183 B8 00                   		movw	[sp], ax
 1520 0185 FC 00 00 00             		call	!!%code(___Do_Brake_Motor_Type_2)
 1521 0189 EC 94 01 00             		br	!!.L106
 1522                             	.L107:
 401:../DGC_A230_Functions/DGC_A230_Normal_Mode.c **** 		}
 1523                             		.loc 1 401 0
 1524 018d E6                      		onew	ax
 1525 018e B8 00                   		movw	[sp], ax
 1526 0190 FC 00 00 00             		call	!!%code(___Do_Brake_Motor_Type_1)
 1527                             	.L106:
 1528                             	.LBE27:
 403:../DGC_A230_Functions/DGC_A230_Normal_Mode.c **** 		__Do_Stop_Gate_Motor2(CLOSE_MOVING_DIRECTION);
 1529                             		.loc 1 403 0
 1530 0194 E6                      		onew	ax
 1531 0195 B8 00                   		movw	[sp], ax
 1532 0197 FC 00 00 00             		call	!!%code(___Do_Stop_Gate_Motor1)
 404:../DGC_A230_Functions/DGC_A230_Normal_Mode.c **** 
 1533                             		.loc 1 404 0
 1534 019b E6                      		onew	ax
 1535 019c B8 00                   		movw	[sp], ax
 1536 019e FC 00 00 00             		call	!!%code(___Do_Stop_Gate_Motor2)
 406:../DGC_A230_Functions/DGC_A230_Normal_Mode.c **** 		Auto_Close_Gate_Timer_Enable = 0;
 1537                             		.loc 1 406 0
 1538 01a2 F6                      		clrw	ax
 1539 01a3 BF 00 00                		movw	!_Auto_Close_Gate_Timer_Counter, ax
 407:../DGC_A230_Functions/DGC_A230_Normal_Mode.c **** 		Auto_Close_Gate_Retry_Number = Auto_Close_Retry_Number;
 1540                             		.loc 1 407 0
 1541 01a6 F5 00 00                		clrb	!_Auto_Close_Gate_Timer_Enable
 408:../DGC_A230_Functions/DGC_A230_Normal_Mode.c **** 		Pre_flash_Time = 0x00;
 1542                             		.loc 1 408 0
 1543 01a9 8F 00 00                		mov	a, !_Auto_Close_Retry_Number
 1544 01ac 9D F0                   		mov	r8, a
 1545 01ae 9F 00 00                		mov	!_Auto_Close_Gate_Retry_Number, a
 409:../DGC_A230_Functions/DGC_A230_Normal_Mode.c **** 		__Do_Open_Gate_Motor1();
 1546                             		.loc 1 409 0
 1547 01b1 F5 00 00                		clrb	!_Pre_flash_Time
 410:../DGC_A230_Functions/DGC_A230_Normal_Mode.c **** 		__Do_Open_Gate_Motor2();
 1548                             		.loc 1 410 0
 1549 01b4 FC 00 00 00             		call	!!%code(___Do_Open_Gate_Motor1)
 411:../DGC_A230_Functions/DGC_A230_Normal_Mode.c **** 	} break;
 1550                             		.loc 1 411 0
 1551 01b8 FC 00 00 00             		call	!!%code(___Do_Open_Gate_Motor2)
 1552                             	.LBE26:
 412:../DGC_A230_Functions/DGC_A230_Normal_Mode.c **** 
 1553                             		.loc 1 412 0
 1554 01bc EC 06 02 00             		br	!!.L88
 1555                             	.L94:
 1556                             	.LBB28:
 416:../DGC_A230_Functions/DGC_A230_Normal_Mode.c **** 		__Do_Partial_Stop_Gate(OPEN_MOVING_DIRECTION);
 1557                             		.loc 1 416 0
 1558 01c0 51 08                   		mov	a, #8
 1559 01c2 9F 00 00                		mov	!_Leaf_No1_State, a
 417:../DGC_A230_Functions/DGC_A230_Normal_Mode.c **** 		Pre_flash_Time = 0x00;
 1560                             		.loc 1 417 0
 1561 01c5 F6                      		clrw	ax
 1562 01c6 B8 00                   		movw	[sp], ax
 1563 01c8 FC 00 00 00             		call	!!%code(___Do_Partial_Stop_Gate)
 418:../DGC_A230_Functions/DGC_A230_Normal_Mode.c **** 		__Do_Open_Gate_Motor1();
 1564                             		.loc 1 418 0
 1565 01cc F5 00 00                		clrb	!_Pre_flash_Time
 419:../DGC_A230_Functions/DGC_A230_Normal_Mode.c **** 		__Do_Open_Gate_Motor2();
 1566                             		.loc 1 419 0
 1567 01cf FC 00 00 00             		call	!!%code(___Do_Open_Gate_Motor1)
 420:../DGC_A230_Functions/DGC_A230_Normal_Mode.c **** 	} break;
 1568                             		.loc 1 420 0
 1569 01d3 FC 00 00 00             		call	!!%code(___Do_Open_Gate_Motor2)
 1570                             	.LBE28:
 421:../DGC_A230_Functions/DGC_A230_Normal_Mode.c **** 
 1571                             		.loc 1 421 0
 1572 01d7 EC 06 02 00             		br	!!.L88
 1573                             	.L95:
 1574                             	.LBB29:
 425:../DGC_A230_Functions/DGC_A230_Normal_Mode.c **** 		__Do_Partial_Stop_Gate(CLOSE_MOVING_DIRECTION);
 1575                             		.loc 1 425 0
 1576 01db 51 07                   		mov	a, #7
 1577 01dd 9F 00 00                		mov	!_Leaf_No1_State, a
 426:../DGC_A230_Functions/DGC_A230_Normal_Mode.c **** 		Auto_Close_Gate_Timer_Counter = 0;
 1578                             		.loc 1 426 0
 1579 01e0 E6                      		onew	ax
 1580 01e1 B8 00                   		movw	[sp], ax
 1581 01e3 FC 00 00 00             		call	!!%code(___Do_Partial_Stop_Gate)
 427:../DGC_A230_Functions/DGC_A230_Normal_Mode.c **** 		Auto_Close_Gate_Timer_Enable = 0;
 1582                             		.loc 1 427 0
 1583 01e7 F6                      		clrw	ax
 1584 01e8 BF 00 00                		movw	!_Auto_Close_Gate_Timer_Counter, ax
 428:../DGC_A230_Functions/DGC_A230_Normal_Mode.c **** 		Auto_Close_Gate_Retry_Number = Auto_Close_Retry_Number;
 1585                             		.loc 1 428 0
 1586 01eb F5 00 00                		clrb	!_Auto_Close_Gate_Timer_Enable
 429:../DGC_A230_Functions/DGC_A230_Normal_Mode.c **** 		Pre_flash_Time = 0x00;
 1587                             		.loc 1 429 0
 1588 01ee 8F 00 00                		mov	a, !_Auto_Close_Retry_Number
 1589 01f1 9D F0                   		mov	r8, a
 1590 01f3 9F 00 00                		mov	!_Auto_Close_Gate_Retry_Number, a
 430:../DGC_A230_Functions/DGC_A230_Normal_Mode.c **** 		__Do_Open_Gate_Motor1();
 1591                             		.loc 1 430 0
 1592 01f6 F5 00 00                		clrb	!_Pre_flash_Time
 431:../DGC_A230_Functions/DGC_A230_Normal_Mode.c **** 		__Do_Open_Gate_Motor2();
 1593                             		.loc 1 431 0
 1594 01f9 FC 00 00 00             		call	!!%code(___Do_Open_Gate_Motor1)
 432:../DGC_A230_Functions/DGC_A230_Normal_Mode.c **** 	} break;
 1595                             		.loc 1 432 0
 1596 01fd FC 00 00 00             		call	!!%code(___Do_Open_Gate_Motor2)
 1597                             	.LBE29:
 433:../DGC_A230_Functions/DGC_A230_Normal_Mode.c **** 
 1598                             		.loc 1 433 0
 1599 0201 EC 06 02 00             		br	!!.L88
 1600                             	.L108:
 389:../DGC_A230_Functions/DGC_A230_Normal_Mode.c **** 
 1601                             		.loc 1 389 0
 1602 0205 00                      		nop
 1603                             	.L88:
 436:../DGC_A230_Functions/DGC_A230_Normal_Mode.c **** 	}
 437:../DGC_A230_Functions/DGC_A230_Normal_Mode.c **** 
 438:../DGC_A230_Functions/DGC_A230_Normal_Mode.c **** }
 1604                             		.loc 1 438 0
 1605 0206 10 02                   		addw	sp, #2
 1606 0208 D7                      		ret
 1607                             	.LFE5:
 1609                             		.section	.text.Step_Command_Process_Mode_2,"ax",@progbits
 1610                             		.global	_Step_Command_Process_Mode_2
 1612                             	_Step_Command_Process_Mode_2:
 1613                             	.LFB6:
 439:../DGC_A230_Functions/DGC_A230_Normal_Mode.c **** 
 440:../DGC_A230_Functions/DGC_A230_Normal_Mode.c **** void Step_Command_Process_Mode_2 (void)
 441:../DGC_A230_Functions/DGC_A230_Normal_Mode.c **** {
 1614                             		.loc 1 441 0
 1615                             		; start of function
 1616                             		; outgoing: 2 bytes
 1617                             		; uses ES register
 1618 0000 20 02                   		subw	sp, #2
 1619                             	.LCFI4:
 442:../DGC_A230_Functions/DGC_A230_Normal_Mode.c **** 	switch(Machine_State)
 1620                             		.loc 1 442 0
 1621 0002 8F 00 00                		mov	a, !_Machine_State
 1622 0005 9D F0                   		mov	r8, a
 1623 0007 F4 F1                   		clrb	r9
 1624 0009 AD F0                   		movw	ax, r8
 1625 000b 44 02 00                		cmpw	ax, #2
 1626 000e 61 F8                   		 sknz
 1627 0010 EC 64 01 00             		 br	!!.L111
 1628 0014 AD F0                   		movw	ax, r8
 1629 0016 44 02 00                		cmpw	ax, #2
 1630 0019 71 FF                   		 xor1	CY, a.7
 1631 001b 61 F3                   		 sknh
 1632 001d EC 3B 00 00             		 br	!!.L112
 1633 0021 AD F0                   		movw	ax, r8
 1634 0023 44 00 00                		cmpw	ax, #0
 1635 0026 61 F8                   		 sknz
 1636 0028 EC 55 00 00             		 br	!!.L113
 1637 002c AD F0                   		movw	ax, r8
 1638 002e 44 01 00                		cmpw	ax, #1
 1639 0031 61 F8                   		 sknz
 1640 0033 EC 0D 02 00             		 br	!!.L129
 443:../DGC_A230_Functions/DGC_A230_Normal_Mode.c **** 	{
 444:../DGC_A230_Functions/DGC_A230_Normal_Mode.c **** 	case MACHINE_STATE_STOP:
 445:../DGC_A230_Functions/DGC_A230_Normal_Mode.c **** 	{
 446:../DGC_A230_Functions/DGC_A230_Normal_Mode.c **** 		if (((Leaf_No1_State == GATE_STATE_OPENED) && (CFG_parameter.Number_Of_Motors == 0x01))
 447:../DGC_A230_Functions/DGC_A230_Normal_Mode.c **** 			|| ((Leaf_No1_State == GATE_STATE_OPENED) && (Leaf_No2_State == GATE_STATE_OPENED) && (CFG_param
 448:../DGC_A230_Functions/DGC_A230_Normal_Mode.c **** 		{
 449:../DGC_A230_Functions/DGC_A230_Normal_Mode.c **** 			Auto_Close_Gate_Timer_Counter = 0;
 450:../DGC_A230_Functions/DGC_A230_Normal_Mode.c **** 			Auto_Close_Gate_Timer_Enable = 0;
 451:../DGC_A230_Functions/DGC_A230_Normal_Mode.c **** 			Pre_flash_Time = CFG_parameter.Pre_Flashing;
 452:../DGC_A230_Functions/DGC_A230_Normal_Mode.c **** 			__Do_Close_Gate_Motor1();
 453:../DGC_A230_Functions/DGC_A230_Normal_Mode.c **** 			__Do_Close_Gate_Motor2();
 454:../DGC_A230_Functions/DGC_A230_Normal_Mode.c **** 		}
 455:../DGC_A230_Functions/DGC_A230_Normal_Mode.c **** 		else if (Leaf_No1_State == GATE_STATE_PARTIAL)
 456:../DGC_A230_Functions/DGC_A230_Normal_Mode.c **** 		{
 457:../DGC_A230_Functions/DGC_A230_Normal_Mode.c **** 			Auto_Close_Gate_Timer_Counter = 0;
 458:../DGC_A230_Functions/DGC_A230_Normal_Mode.c **** 			Auto_Close_Gate_Timer_Enable = 0;
 459:../DGC_A230_Functions/DGC_A230_Normal_Mode.c **** 			Pre_flash_Time = CFG_parameter.Pre_Flashing;
 460:../DGC_A230_Functions/DGC_A230_Normal_Mode.c **** 			__Do_Open_Gate_Motor1();
 461:../DGC_A230_Functions/DGC_A230_Normal_Mode.c **** 			__Do_Open_Gate_Motor2();
 462:../DGC_A230_Functions/DGC_A230_Normal_Mode.c **** 		}
 463:../DGC_A230_Functions/DGC_A230_Normal_Mode.c **** 		else
 464:../DGC_A230_Functions/DGC_A230_Normal_Mode.c **** 		{
 465:../DGC_A230_Functions/DGC_A230_Normal_Mode.c **** 			if (Leaf_No1_State == GATE_STATE_CLOSED) // Step OPen
 466:../DGC_A230_Functions/DGC_A230_Normal_Mode.c **** 			{
 467:../DGC_A230_Functions/DGC_A230_Normal_Mode.c **** 				if (!((FT1 && (CFG_parameter.Photocell_FT1_Mode_Closed == 0x00)) || (FT2 && (CFG_parameter.Phot
 468:../DGC_A230_Functions/DGC_A230_Normal_Mode.c **** 				{
 469:../DGC_A230_Functions/DGC_A230_Normal_Mode.c **** 					Pre_flash_Time = CFG_parameter.Pre_Flashing;
 470:../DGC_A230_Functions/DGC_A230_Normal_Mode.c **** 					__Do_Open_Gate_Motor1();
 471:../DGC_A230_Functions/DGC_A230_Normal_Mode.c **** 					__Do_Open_Gate_Motor2();
 472:../DGC_A230_Functions/DGC_A230_Normal_Mode.c **** 				}
 473:../DGC_A230_Functions/DGC_A230_Normal_Mode.c **** 			}
 474:../DGC_A230_Functions/DGC_A230_Normal_Mode.c **** 			else
 475:../DGC_A230_Functions/DGC_A230_Normal_Mode.c **** 			{
 476:../DGC_A230_Functions/DGC_A230_Normal_Mode.c **** 				Pre_flash_Time = CFG_parameter.Pre_Flashing;
 477:../DGC_A230_Functions/DGC_A230_Normal_Mode.c **** 				__Do_Open_Gate_Motor1();
 478:../DGC_A230_Functions/DGC_A230_Normal_Mode.c **** 				__Do_Open_Gate_Motor2();
 479:../DGC_A230_Functions/DGC_A230_Normal_Mode.c **** 			}
 480:../DGC_A230_Functions/DGC_A230_Normal_Mode.c **** 		}
 481:../DGC_A230_Functions/DGC_A230_Normal_Mode.c **** 	} break;
 482:../DGC_A230_Functions/DGC_A230_Normal_Mode.c **** 
 483:../DGC_A230_Functions/DGC_A230_Normal_Mode.c **** 	case MACHINE_STATE_NORMAL_OPENING:
 484:../DGC_A230_Functions/DGC_A230_Normal_Mode.c **** 	{
 485:../DGC_A230_Functions/DGC_A230_Normal_Mode.c **** 	} break;
 486:../DGC_A230_Functions/DGC_A230_Normal_Mode.c **** 
 487:../DGC_A230_Functions/DGC_A230_Normal_Mode.c **** 	case MACHINE_STATE_NORMAL_CLOSING:
 488:../DGC_A230_Functions/DGC_A230_Normal_Mode.c **** 	{
 489:../DGC_A230_Functions/DGC_A230_Normal_Mode.c **** 		Leaf_No1_State = GATE_STATE_CLOSING_PAUSE;
 490:../DGC_A230_Functions/DGC_A230_Normal_Mode.c **** 		Leaf_No2_State = GATE_STATE_CLOSING_PAUSE;
 491:../DGC_A230_Functions/DGC_A230_Normal_Mode.c **** 		if (CFG_parameter.Reverse_Command_Enable_Braking == 0x01)
 492:../DGC_A230_Functions/DGC_A230_Normal_Mode.c **** 		{
 493:../DGC_A230_Functions/DGC_A230_Normal_Mode.c **** 			if (CFG_parameter.Number_Of_Motors == 0x02)
 494:../DGC_A230_Functions/DGC_A230_Normal_Mode.c **** 				__Do_Brake_Motor_Type_2(CLOSE_MOVING_DIRECTION);
 495:../DGC_A230_Functions/DGC_A230_Normal_Mode.c **** 			else
 496:../DGC_A230_Functions/DGC_A230_Normal_Mode.c **** 				__Do_Brake_Motor_Type_1(CLOSE_MOVING_DIRECTION);
 497:../DGC_A230_Functions/DGC_A230_Normal_Mode.c **** 		}
 498:../DGC_A230_Functions/DGC_A230_Normal_Mode.c **** 		__Do_Stop_Gate_Motor1(CLOSE_MOVING_DIRECTION);
 499:../DGC_A230_Functions/DGC_A230_Normal_Mode.c **** 		__Do_Stop_Gate_Motor2(CLOSE_MOVING_DIRECTION);
 500:../DGC_A230_Functions/DGC_A230_Normal_Mode.c **** 		Auto_Close_Gate_Timer_Counter = 0;
 501:../DGC_A230_Functions/DGC_A230_Normal_Mode.c **** 		Auto_Close_Gate_Timer_Enable = 0;
 502:../DGC_A230_Functions/DGC_A230_Normal_Mode.c **** 		Auto_Close_Gate_Retry_Number = Auto_Close_Retry_Number;
 503:../DGC_A230_Functions/DGC_A230_Normal_Mode.c **** 		Pre_flash_Time = 0x00;
 504:../DGC_A230_Functions/DGC_A230_Normal_Mode.c **** 		__Do_Open_Gate_Motor1();
 505:../DGC_A230_Functions/DGC_A230_Normal_Mode.c **** 		__Do_Open_Gate_Motor2();
 506:../DGC_A230_Functions/DGC_A230_Normal_Mode.c **** 	} break;
 507:../DGC_A230_Functions/DGC_A230_Normal_Mode.c **** 
 508:../DGC_A230_Functions/DGC_A230_Normal_Mode.c **** 	case MACHINE_STATE_PARTIAL_OPENING:
 509:../DGC_A230_Functions/DGC_A230_Normal_Mode.c **** 	{
 510:../DGC_A230_Functions/DGC_A230_Normal_Mode.c **** 		Leaf_No1_State = GATE_STATE_PATIAL_OPENING_PAUSE;
 511:../DGC_A230_Functions/DGC_A230_Normal_Mode.c **** 		__Do_Partial_Stop_Gate(OPEN_MOVING_DIRECTION);
 512:../DGC_A230_Functions/DGC_A230_Normal_Mode.c **** 		Pre_flash_Time = 0x00;
 513:../DGC_A230_Functions/DGC_A230_Normal_Mode.c **** 		__Do_Open_Gate_Motor1();
 514:../DGC_A230_Functions/DGC_A230_Normal_Mode.c **** 		__Do_Open_Gate_Motor2();
 515:../DGC_A230_Functions/DGC_A230_Normal_Mode.c **** 	} break;
 516:../DGC_A230_Functions/DGC_A230_Normal_Mode.c **** 
 517:../DGC_A230_Functions/DGC_A230_Normal_Mode.c **** 	case MACHINE_STATE_PARTIAL_CLOSING:
 518:../DGC_A230_Functions/DGC_A230_Normal_Mode.c **** 	{
 519:../DGC_A230_Functions/DGC_A230_Normal_Mode.c **** 		Leaf_No1_State = GATE_STATE_CLOSING_PAUSE;
 520:../DGC_A230_Functions/DGC_A230_Normal_Mode.c **** 		__Do_Partial_Stop_Gate(CLOSE_MOVING_DIRECTION);
 521:../DGC_A230_Functions/DGC_A230_Normal_Mode.c **** 		Auto_Close_Gate_Timer_Counter = 0;
 522:../DGC_A230_Functions/DGC_A230_Normal_Mode.c **** 		Auto_Close_Gate_Timer_Enable = 0;
 523:../DGC_A230_Functions/DGC_A230_Normal_Mode.c **** 		Auto_Close_Gate_Retry_Number = Auto_Close_Retry_Number;
 524:../DGC_A230_Functions/DGC_A230_Normal_Mode.c **** 		Pre_flash_Time = 0x00;
 525:../DGC_A230_Functions/DGC_A230_Normal_Mode.c **** 		__Do_Open_Gate_Motor1();
 526:../DGC_A230_Functions/DGC_A230_Normal_Mode.c **** 		__Do_Open_Gate_Motor2();
 527:../DGC_A230_Functions/DGC_A230_Normal_Mode.c **** 	} break;
 528:../DGC_A230_Functions/DGC_A230_Normal_Mode.c **** 
 529:../DGC_A230_Functions/DGC_A230_Normal_Mode.c **** 	default: break;
 1641                             		.loc 1 529 0
 1642 0037 EC 0E 02 00             		br	!!.L109
 1643                             	.L112:
 442:../DGC_A230_Functions/DGC_A230_Normal_Mode.c **** 	switch(Machine_State)
 1644                             		.loc 1 442 0
 1645 003b AD F0                   		movw	ax, r8
 1646 003d 44 03 00                		cmpw	ax, #3
 1647 0040 61 F8                   		 sknz
 1648 0042 EC C8 01 00             		 br	!!.L115
 1649 0046 AD F0                   		movw	ax, r8
 1650 0048 44 04 00                		cmpw	ax, #4
 1651 004b 61 F8                   		 sknz
 1652 004d EC E3 01 00             		 br	!!.L116
 1653                             		.loc 1 529 0
 1654 0051 EC 0E 02 00             		br	!!.L109
 1655                             	.L113:
 446:../DGC_A230_Functions/DGC_A230_Normal_Mode.c **** 			|| ((Leaf_No1_State == GATE_STATE_OPENED) && (Leaf_No2_State == GATE_STATE_OPENED) && (CFG_param
 1656                             		.loc 1 446 0
 1657 0055 8F 00 00                		mov	a, !_Leaf_No1_State
 1658 0058 9D F0                   		mov	r8, a
 1659 005a 4A F0 03                		cmp	r8, #3
 1660 005d 61 E8                   		 skz
 1661 005f EC 71 00 00             		 br	!!.L117
 446:../DGC_A230_Functions/DGC_A230_Normal_Mode.c **** 			|| ((Leaf_No1_State == GATE_STATE_OPENED) && (Leaf_No2_State == GATE_STATE_OPENED) && (CFG_param
 1662                             		.loc 1 446 0 is_stmt 0 discriminator 1
 1663 0063 8F 00 00                		mov	a, !_CFG_parameter+1
 1664 0066 9D F0                   		mov	r8, a
 1665 0068 4A F0 01                		cmp	r8, #1
 1666 006b 61 F8                   		 sknz
 1667 006d EC 9B 00 00             		 br	!!.L118
 1668                             	.L117:
 447:../DGC_A230_Functions/DGC_A230_Normal_Mode.c **** 		{
 1669                             		.loc 1 447 0 is_stmt 1
 1670 0071 8F 00 00                		mov	a, !_Leaf_No1_State
 1671 0074 9D F0                   		mov	r8, a
 1672 0076 4A F0 03                		cmp	r8, #3
 1673 0079 61 E8                   		 skz
 1674 007b EC B6 00 00             		 br	!!.L119
 447:../DGC_A230_Functions/DGC_A230_Normal_Mode.c **** 		{
 1675                             		.loc 1 447 0 is_stmt 0 discriminator 1
 1676 007f 8F 00 00                		mov	a, !_Leaf_No2_State
 1677 0082 9D F0                   		mov	r8, a
 1678 0084 4A F0 03                		cmp	r8, #3
 1679 0087 61 E8                   		 skz
 1680 0089 EC B6 00 00             		 br	!!.L119
 447:../DGC_A230_Functions/DGC_A230_Normal_Mode.c **** 		{
 1681                             		.loc 1 447 0 discriminator 2
 1682 008d 8F 00 00                		mov	a, !_CFG_parameter+1
 1683 0090 9D F0                   		mov	r8, a
 1684 0092 4A F0 02                		cmp	r8, #2
 1685 0095 61 E8                   		 skz
 1686 0097 EC B6 00 00             		 br	!!.L119
 1687                             	.L118:
 1688                             	.LBB30:
 449:../DGC_A230_Functions/DGC_A230_Normal_Mode.c **** 			Auto_Close_Gate_Timer_Enable = 0;
 1689                             		.loc 1 449 0 is_stmt 1
 1690 009b F6                      		clrw	ax
 1691 009c BF 00 00                		movw	!_Auto_Close_Gate_Timer_Counter, ax
 450:../DGC_A230_Functions/DGC_A230_Normal_Mode.c **** 			Pre_flash_Time = CFG_parameter.Pre_Flashing;
 1692                             		.loc 1 450 0
 1693 009f F5 00 00                		clrb	!_Auto_Close_Gate_Timer_Enable
 451:../DGC_A230_Functions/DGC_A230_Normal_Mode.c **** 			__Do_Close_Gate_Motor1();
 1694                             		.loc 1 451 0
 1695 00a2 8F 00 00                		mov	a, !_CFG_parameter+52
 1696 00a5 9D F0                   		mov	r8, a
 1697 00a7 9F 00 00                		mov	!_Pre_flash_Time, a
 452:../DGC_A230_Functions/DGC_A230_Normal_Mode.c **** 			__Do_Close_Gate_Motor2();
 1698                             		.loc 1 452 0
 1699 00aa FC 00 00 00             		call	!!%code(___Do_Close_Gate_Motor1)
 453:../DGC_A230_Functions/DGC_A230_Normal_Mode.c **** 		}
 1700                             		.loc 1 453 0
 1701 00ae FC 00 00 00             		call	!!%code(___Do_Close_Gate_Motor2)
 1702                             	.LBE30:
 448:../DGC_A230_Functions/DGC_A230_Normal_Mode.c **** 			Auto_Close_Gate_Timer_Counter = 0;
 1703                             		.loc 1 448 0
 1704 00b2 EC 60 01 00             		br	!!.L120
 1705                             	.L119:
 455:../DGC_A230_Functions/DGC_A230_Normal_Mode.c **** 		{
 1706                             		.loc 1 455 0
 1707 00b6 8F 00 00                		mov	a, !_Leaf_No1_State
 1708 00b9 9D F0                   		mov	r8, a
 1709 00bb 4A F0 05                		cmp	r8, #5
 1710 00be 61 E8                   		 skz
 1711 00c0 EC DF 00 00             		 br	!!.L121
 1712                             	.LBB31:
 457:../DGC_A230_Functions/DGC_A230_Normal_Mode.c **** 			Auto_Close_Gate_Timer_Enable = 0;
 1713                             		.loc 1 457 0
 1714 00c4 F6                      		clrw	ax
 1715 00c5 BF 00 00                		movw	!_Auto_Close_Gate_Timer_Counter, ax
 458:../DGC_A230_Functions/DGC_A230_Normal_Mode.c **** 			Pre_flash_Time = CFG_parameter.Pre_Flashing;
 1716                             		.loc 1 458 0
 1717 00c8 F5 00 00                		clrb	!_Auto_Close_Gate_Timer_Enable
 459:../DGC_A230_Functions/DGC_A230_Normal_Mode.c **** 			__Do_Open_Gate_Motor1();
 1718                             		.loc 1 459 0
 1719 00cb 8F 00 00                		mov	a, !_CFG_parameter+52
 1720 00ce 9D F0                   		mov	r8, a
 1721 00d0 9F 00 00                		mov	!_Pre_flash_Time, a
 460:../DGC_A230_Functions/DGC_A230_Normal_Mode.c **** 			__Do_Open_Gate_Motor2();
 1722                             		.loc 1 460 0
 1723 00d3 FC 00 00 00             		call	!!%code(___Do_Open_Gate_Motor1)
 461:../DGC_A230_Functions/DGC_A230_Normal_Mode.c **** 		}
 1724                             		.loc 1 461 0
 1725 00d7 FC 00 00 00             		call	!!%code(___Do_Open_Gate_Motor2)
 1726                             	.LBE31:
 1727 00db EC 60 01 00             		br	!!.L120
 1728                             	.L121:
 465:../DGC_A230_Functions/DGC_A230_Normal_Mode.c **** 			{
 1729                             		.loc 1 465 0
 1730 00df 8F 00 00                		mov	a, !_Leaf_No1_State
 1731 00e2 9D F0                   		mov	r8, a
 1732 00e4 4A F0 01                		cmp	r8, #1
 1733 00e7 61 E8                   		 skz
 1734 00e9 EC 4C 01 00             		 br	!!.L122
 467:../DGC_A230_Functions/DGC_A230_Normal_Mode.c **** 				{
 1735                             		.loc 1 467 0
 1736 00ed C9 F0 07 FF             		movw	r8, #-249
 1737 00f1 AD F0                   		movw	ax, r8
 1738 00f3 BD F2                   		movw	r10, ax
 1739 00f5 FA F2                   		movw	hl, r10
 1740 00f7 8B                      		mov	a, [hl]
 1741 00f8 9D F0                   		mov	r8, a
 1742 00fa 31 1A                   		shr	a, 1
 1743 00fc 9D F0                   		mov	r8, a
 1744 00fe 5A F0 01                		and	r8, #1
 1745 0101 61 F8                   		sknz
 1746 0103 EC 14 01 00             		 br	!!.L123
 1747                             		 # zero-comparison eliminated
 467:../DGC_A230_Functions/DGC_A230_Normal_Mode.c **** 				{
 1748                             		.loc 1 467 0 is_stmt 0 discriminator 2
 1749 0107 8F 00 00                		mov	a, !_CFG_parameter+82
 1750 010a 9D F0                   		mov	r8, a
 1751 010c D4 F0                   		cmp0	r8
 1752 010e 61 F8                   		 sknz
 1753 0110 EC 60 01 00             		 br	!!.L120
 1754                             	.L123:
 467:../DGC_A230_Functions/DGC_A230_Normal_Mode.c **** 				{
 1755                             		.loc 1 467 0 discriminator 3
 1756 0114 C9 F0 07 FF             		movw	r8, #-249
 1757 0118 AD F0                   		movw	ax, r8
 1758 011a BD F2                   		movw	r10, ax
 1759 011c EA F2                   		movw	de, r10
 1760 011e 89                      		mov	a, [de]
 1761 011f 5C 01                   		and	a, #1
 1762 0121 9D F0                   		mov	r8, a
 1763 0123 D4 F0                   		cmp0	r8
 1764 0125 61 F8                   		 sknz
 1765 0127 EC 38 01 00             		 br	!!.L125
 467:../DGC_A230_Functions/DGC_A230_Normal_Mode.c **** 				{
 1766                             		.loc 1 467 0 discriminator 4
 1767 012b 8F 00 00                		mov	a, !_CFG_parameter+85
 1768 012e 9D F0                   		mov	r8, a
 1769 0130 D4 F0                   		cmp0	r8
 1770 0132 61 F8                   		 sknz
 1771 0134 EC 60 01 00             		 br	!!.L120
 1772                             	.L125:
 1773                             	.LBB32:
 469:../DGC_A230_Functions/DGC_A230_Normal_Mode.c **** 					__Do_Open_Gate_Motor1();
 1774                             		.loc 1 469 0 is_stmt 1
 1775 0138 8F 00 00                		mov	a, !_CFG_parameter+52
 1776 013b 9D F0                   		mov	r8, a
 1777 013d 9F 00 00                		mov	!_Pre_flash_Time, a
 470:../DGC_A230_Functions/DGC_A230_Normal_Mode.c **** 					__Do_Open_Gate_Motor2();
 1778                             		.loc 1 470 0
 1779 0140 FC 00 00 00             		call	!!%code(___Do_Open_Gate_Motor1)
 471:../DGC_A230_Functions/DGC_A230_Normal_Mode.c **** 				}
 1780                             		.loc 1 471 0
 1781 0144 FC 00 00 00             		call	!!%code(___Do_Open_Gate_Motor2)
 1782                             	.LBE32:
 481:../DGC_A230_Functions/DGC_A230_Normal_Mode.c **** 
 1783                             		.loc 1 481 0
 1784 0148 EC 0E 02 00             		br	!!.L109
 1785                             	.L122:
 1786                             	.LBB33:
 476:../DGC_A230_Functions/DGC_A230_Normal_Mode.c **** 				__Do_Open_Gate_Motor1();
 1787                             		.loc 1 476 0
 1788 014c 8F 00 00                		mov	a, !_CFG_parameter+52
 1789 014f 9D F0                   		mov	r8, a
 1790 0151 9F 00 00                		mov	!_Pre_flash_Time, a
 477:../DGC_A230_Functions/DGC_A230_Normal_Mode.c **** 				__Do_Open_Gate_Motor2();
 1791                             		.loc 1 477 0
 1792 0154 FC 00 00 00             		call	!!%code(___Do_Open_Gate_Motor1)
 478:../DGC_A230_Functions/DGC_A230_Normal_Mode.c **** 			}
 1793                             		.loc 1 478 0
 1794 0158 FC 00 00 00             		call	!!%code(___Do_Open_Gate_Motor2)
 1795                             	.LBE33:
 481:../DGC_A230_Functions/DGC_A230_Normal_Mode.c **** 
 1796                             		.loc 1 481 0
 1797 015c EC 0E 02 00             		br	!!.L109
 1798                             	.L120:
 481:../DGC_A230_Functions/DGC_A230_Normal_Mode.c **** 
 1799                             		.loc 1 481 0 is_stmt 0 discriminator 1
 1800 0160 EC 0E 02 00             		br	!!.L109
 1801                             	.L111:
 1802                             	.LBB34:
 489:../DGC_A230_Functions/DGC_A230_Normal_Mode.c **** 		Leaf_No2_State = GATE_STATE_CLOSING_PAUSE;
 1803                             		.loc 1 489 0 is_stmt 1
 1804 0164 51 07                   		mov	a, #7
 1805 0166 9F 00 00                		mov	!_Leaf_No1_State, a
 490:../DGC_A230_Functions/DGC_A230_Normal_Mode.c **** 		if (CFG_parameter.Reverse_Command_Enable_Braking == 0x01)
 1806                             		.loc 1 490 0
 1807 0169 51 07                   		mov	a, #7
 1808 016b 9F 00 00                		mov	!_Leaf_No2_State, a
 491:../DGC_A230_Functions/DGC_A230_Normal_Mode.c **** 		{
 1809                             		.loc 1 491 0
 1810 016e 8F 00 00                		mov	a, !_CFG_parameter+90
 1811 0171 9D F0                   		mov	r8, a
 1812 0173 4A F0 01                		cmp	r8, #1
 1813 0176 61 E8                   		 skz
 1814 0178 EC 9C 01 00             		 br	!!.L127
 1815                             	.LBB35:
 493:../DGC_A230_Functions/DGC_A230_Normal_Mode.c **** 				__Do_Brake_Motor_Type_2(CLOSE_MOVING_DIRECTION);
 1816                             		.loc 1 493 0
 1817 017c 8F 00 00                		mov	a, !_CFG_parameter+1
 1818 017f 9D F0                   		mov	r8, a
 1819 0181 4A F0 02                		cmp	r8, #2
 1820 0184 61 E8                   		 skz
 1821 0186 EC 95 01 00             		 br	!!.L128
 494:../DGC_A230_Functions/DGC_A230_Normal_Mode.c **** 			else
 1822                             		.loc 1 494 0
 1823 018a E6                      		onew	ax
 1824 018b B8 00                   		movw	[sp], ax
 1825 018d FC 00 00 00             		call	!!%code(___Do_Brake_Motor_Type_2)
 1826 0191 EC 9C 01 00             		br	!!.L127
 1827                             	.L128:
 496:../DGC_A230_Functions/DGC_A230_Normal_Mode.c **** 		}
 1828                             		.loc 1 496 0
 1829 0195 E6                      		onew	ax
 1830 0196 B8 00                   		movw	[sp], ax
 1831 0198 FC 00 00 00             		call	!!%code(___Do_Brake_Motor_Type_1)
 1832                             	.L127:
 1833                             	.LBE35:
 498:../DGC_A230_Functions/DGC_A230_Normal_Mode.c **** 		__Do_Stop_Gate_Motor2(CLOSE_MOVING_DIRECTION);
 1834                             		.loc 1 498 0
 1835 019c E6                      		onew	ax
 1836 019d B8 00                   		movw	[sp], ax
 1837 019f FC 00 00 00             		call	!!%code(___Do_Stop_Gate_Motor1)
 499:../DGC_A230_Functions/DGC_A230_Normal_Mode.c **** 		Auto_Close_Gate_Timer_Counter = 0;
 1838                             		.loc 1 499 0
 1839 01a3 E6                      		onew	ax
 1840 01a4 B8 00                   		movw	[sp], ax
 1841 01a6 FC 00 00 00             		call	!!%code(___Do_Stop_Gate_Motor2)
 500:../DGC_A230_Functions/DGC_A230_Normal_Mode.c **** 		Auto_Close_Gate_Timer_Enable = 0;
 1842                             		.loc 1 500 0
 1843 01aa F6                      		clrw	ax
 1844 01ab BF 00 00                		movw	!_Auto_Close_Gate_Timer_Counter, ax
 501:../DGC_A230_Functions/DGC_A230_Normal_Mode.c **** 		Auto_Close_Gate_Retry_Number = Auto_Close_Retry_Number;
 1845                             		.loc 1 501 0
 1846 01ae F5 00 00                		clrb	!_Auto_Close_Gate_Timer_Enable
 502:../DGC_A230_Functions/DGC_A230_Normal_Mode.c **** 		Pre_flash_Time = 0x00;
 1847                             		.loc 1 502 0
 1848 01b1 8F 00 00                		mov	a, !_Auto_Close_Retry_Number
 1849 01b4 9D F0                   		mov	r8, a
 1850 01b6 9F 00 00                		mov	!_Auto_Close_Gate_Retry_Number, a
 503:../DGC_A230_Functions/DGC_A230_Normal_Mode.c **** 		__Do_Open_Gate_Motor1();
 1851                             		.loc 1 503 0
 1852 01b9 F5 00 00                		clrb	!_Pre_flash_Time
 504:../DGC_A230_Functions/DGC_A230_Normal_Mode.c **** 		__Do_Open_Gate_Motor2();
 1853                             		.loc 1 504 0
 1854 01bc FC 00 00 00             		call	!!%code(___Do_Open_Gate_Motor1)
 505:../DGC_A230_Functions/DGC_A230_Normal_Mode.c **** 	} break;
 1855                             		.loc 1 505 0
 1856 01c0 FC 00 00 00             		call	!!%code(___Do_Open_Gate_Motor2)
 1857                             	.LBE34:
 506:../DGC_A230_Functions/DGC_A230_Normal_Mode.c **** 
 1858                             		.loc 1 506 0
 1859 01c4 EC 0E 02 00             		br	!!.L109
 1860                             	.L115:
 1861                             	.LBB36:
 510:../DGC_A230_Functions/DGC_A230_Normal_Mode.c **** 		__Do_Partial_Stop_Gate(OPEN_MOVING_DIRECTION);
 1862                             		.loc 1 510 0
 1863 01c8 51 08                   		mov	a, #8
 1864 01ca 9F 00 00                		mov	!_Leaf_No1_State, a
 511:../DGC_A230_Functions/DGC_A230_Normal_Mode.c **** 		Pre_flash_Time = 0x00;
 1865                             		.loc 1 511 0
 1866 01cd F6                      		clrw	ax
 1867 01ce B8 00                   		movw	[sp], ax
 1868 01d0 FC 00 00 00             		call	!!%code(___Do_Partial_Stop_Gate)
 512:../DGC_A230_Functions/DGC_A230_Normal_Mode.c **** 		__Do_Open_Gate_Motor1();
 1869                             		.loc 1 512 0
 1870 01d4 F5 00 00                		clrb	!_Pre_flash_Time
 513:../DGC_A230_Functions/DGC_A230_Normal_Mode.c **** 		__Do_Open_Gate_Motor2();
 1871                             		.loc 1 513 0
 1872 01d7 FC 00 00 00             		call	!!%code(___Do_Open_Gate_Motor1)
 514:../DGC_A230_Functions/DGC_A230_Normal_Mode.c **** 	} break;
 1873                             		.loc 1 514 0
 1874 01db FC 00 00 00             		call	!!%code(___Do_Open_Gate_Motor2)
 1875                             	.LBE36:
 515:../DGC_A230_Functions/DGC_A230_Normal_Mode.c **** 
 1876                             		.loc 1 515 0
 1877 01df EC 0E 02 00             		br	!!.L109
 1878                             	.L116:
 1879                             	.LBB37:
 519:../DGC_A230_Functions/DGC_A230_Normal_Mode.c **** 		__Do_Partial_Stop_Gate(CLOSE_MOVING_DIRECTION);
 1880                             		.loc 1 519 0
 1881 01e3 51 07                   		mov	a, #7
 1882 01e5 9F 00 00                		mov	!_Leaf_No1_State, a
 520:../DGC_A230_Functions/DGC_A230_Normal_Mode.c **** 		Auto_Close_Gate_Timer_Counter = 0;
 1883                             		.loc 1 520 0
 1884 01e8 E6                      		onew	ax
 1885 01e9 B8 00                   		movw	[sp], ax
 1886 01eb FC 00 00 00             		call	!!%code(___Do_Partial_Stop_Gate)
 521:../DGC_A230_Functions/DGC_A230_Normal_Mode.c **** 		Auto_Close_Gate_Timer_Enable = 0;
 1887                             		.loc 1 521 0
 1888 01ef F6                      		clrw	ax
 1889 01f0 BF 00 00                		movw	!_Auto_Close_Gate_Timer_Counter, ax
 522:../DGC_A230_Functions/DGC_A230_Normal_Mode.c **** 		Auto_Close_Gate_Retry_Number = Auto_Close_Retry_Number;
 1890                             		.loc 1 522 0
 1891 01f3 F5 00 00                		clrb	!_Auto_Close_Gate_Timer_Enable
 523:../DGC_A230_Functions/DGC_A230_Normal_Mode.c **** 		Pre_flash_Time = 0x00;
 1892                             		.loc 1 523 0
 1893 01f6 8F 00 00                		mov	a, !_Auto_Close_Retry_Number
 1894 01f9 9D F0                   		mov	r8, a
 1895 01fb 9F 00 00                		mov	!_Auto_Close_Gate_Retry_Number, a
 524:../DGC_A230_Functions/DGC_A230_Normal_Mode.c **** 		__Do_Open_Gate_Motor1();
 1896                             		.loc 1 524 0
 1897 01fe F5 00 00                		clrb	!_Pre_flash_Time
 525:../DGC_A230_Functions/DGC_A230_Normal_Mode.c **** 		__Do_Open_Gate_Motor2();
 1898                             		.loc 1 525 0
 1899 0201 FC 00 00 00             		call	!!%code(___Do_Open_Gate_Motor1)
 526:../DGC_A230_Functions/DGC_A230_Normal_Mode.c **** 	} break;
 1900                             		.loc 1 526 0
 1901 0205 FC 00 00 00             		call	!!%code(___Do_Open_Gate_Motor2)
 1902                             	.LBE37:
 527:../DGC_A230_Functions/DGC_A230_Normal_Mode.c **** 
 1903                             		.loc 1 527 0
 1904 0209 EC 0E 02 00             		br	!!.L109
 1905                             	.L129:
 485:../DGC_A230_Functions/DGC_A230_Normal_Mode.c **** 
 1906                             		.loc 1 485 0
 1907 020d 00                      		nop
 1908                             	.L109:
 530:../DGC_A230_Functions/DGC_A230_Normal_Mode.c **** 	}
 531:../DGC_A230_Functions/DGC_A230_Normal_Mode.c **** }
 1909                             		.loc 1 531 0
 1910 020e 10 02                   		addw	sp, #2
 1911 0210 D7                      		ret
 1912                             	.LFE6:
 1914                             		.section	.text.Step_Command_Process_Mode_3,"ax",@progbits
 1915                             		.global	_Step_Command_Process_Mode_3
 1917                             	_Step_Command_Process_Mode_3:
 1918                             	.LFB7:
 532:../DGC_A230_Functions/DGC_A230_Normal_Mode.c **** 
 533:../DGC_A230_Functions/DGC_A230_Normal_Mode.c **** void Step_Command_Process_Mode_3 (void)
 534:../DGC_A230_Functions/DGC_A230_Normal_Mode.c **** {
 1919                             		.loc 1 534 0
 1920                             		; start of function
 1921                             		; outgoing: 2 bytes
 1922                             		; uses ES register
 1923 0000 20 02                   		subw	sp, #2
 1924                             	.LCFI5:
 535:../DGC_A230_Functions/DGC_A230_Normal_Mode.c **** 	switch(Machine_State)
 1925                             		.loc 1 535 0
 1926 0002 8F 00 00                		mov	a, !_Machine_State
 1927 0005 9D F0                   		mov	r8, a
 1928 0007 F4 F1                   		clrb	r9
 1929 0009 AD F0                   		movw	ax, r8
 1930 000b 44 02 00                		cmpw	ax, #2
 1931 000e 61 F8                   		 sknz
 1932 0010 EC 7D 01 00             		 br	!!.L132
 1933 0014 AD F0                   		movw	ax, r8
 1934 0016 44 02 00                		cmpw	ax, #2
 1935 0019 71 FF                   		 xor1	CY, a.7
 1936 001b 61 F3                   		 sknh
 1937 001d EC 3B 00 00             		 br	!!.L133
 1938 0021 AD F0                   		movw	ax, r8
 1939 0023 44 00 00                		cmpw	ax, #0
 1940 0026 61 F8                   		 sknz
 1941 0028 EC 55 00 00             		 br	!!.L134
 1942 002c AD F0                   		movw	ax, r8
 1943 002e 44 01 00                		cmpw	ax, #1
 1944 0031 61 F8                   		 sknz
 1945 0033 EC 28 01 00             		 br	!!.L135
 536:../DGC_A230_Functions/DGC_A230_Normal_Mode.c **** 	{
 537:../DGC_A230_Functions/DGC_A230_Normal_Mode.c **** 	case MACHINE_STATE_STOP:
 538:../DGC_A230_Functions/DGC_A230_Normal_Mode.c **** 	{
 539:../DGC_A230_Functions/DGC_A230_Normal_Mode.c **** 		if (Leaf_No1_State == GATE_STATE_CLOSED) // Step OPen
 540:../DGC_A230_Functions/DGC_A230_Normal_Mode.c **** 		{
 541:../DGC_A230_Functions/DGC_A230_Normal_Mode.c **** 			if (!((FT1 && (CFG_parameter.Photocell_FT1_Mode_Closed == 0x00)) || (FT2 && (CFG_parameter.Photo
 542:../DGC_A230_Functions/DGC_A230_Normal_Mode.c **** 			{
 543:../DGC_A230_Functions/DGC_A230_Normal_Mode.c **** 				Pre_flash_Time = CFG_parameter.Pre_Flashing;
 544:../DGC_A230_Functions/DGC_A230_Normal_Mode.c **** 				__Do_Open_Gate_Motor1();
 545:../DGC_A230_Functions/DGC_A230_Normal_Mode.c **** 				__Do_Open_Gate_Motor2();
 546:../DGC_A230_Functions/DGC_A230_Normal_Mode.c **** 			}
 547:../DGC_A230_Functions/DGC_A230_Normal_Mode.c **** 		}
 548:../DGC_A230_Functions/DGC_A230_Normal_Mode.c **** 		else if ((Leaf_No1_State == GATE_STATE_CLOSING_PAUSE))
 549:../DGC_A230_Functions/DGC_A230_Normal_Mode.c **** 		{
 550:../DGC_A230_Functions/DGC_A230_Normal_Mode.c **** 			Pre_flash_Time = CFG_parameter.Pre_Flashing;
 551:../DGC_A230_Functions/DGC_A230_Normal_Mode.c **** 			__Do_Open_Gate_Motor1();
 552:../DGC_A230_Functions/DGC_A230_Normal_Mode.c **** 			__Do_Open_Gate_Motor2();
 553:../DGC_A230_Functions/DGC_A230_Normal_Mode.c **** 		}
 554:../DGC_A230_Functions/DGC_A230_Normal_Mode.c **** 		else if ((Leaf_No1_State == GATE_STATE_PARTIAL) || (Leaf_No1_State == GATE_STATE_PATIAL_OPENING_P
 555:../DGC_A230_Functions/DGC_A230_Normal_Mode.c **** 		{
 556:../DGC_A230_Functions/DGC_A230_Normal_Mode.c **** 			Pre_flash_Time = CFG_parameter.Pre_Flashing;
 557:../DGC_A230_Functions/DGC_A230_Normal_Mode.c **** 			__Do_Partial_Close_Gate();
 558:../DGC_A230_Functions/DGC_A230_Normal_Mode.c **** 		}
 559:../DGC_A230_Functions/DGC_A230_Normal_Mode.c **** 		else		// Step Close
 560:../DGC_A230_Functions/DGC_A230_Normal_Mode.c **** 		{
 561:../DGC_A230_Functions/DGC_A230_Normal_Mode.c **** 			Pre_flash_Time = CFG_parameter.Pre_Flashing;
 562:../DGC_A230_Functions/DGC_A230_Normal_Mode.c **** 			__Do_Close_Gate_Motor1();
 563:../DGC_A230_Functions/DGC_A230_Normal_Mode.c **** 			__Do_Close_Gate_Motor2();
 564:../DGC_A230_Functions/DGC_A230_Normal_Mode.c **** 		}
 565:../DGC_A230_Functions/DGC_A230_Normal_Mode.c **** 	} break;
 566:../DGC_A230_Functions/DGC_A230_Normal_Mode.c **** 
 567:../DGC_A230_Functions/DGC_A230_Normal_Mode.c **** 	case MACHINE_STATE_NORMAL_OPENING:
 568:../DGC_A230_Functions/DGC_A230_Normal_Mode.c **** 	{
 569:../DGC_A230_Functions/DGC_A230_Normal_Mode.c **** 		Leaf_No1_State = GATE_STATE_OPENING_PAUSE;
 570:../DGC_A230_Functions/DGC_A230_Normal_Mode.c **** 		Leaf_No2_State = GATE_STATE_OPENING_PAUSE;
 571:../DGC_A230_Functions/DGC_A230_Normal_Mode.c **** 
 572:../DGC_A230_Functions/DGC_A230_Normal_Mode.c **** 		if (CFG_parameter.Reverse_Command_Enable_Braking == 0x01)
 573:../DGC_A230_Functions/DGC_A230_Normal_Mode.c **** 		{
 574:../DGC_A230_Functions/DGC_A230_Normal_Mode.c **** 			if (CFG_parameter.Number_Of_Motors == 0x02)
 575:../DGC_A230_Functions/DGC_A230_Normal_Mode.c **** 				__Do_Brake_Motor_Type_2(OPEN_MOVING_DIRECTION);
 576:../DGC_A230_Functions/DGC_A230_Normal_Mode.c **** 			else
 577:../DGC_A230_Functions/DGC_A230_Normal_Mode.c **** 				__Do_Brake_Motor_Type_1(OPEN_MOVING_DIRECTION);
 578:../DGC_A230_Functions/DGC_A230_Normal_Mode.c **** 		}
 579:../DGC_A230_Functions/DGC_A230_Normal_Mode.c **** 		__Do_Stop_Gate_Motor1(OPEN_MOVING_DIRECTION);
 580:../DGC_A230_Functions/DGC_A230_Normal_Mode.c **** 		__Do_Stop_Gate_Motor2(OPEN_MOVING_DIRECTION);
 581:../DGC_A230_Functions/DGC_A230_Normal_Mode.c **** 		Pre_flash_Time = 0x00;
 582:../DGC_A230_Functions/DGC_A230_Normal_Mode.c **** 		__Do_Close_Gate_Motor1();
 583:../DGC_A230_Functions/DGC_A230_Normal_Mode.c **** 		__Do_Close_Gate_Motor2();
 584:../DGC_A230_Functions/DGC_A230_Normal_Mode.c **** 
 585:../DGC_A230_Functions/DGC_A230_Normal_Mode.c **** 	} break;
 586:../DGC_A230_Functions/DGC_A230_Normal_Mode.c **** 
 587:../DGC_A230_Functions/DGC_A230_Normal_Mode.c **** 	case MACHINE_STATE_NORMAL_CLOSING:
 588:../DGC_A230_Functions/DGC_A230_Normal_Mode.c **** 	{
 589:../DGC_A230_Functions/DGC_A230_Normal_Mode.c **** 		Leaf_No1_State = GATE_STATE_CLOSING_PAUSE;
 590:../DGC_A230_Functions/DGC_A230_Normal_Mode.c **** 		Leaf_No2_State = GATE_STATE_CLOSING_PAUSE;
 591:../DGC_A230_Functions/DGC_A230_Normal_Mode.c **** 		if (CFG_parameter.Reverse_Command_Enable_Braking == 0x01)
 592:../DGC_A230_Functions/DGC_A230_Normal_Mode.c **** 		{
 593:../DGC_A230_Functions/DGC_A230_Normal_Mode.c **** 			if (CFG_parameter.Number_Of_Motors == 0x02)
 594:../DGC_A230_Functions/DGC_A230_Normal_Mode.c **** 				__Do_Brake_Motor_Type_2(CLOSE_MOVING_DIRECTION);
 595:../DGC_A230_Functions/DGC_A230_Normal_Mode.c **** 			else
 596:../DGC_A230_Functions/DGC_A230_Normal_Mode.c **** 				__Do_Brake_Motor_Type_1(CLOSE_MOVING_DIRECTION);
 597:../DGC_A230_Functions/DGC_A230_Normal_Mode.c **** 		}
 598:../DGC_A230_Functions/DGC_A230_Normal_Mode.c **** 
 599:../DGC_A230_Functions/DGC_A230_Normal_Mode.c **** 		__Do_Stop_Gate_Motor1(CLOSE_MOVING_DIRECTION);
 600:../DGC_A230_Functions/DGC_A230_Normal_Mode.c **** 		__Do_Stop_Gate_Motor2(CLOSE_MOVING_DIRECTION);
 601:../DGC_A230_Functions/DGC_A230_Normal_Mode.c **** 		Pre_flash_Time = 0x00;
 602:../DGC_A230_Functions/DGC_A230_Normal_Mode.c **** 		__Do_Open_Gate_Motor1();
 603:../DGC_A230_Functions/DGC_A230_Normal_Mode.c **** 		__Do_Open_Gate_Motor2();
 604:../DGC_A230_Functions/DGC_A230_Normal_Mode.c **** 	} break;
 605:../DGC_A230_Functions/DGC_A230_Normal_Mode.c **** 
 606:../DGC_A230_Functions/DGC_A230_Normal_Mode.c **** 	case MACHINE_STATE_PARTIAL_OPENING:
 607:../DGC_A230_Functions/DGC_A230_Normal_Mode.c **** 	{
 608:../DGC_A230_Functions/DGC_A230_Normal_Mode.c **** 		Leaf_No1_State = GATE_STATE_PATIAL_OPENING_PAUSE;
 609:../DGC_A230_Functions/DGC_A230_Normal_Mode.c **** 		if (CFG_parameter.Reverse_Command_Enable_Braking == 0x01)
 610:../DGC_A230_Functions/DGC_A230_Normal_Mode.c **** 		{
 611:../DGC_A230_Functions/DGC_A230_Normal_Mode.c **** 			__Do_Brake_Motor_Type_1(OPEN_MOVING_DIRECTION);
 612:../DGC_A230_Functions/DGC_A230_Normal_Mode.c **** 		}
 613:../DGC_A230_Functions/DGC_A230_Normal_Mode.c **** 		__Do_Partial_Stop_Gate(OPEN_MOVING_DIRECTION);
 614:../DGC_A230_Functions/DGC_A230_Normal_Mode.c **** 		Pre_flash_Time = 0x00;
 615:../DGC_A230_Functions/DGC_A230_Normal_Mode.c **** 		__Do_Partial_Close_Gate();
 616:../DGC_A230_Functions/DGC_A230_Normal_Mode.c **** 	} break;
 617:../DGC_A230_Functions/DGC_A230_Normal_Mode.c **** 
 618:../DGC_A230_Functions/DGC_A230_Normal_Mode.c **** 	case MACHINE_STATE_PARTIAL_CLOSING:
 619:../DGC_A230_Functions/DGC_A230_Normal_Mode.c **** 	{
 620:../DGC_A230_Functions/DGC_A230_Normal_Mode.c **** 		Leaf_No1_State = GATE_STATE_CLOSING_PAUSE;
 621:../DGC_A230_Functions/DGC_A230_Normal_Mode.c **** 		if (CFG_parameter.Reverse_Command_Enable_Braking == 0x01)
 622:../DGC_A230_Functions/DGC_A230_Normal_Mode.c **** 		{
 623:../DGC_A230_Functions/DGC_A230_Normal_Mode.c **** 			__Do_Brake_Motor_Type_1(CLOSE_MOVING_DIRECTION);
 624:../DGC_A230_Functions/DGC_A230_Normal_Mode.c **** 		}
 625:../DGC_A230_Functions/DGC_A230_Normal_Mode.c **** 		__Do_Partial_Stop_Gate(CLOSE_MOVING_DIRECTION);
 626:../DGC_A230_Functions/DGC_A230_Normal_Mode.c **** 		Pre_flash_Time = 0x00;
 627:../DGC_A230_Functions/DGC_A230_Normal_Mode.c **** 		__Do_Open_Gate_Motor1();
 628:../DGC_A230_Functions/DGC_A230_Normal_Mode.c **** 		__Do_Open_Gate_Motor2();
 629:../DGC_A230_Functions/DGC_A230_Normal_Mode.c **** 	} break;
 630:../DGC_A230_Functions/DGC_A230_Normal_Mode.c **** 
 631:../DGC_A230_Functions/DGC_A230_Normal_Mode.c **** 	default: break;
 1946                             		.loc 1 631 0
 1947 0037 EC 2B 02 00             		br	!!.L130
 1948                             	.L133:
 535:../DGC_A230_Functions/DGC_A230_Normal_Mode.c **** 	switch(Machine_State)
 1949                             		.loc 1 535 0
 1950 003b AD F0                   		movw	ax, r8
 1951 003d 44 03 00                		cmpw	ax, #3
 1952 0040 61 F8                   		 sknz
 1953 0042 EC D2 01 00             		 br	!!.L136
 1954 0046 AD F0                   		movw	ax, r8
 1955 0048 44 04 00                		cmpw	ax, #4
 1956 004b 61 F8                   		 sknz
 1957 004d EC FE 01 00             		 br	!!.L137
 1958                             		.loc 1 631 0
 1959 0051 EC 2B 02 00             		br	!!.L130
 1960                             	.L134:
 539:../DGC_A230_Functions/DGC_A230_Normal_Mode.c **** 		{
 1961                             		.loc 1 539 0
 1962 0055 8F 00 00                		mov	a, !_Leaf_No1_State
 1963 0058 9D F0                   		mov	r8, a
 1964 005a 4A F0 01                		cmp	r8, #1
 1965 005d 61 E8                   		 skz
 1966 005f EC C2 00 00             		 br	!!.L138
 541:../DGC_A230_Functions/DGC_A230_Normal_Mode.c **** 			{
 1967                             		.loc 1 541 0
 1968 0063 C9 F0 07 FF             		movw	r8, #-249
 1969 0067 AD F0                   		movw	ax, r8
 1970 0069 BD F2                   		movw	r10, ax
 1971 006b FA F2                   		movw	hl, r10
 1972 006d 8B                      		mov	a, [hl]
 1973 006e 9D F0                   		mov	r8, a
 1974 0070 31 1A                   		shr	a, 1
 1975 0072 9D F0                   		mov	r8, a
 1976 0074 5A F0 01                		and	r8, #1
 1977 0077 61 F8                   		sknz
 1978 0079 EC 8A 00 00             		 br	!!.L139
 1979                             		 # zero-comparison eliminated
 541:../DGC_A230_Functions/DGC_A230_Normal_Mode.c **** 			{
 1980                             		.loc 1 541 0 is_stmt 0 discriminator 2
 1981 007d 8F 00 00                		mov	a, !_CFG_parameter+82
 1982 0080 9D F0                   		mov	r8, a
 1983 0082 D4 F0                   		cmp0	r8
 1984 0084 61 F8                   		 sknz
 1985 0086 EC 24 01 00             		 br	!!.L142
 1986                             	.L139:
 541:../DGC_A230_Functions/DGC_A230_Normal_Mode.c **** 			{
 1987                             		.loc 1 541 0 discriminator 3
 1988 008a C9 F0 07 FF             		movw	r8, #-249
 1989 008e AD F0                   		movw	ax, r8
 1990 0090 BD F2                   		movw	r10, ax
 1991 0092 EA F2                   		movw	de, r10
 1992 0094 89                      		mov	a, [de]
 1993 0095 5C 01                   		and	a, #1
 1994 0097 9D F0                   		mov	r8, a
 1995 0099 D4 F0                   		cmp0	r8
 1996 009b 61 F8                   		 sknz
 1997 009d EC AE 00 00             		 br	!!.L141
 541:../DGC_A230_Functions/DGC_A230_Normal_Mode.c **** 			{
 1998                             		.loc 1 541 0 discriminator 4
 1999 00a1 8F 00 00                		mov	a, !_CFG_parameter+85
 2000 00a4 9D F0                   		mov	r8, a
 2001 00a6 D4 F0                   		cmp0	r8
 2002 00a8 61 F8                   		 sknz
 2003 00aa EC 24 01 00             		 br	!!.L142
 2004                             	.L141:
 2005                             	.LBB38:
 543:../DGC_A230_Functions/DGC_A230_Normal_Mode.c **** 				__Do_Open_Gate_Motor1();
 2006                             		.loc 1 543 0 is_stmt 1
 2007 00ae 8F 00 00                		mov	a, !_CFG_parameter+52
 2008 00b1 9D F0                   		mov	r8, a
 2009 00b3 9F 00 00                		mov	!_Pre_flash_Time, a
 544:../DGC_A230_Functions/DGC_A230_Normal_Mode.c **** 				__Do_Open_Gate_Motor2();
 2010                             		.loc 1 544 0
 2011 00b6 FC 00 00 00             		call	!!%code(___Do_Open_Gate_Motor1)
 545:../DGC_A230_Functions/DGC_A230_Normal_Mode.c **** 			}
 2012                             		.loc 1 545 0
 2013 00ba FC 00 00 00             		call	!!%code(___Do_Open_Gate_Motor2)
 2014                             	.LBE38:
 565:../DGC_A230_Functions/DGC_A230_Normal_Mode.c **** 
 2015                             		.loc 1 565 0
 2016 00be EC 2B 02 00             		br	!!.L130
 2017                             	.L138:
 548:../DGC_A230_Functions/DGC_A230_Normal_Mode.c **** 		{
 2018                             		.loc 1 548 0
 2019 00c2 8F 00 00                		mov	a, !_Leaf_No1_State
 2020 00c5 9D F0                   		mov	r8, a
 2021 00c7 4A F0 07                		cmp	r8, #7
 2022 00ca 61 E8                   		 skz
 2023 00cc EC E4 00 00             		 br	!!.L143
 2024                             	.LBB39:
 550:../DGC_A230_Functions/DGC_A230_Normal_Mode.c **** 			__Do_Open_Gate_Motor1();
 2025                             		.loc 1 550 0
 2026 00d0 8F 00 00                		mov	a, !_CFG_parameter+52
 2027 00d3 9D F0                   		mov	r8, a
 2028 00d5 9F 00 00                		mov	!_Pre_flash_Time, a
 551:../DGC_A230_Functions/DGC_A230_Normal_Mode.c **** 			__Do_Open_Gate_Motor2();
 2029                             		.loc 1 551 0
 2030 00d8 FC 00 00 00             		call	!!%code(___Do_Open_Gate_Motor1)
 552:../DGC_A230_Functions/DGC_A230_Normal_Mode.c **** 		}
 2031                             		.loc 1 552 0
 2032 00dc FC 00 00 00             		call	!!%code(___Do_Open_Gate_Motor2)
 2033                             	.LBE39:
 2034 00e0 EC 24 01 00             		br	!!.L142
 2035                             	.L143:
 554:../DGC_A230_Functions/DGC_A230_Normal_Mode.c **** 		{
 2036                             		.loc 1 554 0
 2037 00e4 8F 00 00                		mov	a, !_Leaf_No1_State
 2038 00e7 9D F0                   		mov	r8, a
 2039 00e9 4A F0 05                		cmp	r8, #5
 2040 00ec 61 F8                   		 sknz
 2041 00ee EC 00 01 00             		 br	!!.L144
 554:../DGC_A230_Functions/DGC_A230_Normal_Mode.c **** 		{
 2042                             		.loc 1 554 0 is_stmt 0 discriminator 1
 2043 00f2 8F 00 00                		mov	a, !_Leaf_No1_State
 2044 00f5 9D F0                   		mov	r8, a
 2045 00f7 4A F0 08                		cmp	r8, #8
 2046 00fa 61 E8                   		 skz
 2047 00fc EC 10 01 00             		 br	!!.L145
 2048                             	.L144:
 2049                             	.LBB40:
 556:../DGC_A230_Functions/DGC_A230_Normal_Mode.c **** 			__Do_Partial_Close_Gate();
 2050                             		.loc 1 556 0 is_stmt 1
 2051 0100 8F 00 00                		mov	a, !_CFG_parameter+52
 2052 0103 9D F0                   		mov	r8, a
 2053 0105 9F 00 00                		mov	!_Pre_flash_Time, a
 557:../DGC_A230_Functions/DGC_A230_Normal_Mode.c **** 		}
 2054                             		.loc 1 557 0
 2055 0108 FC 00 00 00             		call	!!%code(___Do_Partial_Close_Gate)
 2056                             	.LBE40:
 555:../DGC_A230_Functions/DGC_A230_Normal_Mode.c **** 			Pre_flash_Time = CFG_parameter.Pre_Flashing;
 2057                             		.loc 1 555 0
 2058 010c EC 24 01 00             		br	!!.L142
 2059                             	.L145:
 2060                             	.LBB41:
 561:../DGC_A230_Functions/DGC_A230_Normal_Mode.c **** 			__Do_Close_Gate_Motor1();
 2061                             		.loc 1 561 0
 2062 0110 8F 00 00                		mov	a, !_CFG_parameter+52
 2063 0113 9D F0                   		mov	r8, a
 2064 0115 9F 00 00                		mov	!_Pre_flash_Time, a
 562:../DGC_A230_Functions/DGC_A230_Normal_Mode.c **** 			__Do_Close_Gate_Motor2();
 2065                             		.loc 1 562 0
 2066 0118 FC 00 00 00             		call	!!%code(___Do_Close_Gate_Motor1)
 563:../DGC_A230_Functions/DGC_A230_Normal_Mode.c **** 		}
 2067                             		.loc 1 563 0
 2068 011c FC 00 00 00             		call	!!%code(___Do_Close_Gate_Motor2)
 2069                             	.LBE41:
 565:../DGC_A230_Functions/DGC_A230_Normal_Mode.c **** 
 2070                             		.loc 1 565 0
 2071 0120 EC 2B 02 00             		br	!!.L130
 2072                             	.L142:
 565:../DGC_A230_Functions/DGC_A230_Normal_Mode.c **** 
 2073                             		.loc 1 565 0 is_stmt 0 discriminator 1
 2074 0124 EC 2B 02 00             		br	!!.L130
 2075                             	.L135:
 2076                             	.LBB42:
 569:../DGC_A230_Functions/DGC_A230_Normal_Mode.c **** 		Leaf_No2_State = GATE_STATE_OPENING_PAUSE;
 2077                             		.loc 1 569 0 is_stmt 1
 2078 0128 51 06                   		mov	a, #6
 2079 012a 9F 00 00                		mov	!_Leaf_No1_State, a
 570:../DGC_A230_Functions/DGC_A230_Normal_Mode.c **** 
 2080                             		.loc 1 570 0
 2081 012d 51 06                   		mov	a, #6
 2082 012f 9F 00 00                		mov	!_Leaf_No2_State, a
 572:../DGC_A230_Functions/DGC_A230_Normal_Mode.c **** 		{
 2083                             		.loc 1 572 0
 2084 0132 8F 00 00                		mov	a, !_CFG_parameter+90
 2085 0135 9D F0                   		mov	r8, a
 2086 0137 4A F0 01                		cmp	r8, #1
 2087 013a 61 E8                   		 skz
 2088 013c EC 60 01 00             		 br	!!.L147
 2089                             	.LBB43:
 574:../DGC_A230_Functions/DGC_A230_Normal_Mode.c **** 				__Do_Brake_Motor_Type_2(OPEN_MOVING_DIRECTION);
 2090                             		.loc 1 574 0
 2091 0140 8F 00 00                		mov	a, !_CFG_parameter+1
 2092 0143 9D F0                   		mov	r8, a
 2093 0145 4A F0 02                		cmp	r8, #2
 2094 0148 61 E8                   		 skz
 2095 014a EC 59 01 00             		 br	!!.L148
 575:../DGC_A230_Functions/DGC_A230_Normal_Mode.c **** 			else
 2096                             		.loc 1 575 0
 2097 014e F6                      		clrw	ax
 2098 014f B8 00                   		movw	[sp], ax
 2099 0151 FC 00 00 00             		call	!!%code(___Do_Brake_Motor_Type_2)
 2100 0155 EC 60 01 00             		br	!!.L147
 2101                             	.L148:
 577:../DGC_A230_Functions/DGC_A230_Normal_Mode.c **** 		}
 2102                             		.loc 1 577 0
 2103 0159 F6                      		clrw	ax
 2104 015a B8 00                   		movw	[sp], ax
 2105 015c FC 00 00 00             		call	!!%code(___Do_Brake_Motor_Type_1)
 2106                             	.L147:
 2107                             	.LBE43:
 579:../DGC_A230_Functions/DGC_A230_Normal_Mode.c **** 		__Do_Stop_Gate_Motor2(OPEN_MOVING_DIRECTION);
 2108                             		.loc 1 579 0
 2109 0160 F6                      		clrw	ax
 2110 0161 B8 00                   		movw	[sp], ax
 2111 0163 FC 00 00 00             		call	!!%code(___Do_Stop_Gate_Motor1)
 580:../DGC_A230_Functions/DGC_A230_Normal_Mode.c **** 		Pre_flash_Time = 0x00;
 2112                             		.loc 1 580 0
 2113 0167 F6                      		clrw	ax
 2114 0168 B8 00                   		movw	[sp], ax
 2115 016a FC 00 00 00             		call	!!%code(___Do_Stop_Gate_Motor2)
 581:../DGC_A230_Functions/DGC_A230_Normal_Mode.c **** 		__Do_Close_Gate_Motor1();
 2116                             		.loc 1 581 0
 2117 016e F5 00 00                		clrb	!_Pre_flash_Time
 582:../DGC_A230_Functions/DGC_A230_Normal_Mode.c **** 		__Do_Close_Gate_Motor2();
 2118                             		.loc 1 582 0
 2119 0171 FC 00 00 00             		call	!!%code(___Do_Close_Gate_Motor1)
 583:../DGC_A230_Functions/DGC_A230_Normal_Mode.c **** 
 2120                             		.loc 1 583 0
 2121 0175 FC 00 00 00             		call	!!%code(___Do_Close_Gate_Motor2)
 2122                             	.LBE42:
 585:../DGC_A230_Functions/DGC_A230_Normal_Mode.c **** 
 2123                             		.loc 1 585 0
 2124 0179 EC 2B 02 00             		br	!!.L130
 2125                             	.L132:
 2126                             	.LBB44:
 589:../DGC_A230_Functions/DGC_A230_Normal_Mode.c **** 		Leaf_No2_State = GATE_STATE_CLOSING_PAUSE;
 2127                             		.loc 1 589 0
 2128 017d 51 07                   		mov	a, #7
 2129 017f 9F 00 00                		mov	!_Leaf_No1_State, a
 590:../DGC_A230_Functions/DGC_A230_Normal_Mode.c **** 		if (CFG_parameter.Reverse_Command_Enable_Braking == 0x01)
 2130                             		.loc 1 590 0
 2131 0182 51 07                   		mov	a, #7
 2132 0184 9F 00 00                		mov	!_Leaf_No2_State, a
 591:../DGC_A230_Functions/DGC_A230_Normal_Mode.c **** 		{
 2133                             		.loc 1 591 0
 2134 0187 8F 00 00                		mov	a, !_CFG_parameter+90
 2135 018a 9D F0                   		mov	r8, a
 2136 018c 4A F0 01                		cmp	r8, #1
 2137 018f 61 E8                   		 skz
 2138 0191 EC B5 01 00             		 br	!!.L149
 2139                             	.LBB45:
 593:../DGC_A230_Functions/DGC_A230_Normal_Mode.c **** 				__Do_Brake_Motor_Type_2(CLOSE_MOVING_DIRECTION);
 2140                             		.loc 1 593 0
 2141 0195 8F 00 00                		mov	a, !_CFG_parameter+1
 2142 0198 9D F0                   		mov	r8, a
 2143 019a 4A F0 02                		cmp	r8, #2
 2144 019d 61 E8                   		 skz
 2145 019f EC AE 01 00             		 br	!!.L150
 594:../DGC_A230_Functions/DGC_A230_Normal_Mode.c **** 			else
 2146                             		.loc 1 594 0
 2147 01a3 E6                      		onew	ax
 2148 01a4 B8 00                   		movw	[sp], ax
 2149 01a6 FC 00 00 00             		call	!!%code(___Do_Brake_Motor_Type_2)
 2150 01aa EC B5 01 00             		br	!!.L149
 2151                             	.L150:
 596:../DGC_A230_Functions/DGC_A230_Normal_Mode.c **** 		}
 2152                             		.loc 1 596 0
 2153 01ae E6                      		onew	ax
 2154 01af B8 00                   		movw	[sp], ax
 2155 01b1 FC 00 00 00             		call	!!%code(___Do_Brake_Motor_Type_1)
 2156                             	.L149:
 2157                             	.LBE45:
 599:../DGC_A230_Functions/DGC_A230_Normal_Mode.c **** 		__Do_Stop_Gate_Motor2(CLOSE_MOVING_DIRECTION);
 2158                             		.loc 1 599 0
 2159 01b5 E6                      		onew	ax
 2160 01b6 B8 00                   		movw	[sp], ax
 2161 01b8 FC 00 00 00             		call	!!%code(___Do_Stop_Gate_Motor1)
 600:../DGC_A230_Functions/DGC_A230_Normal_Mode.c **** 		Pre_flash_Time = 0x00;
 2162                             		.loc 1 600 0
 2163 01bc E6                      		onew	ax
 2164 01bd B8 00                   		movw	[sp], ax
 2165 01bf FC 00 00 00             		call	!!%code(___Do_Stop_Gate_Motor2)
 601:../DGC_A230_Functions/DGC_A230_Normal_Mode.c **** 		__Do_Open_Gate_Motor1();
 2166                             		.loc 1 601 0
 2167 01c3 F5 00 00                		clrb	!_Pre_flash_Time
 602:../DGC_A230_Functions/DGC_A230_Normal_Mode.c **** 		__Do_Open_Gate_Motor2();
 2168                             		.loc 1 602 0
 2169 01c6 FC 00 00 00             		call	!!%code(___Do_Open_Gate_Motor1)
 603:../DGC_A230_Functions/DGC_A230_Normal_Mode.c **** 	} break;
 2170                             		.loc 1 603 0
 2171 01ca FC 00 00 00             		call	!!%code(___Do_Open_Gate_Motor2)
 2172                             	.LBE44:
 604:../DGC_A230_Functions/DGC_A230_Normal_Mode.c **** 
 2173                             		.loc 1 604 0
 2174 01ce EC 2B 02 00             		br	!!.L130
 2175                             	.L136:
 2176                             	.LBB46:
 608:../DGC_A230_Functions/DGC_A230_Normal_Mode.c **** 		if (CFG_parameter.Reverse_Command_Enable_Braking == 0x01)
 2177                             		.loc 1 608 0
 2178 01d2 51 08                   		mov	a, #8
 2179 01d4 9F 00 00                		mov	!_Leaf_No1_State, a
 609:../DGC_A230_Functions/DGC_A230_Normal_Mode.c **** 		{
 2180                             		.loc 1 609 0
 2181 01d7 8F 00 00                		mov	a, !_CFG_parameter+90
 2182 01da 9D F0                   		mov	r8, a
 2183 01dc 4A F0 01                		cmp	r8, #1
 2184 01df 61 E8                   		 skz
 2185 01e1 EC EC 01 00             		 br	!!.L151
 2186                             	.LBB47:
 611:../DGC_A230_Functions/DGC_A230_Normal_Mode.c **** 		}
 2187                             		.loc 1 611 0
 2188 01e5 F6                      		clrw	ax
 2189 01e6 B8 00                   		movw	[sp], ax
 2190 01e8 FC 00 00 00             		call	!!%code(___Do_Brake_Motor_Type_1)
 2191                             	.L151:
 2192                             	.LBE47:
 613:../DGC_A230_Functions/DGC_A230_Normal_Mode.c **** 		Pre_flash_Time = 0x00;
 2193                             		.loc 1 613 0
 2194 01ec F6                      		clrw	ax
 2195 01ed B8 00                   		movw	[sp], ax
 2196 01ef FC 00 00 00             		call	!!%code(___Do_Partial_Stop_Gate)
 614:../DGC_A230_Functions/DGC_A230_Normal_Mode.c **** 		__Do_Partial_Close_Gate();
 2197                             		.loc 1 614 0
 2198 01f3 F5 00 00                		clrb	!_Pre_flash_Time
 615:../DGC_A230_Functions/DGC_A230_Normal_Mode.c **** 	} break;
 2199                             		.loc 1 615 0
 2200 01f6 FC 00 00 00             		call	!!%code(___Do_Partial_Close_Gate)
 2201                             	.LBE46:
 616:../DGC_A230_Functions/DGC_A230_Normal_Mode.c **** 
 2202                             		.loc 1 616 0
 2203 01fa EC 2B 02 00             		br	!!.L130
 2204                             	.L137:
 2205                             	.LBB48:
 620:../DGC_A230_Functions/DGC_A230_Normal_Mode.c **** 		if (CFG_parameter.Reverse_Command_Enable_Braking == 0x01)
 2206                             		.loc 1 620 0
 2207 01fe 51 07                   		mov	a, #7
 2208 0200 9F 00 00                		mov	!_Leaf_No1_State, a
 621:../DGC_A230_Functions/DGC_A230_Normal_Mode.c **** 		{
 2209                             		.loc 1 621 0
 2210 0203 8F 00 00                		mov	a, !_CFG_parameter+90
 2211 0206 9D F0                   		mov	r8, a
 2212 0208 4A F0 01                		cmp	r8, #1
 2213 020b 61 E8                   		 skz
 2214 020d EC 18 02 00             		 br	!!.L152
 2215                             	.LBB49:
 623:../DGC_A230_Functions/DGC_A230_Normal_Mode.c **** 		}
 2216                             		.loc 1 623 0
 2217 0211 E6                      		onew	ax
 2218 0212 B8 00                   		movw	[sp], ax
 2219 0214 FC 00 00 00             		call	!!%code(___Do_Brake_Motor_Type_1)
 2220                             	.L152:
 2221                             	.LBE49:
 625:../DGC_A230_Functions/DGC_A230_Normal_Mode.c **** 		Pre_flash_Time = 0x00;
 2222                             		.loc 1 625 0
 2223 0218 E6                      		onew	ax
 2224 0219 B8 00                   		movw	[sp], ax
 2225 021b FC 00 00 00             		call	!!%code(___Do_Partial_Stop_Gate)
 626:../DGC_A230_Functions/DGC_A230_Normal_Mode.c **** 		__Do_Open_Gate_Motor1();
 2226                             		.loc 1 626 0
 2227 021f F5 00 00                		clrb	!_Pre_flash_Time
 627:../DGC_A230_Functions/DGC_A230_Normal_Mode.c **** 		__Do_Open_Gate_Motor2();
 2228                             		.loc 1 627 0
 2229 0222 FC 00 00 00             		call	!!%code(___Do_Open_Gate_Motor1)
 628:../DGC_A230_Functions/DGC_A230_Normal_Mode.c **** 	} break;
 2230                             		.loc 1 628 0
 2231 0226 FC 00 00 00             		call	!!%code(___Do_Open_Gate_Motor2)
 2232                             	.LBE48:
 629:../DGC_A230_Functions/DGC_A230_Normal_Mode.c **** 
 2233                             		.loc 1 629 0
 2234 022a 00                      		nop
 2235                             	.L130:
 632:../DGC_A230_Functions/DGC_A230_Normal_Mode.c **** 	}
 633:../DGC_A230_Functions/DGC_A230_Normal_Mode.c **** 
 634:../DGC_A230_Functions/DGC_A230_Normal_Mode.c **** }
 2236                             		.loc 1 634 0
 2237 022b 10 02                   		addw	sp, #2
 2238 022d D7                      		ret
 2239                             	.LFE7:
 2241                             		.section	.text.Step_Command_Process_Mode_4,"ax",@progbits
 2242                             		.global	_Step_Command_Process_Mode_4
 2244                             	_Step_Command_Process_Mode_4:
 2245                             	.LFB8:
 635:../DGC_A230_Functions/DGC_A230_Normal_Mode.c **** 
 636:../DGC_A230_Functions/DGC_A230_Normal_Mode.c **** void Step_Command_Process_Mode_4 (void)
 637:../DGC_A230_Functions/DGC_A230_Normal_Mode.c **** {
 2246                             		.loc 1 637 0
 2247                             		; start of function
 2248                             		; outgoing: 2 bytes
 2249                             		; uses ES register
 2250 0000 20 02                   		subw	sp, #2
 2251                             	.LCFI6:
 638:../DGC_A230_Functions/DGC_A230_Normal_Mode.c **** 	switch(Machine_State)
 2252                             		.loc 1 638 0
 2253 0002 8F 00 00                		mov	a, !_Machine_State
 2254 0005 9D F0                   		mov	r8, a
 2255 0007 F4 F1                   		clrb	r9
 2256 0009 AD F0                   		movw	ax, r8
 2257 000b 44 02 00                		cmpw	ax, #2
 2258 000e 61 F8                   		 sknz
 2259 0010 EC 7D 01 00             		 br	!!.L155
 2260 0014 AD F0                   		movw	ax, r8
 2261 0016 44 02 00                		cmpw	ax, #2
 2262 0019 71 FF                   		 xor1	CY, a.7
 2263 001b 61 F3                   		 sknh
 2264 001d EC 3B 00 00             		 br	!!.L156
 2265 0021 AD F0                   		movw	ax, r8
 2266 0023 44 00 00                		cmpw	ax, #0
 2267 0026 61 F8                   		 sknz
 2268 0028 EC 55 00 00             		 br	!!.L157
 2269 002c AD F0                   		movw	ax, r8
 2270 002e 44 01 00                		cmpw	ax, #1
 2271 0031 61 F8                   		 sknz
 2272 0033 EC 28 01 00             		 br	!!.L158
 639:../DGC_A230_Functions/DGC_A230_Normal_Mode.c **** 	{
 640:../DGC_A230_Functions/DGC_A230_Normal_Mode.c **** 	case MACHINE_STATE_STOP:
 641:../DGC_A230_Functions/DGC_A230_Normal_Mode.c **** 	{
 642:../DGC_A230_Functions/DGC_A230_Normal_Mode.c **** 		if (Leaf_No1_State == GATE_STATE_CLOSED) // Step OPen
 643:../DGC_A230_Functions/DGC_A230_Normal_Mode.c **** 		{
 644:../DGC_A230_Functions/DGC_A230_Normal_Mode.c **** 			if (!((FT1 && (CFG_parameter.Photocell_FT1_Mode_Closed == 0x00)) || (FT2 && (CFG_parameter.Photo
 645:../DGC_A230_Functions/DGC_A230_Normal_Mode.c **** 			{
 646:../DGC_A230_Functions/DGC_A230_Normal_Mode.c **** 				Pre_flash_Time = CFG_parameter.Pre_Flashing;
 647:../DGC_A230_Functions/DGC_A230_Normal_Mode.c **** 				__Do_Open_Gate_Motor1();
 648:../DGC_A230_Functions/DGC_A230_Normal_Mode.c **** 				__Do_Open_Gate_Motor2();
 649:../DGC_A230_Functions/DGC_A230_Normal_Mode.c **** 			}
 650:../DGC_A230_Functions/DGC_A230_Normal_Mode.c **** 		}
 651:../DGC_A230_Functions/DGC_A230_Normal_Mode.c **** 		else if ((Leaf_No1_State == GATE_STATE_CLOSING_PAUSE))
 652:../DGC_A230_Functions/DGC_A230_Normal_Mode.c **** 		{
 653:../DGC_A230_Functions/DGC_A230_Normal_Mode.c **** 			Pre_flash_Time = CFG_parameter.Pre_Flashing;
 654:../DGC_A230_Functions/DGC_A230_Normal_Mode.c **** 			__Do_Open_Gate_Motor1();
 655:../DGC_A230_Functions/DGC_A230_Normal_Mode.c **** 			__Do_Open_Gate_Motor2();
 656:../DGC_A230_Functions/DGC_A230_Normal_Mode.c **** 		}
 657:../DGC_A230_Functions/DGC_A230_Normal_Mode.c **** 		else if ((Leaf_No1_State == GATE_STATE_PARTIAL) || (Leaf_No1_State == GATE_STATE_PATIAL_OPENING_P
 658:../DGC_A230_Functions/DGC_A230_Normal_Mode.c **** 		{
 659:../DGC_A230_Functions/DGC_A230_Normal_Mode.c **** 			Pre_flash_Time = CFG_parameter.Pre_Flashing;
 660:../DGC_A230_Functions/DGC_A230_Normal_Mode.c **** 			__Do_Partial_Close_Gate();
 661:../DGC_A230_Functions/DGC_A230_Normal_Mode.c **** 		}
 662:../DGC_A230_Functions/DGC_A230_Normal_Mode.c **** 		else		// Step Close
 663:../DGC_A230_Functions/DGC_A230_Normal_Mode.c **** 		{
 664:../DGC_A230_Functions/DGC_A230_Normal_Mode.c **** 			Pre_flash_Time = CFG_parameter.Pre_Flashing;
 665:../DGC_A230_Functions/DGC_A230_Normal_Mode.c **** 			__Do_Close_Gate_Motor1();
 666:../DGC_A230_Functions/DGC_A230_Normal_Mode.c **** 			__Do_Close_Gate_Motor2();
 667:../DGC_A230_Functions/DGC_A230_Normal_Mode.c **** 		}
 668:../DGC_A230_Functions/DGC_A230_Normal_Mode.c **** 	} break;
 669:../DGC_A230_Functions/DGC_A230_Normal_Mode.c **** 
 670:../DGC_A230_Functions/DGC_A230_Normal_Mode.c **** 	case MACHINE_STATE_NORMAL_OPENING:
 671:../DGC_A230_Functions/DGC_A230_Normal_Mode.c **** 	{
 672:../DGC_A230_Functions/DGC_A230_Normal_Mode.c **** 		Leaf_No1_State = GATE_STATE_OPENING_PAUSE;
 673:../DGC_A230_Functions/DGC_A230_Normal_Mode.c **** 		Leaf_No2_State = GATE_STATE_OPENING_PAUSE;
 674:../DGC_A230_Functions/DGC_A230_Normal_Mode.c **** 
 675:../DGC_A230_Functions/DGC_A230_Normal_Mode.c **** 		if (CFG_parameter.Reverse_Command_Enable_Braking == 0x01)
 676:../DGC_A230_Functions/DGC_A230_Normal_Mode.c **** 		{
 677:../DGC_A230_Functions/DGC_A230_Normal_Mode.c **** 			if (CFG_parameter.Number_Of_Motors == 0x02)
 678:../DGC_A230_Functions/DGC_A230_Normal_Mode.c **** 				__Do_Brake_Motor_Type_2(OPEN_MOVING_DIRECTION);
 679:../DGC_A230_Functions/DGC_A230_Normal_Mode.c **** 			else
 680:../DGC_A230_Functions/DGC_A230_Normal_Mode.c **** 				__Do_Brake_Motor_Type_1(OPEN_MOVING_DIRECTION);
 681:../DGC_A230_Functions/DGC_A230_Normal_Mode.c **** 		}
 682:../DGC_A230_Functions/DGC_A230_Normal_Mode.c **** 
 683:../DGC_A230_Functions/DGC_A230_Normal_Mode.c **** 		__Do_Stop_Gate_Motor1(OPEN_MOVING_DIRECTION);
 684:../DGC_A230_Functions/DGC_A230_Normal_Mode.c **** 		__Do_Stop_Gate_Motor2(OPEN_MOVING_DIRECTION);
 685:../DGC_A230_Functions/DGC_A230_Normal_Mode.c **** 		Pre_flash_Time = 0x00;
 686:../DGC_A230_Functions/DGC_A230_Normal_Mode.c **** 		__Do_Close_Gate_Motor1();
 687:../DGC_A230_Functions/DGC_A230_Normal_Mode.c **** 		__Do_Close_Gate_Motor2();
 688:../DGC_A230_Functions/DGC_A230_Normal_Mode.c **** 
 689:../DGC_A230_Functions/DGC_A230_Normal_Mode.c **** 	} break;
 690:../DGC_A230_Functions/DGC_A230_Normal_Mode.c **** 
 691:../DGC_A230_Functions/DGC_A230_Normal_Mode.c **** 	case MACHINE_STATE_NORMAL_CLOSING:
 692:../DGC_A230_Functions/DGC_A230_Normal_Mode.c **** 	{
 693:../DGC_A230_Functions/DGC_A230_Normal_Mode.c **** 		Leaf_No1_State = GATE_STATE_CLOSING_PAUSE;
 694:../DGC_A230_Functions/DGC_A230_Normal_Mode.c **** 		Leaf_No2_State = GATE_STATE_CLOSING_PAUSE;
 695:../DGC_A230_Functions/DGC_A230_Normal_Mode.c **** 		__Do_Stop_Gate_Motor1(CLOSE_MOVING_DIRECTION);
 696:../DGC_A230_Functions/DGC_A230_Normal_Mode.c **** 		__Do_Stop_Gate_Motor2(CLOSE_MOVING_DIRECTION);
 697:../DGC_A230_Functions/DGC_A230_Normal_Mode.c **** 	} break;
 698:../DGC_A230_Functions/DGC_A230_Normal_Mode.c **** 
 699:../DGC_A230_Functions/DGC_A230_Normal_Mode.c **** 	case MACHINE_STATE_PARTIAL_OPENING:
 700:../DGC_A230_Functions/DGC_A230_Normal_Mode.c **** 	{
 701:../DGC_A230_Functions/DGC_A230_Normal_Mode.c **** 		Leaf_No1_State = GATE_STATE_PATIAL_OPENING_PAUSE;
 702:../DGC_A230_Functions/DGC_A230_Normal_Mode.c **** 		if (CFG_parameter.Reverse_Command_Enable_Braking == 0x01)
 703:../DGC_A230_Functions/DGC_A230_Normal_Mode.c **** 		{
 704:../DGC_A230_Functions/DGC_A230_Normal_Mode.c **** 			__Do_Brake_Motor_Type_1(OPEN_MOVING_DIRECTION);
 705:../DGC_A230_Functions/DGC_A230_Normal_Mode.c **** 		}
 706:../DGC_A230_Functions/DGC_A230_Normal_Mode.c **** 		__Do_Partial_Stop_Gate(OPEN_MOVING_DIRECTION);
 707:../DGC_A230_Functions/DGC_A230_Normal_Mode.c **** 		Pre_flash_Time = 0x00;
 708:../DGC_A230_Functions/DGC_A230_Normal_Mode.c **** 		__Do_Partial_Close_Gate();
 709:../DGC_A230_Functions/DGC_A230_Normal_Mode.c **** 	} break;
 710:../DGC_A230_Functions/DGC_A230_Normal_Mode.c **** 
 711:../DGC_A230_Functions/DGC_A230_Normal_Mode.c **** 	case MACHINE_STATE_PARTIAL_CLOSING:
 712:../DGC_A230_Functions/DGC_A230_Normal_Mode.c **** 	{
 713:../DGC_A230_Functions/DGC_A230_Normal_Mode.c **** 		Leaf_No1_State = GATE_STATE_CLOSING_PAUSE;
 714:../DGC_A230_Functions/DGC_A230_Normal_Mode.c **** 		__Do_Partial_Stop_Gate(CLOSE_MOVING_DIRECTION);
 715:../DGC_A230_Functions/DGC_A230_Normal_Mode.c **** 	} break;
 716:../DGC_A230_Functions/DGC_A230_Normal_Mode.c **** 
 717:../DGC_A230_Functions/DGC_A230_Normal_Mode.c **** 	default: break;
 2273                             		.loc 1 717 0
 2274 0037 EC D2 01 00             		br	!!.L153
 2275                             	.L156:
 638:../DGC_A230_Functions/DGC_A230_Normal_Mode.c **** 	switch(Machine_State)
 2276                             		.loc 1 638 0
 2277 003b AD F0                   		movw	ax, r8
 2278 003d 44 03 00                		cmpw	ax, #3
 2279 0040 61 F8                   		 sknz
 2280 0042 EC 99 01 00             		 br	!!.L159
 2281 0046 AD F0                   		movw	ax, r8
 2282 0048 44 04 00                		cmpw	ax, #4
 2283 004b 61 F8                   		 sknz
 2284 004d EC C5 01 00             		 br	!!.L160
 2285                             		.loc 1 717 0
 2286 0051 EC D2 01 00             		br	!!.L153
 2287                             	.L157:
 642:../DGC_A230_Functions/DGC_A230_Normal_Mode.c **** 		{
 2288                             		.loc 1 642 0
 2289 0055 8F 00 00                		mov	a, !_Leaf_No1_State
 2290 0058 9D F0                   		mov	r8, a
 2291 005a 4A F0 01                		cmp	r8, #1
 2292 005d 61 E8                   		 skz
 2293 005f EC C2 00 00             		 br	!!.L161
 644:../DGC_A230_Functions/DGC_A230_Normal_Mode.c **** 			{
 2294                             		.loc 1 644 0
 2295 0063 C9 F0 07 FF             		movw	r8, #-249
 2296 0067 AD F0                   		movw	ax, r8
 2297 0069 BD F2                   		movw	r10, ax
 2298 006b FA F2                   		movw	hl, r10
 2299 006d 8B                      		mov	a, [hl]
 2300 006e 9D F0                   		mov	r8, a
 2301 0070 31 1A                   		shr	a, 1
 2302 0072 9D F0                   		mov	r8, a
 2303 0074 5A F0 01                		and	r8, #1
 2304 0077 61 F8                   		sknz
 2305 0079 EC 8A 00 00             		 br	!!.L162
 2306                             		 # zero-comparison eliminated
 644:../DGC_A230_Functions/DGC_A230_Normal_Mode.c **** 			{
 2307                             		.loc 1 644 0 is_stmt 0 discriminator 2
 2308 007d 8F 00 00                		mov	a, !_CFG_parameter+82
 2309 0080 9D F0                   		mov	r8, a
 2310 0082 D4 F0                   		cmp0	r8
 2311 0084 61 F8                   		 sknz
 2312 0086 EC 24 01 00             		 br	!!.L165
 2313                             	.L162:
 644:../DGC_A230_Functions/DGC_A230_Normal_Mode.c **** 			{
 2314                             		.loc 1 644 0 discriminator 3
 2315 008a C9 F0 07 FF             		movw	r8, #-249
 2316 008e AD F0                   		movw	ax, r8
 2317 0090 BD F2                   		movw	r10, ax
 2318 0092 EA F2                   		movw	de, r10
 2319 0094 89                      		mov	a, [de]
 2320 0095 5C 01                   		and	a, #1
 2321 0097 9D F0                   		mov	r8, a
 2322 0099 D4 F0                   		cmp0	r8
 2323 009b 61 F8                   		 sknz
 2324 009d EC AE 00 00             		 br	!!.L164
 644:../DGC_A230_Functions/DGC_A230_Normal_Mode.c **** 			{
 2325                             		.loc 1 644 0 discriminator 4
 2326 00a1 8F 00 00                		mov	a, !_CFG_parameter+85
 2327 00a4 9D F0                   		mov	r8, a
 2328 00a6 D4 F0                   		cmp0	r8
 2329 00a8 61 F8                   		 sknz
 2330 00aa EC 24 01 00             		 br	!!.L165
 2331                             	.L164:
 2332                             	.LBB50:
 646:../DGC_A230_Functions/DGC_A230_Normal_Mode.c **** 				__Do_Open_Gate_Motor1();
 2333                             		.loc 1 646 0 is_stmt 1
 2334 00ae 8F 00 00                		mov	a, !_CFG_parameter+52
 2335 00b1 9D F0                   		mov	r8, a
 2336 00b3 9F 00 00                		mov	!_Pre_flash_Time, a
 647:../DGC_A230_Functions/DGC_A230_Normal_Mode.c **** 				__Do_Open_Gate_Motor2();
 2337                             		.loc 1 647 0
 2338 00b6 FC 00 00 00             		call	!!%code(___Do_Open_Gate_Motor1)
 648:../DGC_A230_Functions/DGC_A230_Normal_Mode.c **** 			}
 2339                             		.loc 1 648 0
 2340 00ba FC 00 00 00             		call	!!%code(___Do_Open_Gate_Motor2)
 2341                             	.LBE50:
 668:../DGC_A230_Functions/DGC_A230_Normal_Mode.c **** 
 2342                             		.loc 1 668 0
 2343 00be EC D2 01 00             		br	!!.L153
 2344                             	.L161:
 651:../DGC_A230_Functions/DGC_A230_Normal_Mode.c **** 		{
 2345                             		.loc 1 651 0
 2346 00c2 8F 00 00                		mov	a, !_Leaf_No1_State
 2347 00c5 9D F0                   		mov	r8, a
 2348 00c7 4A F0 07                		cmp	r8, #7
 2349 00ca 61 E8                   		 skz
 2350 00cc EC E4 00 00             		 br	!!.L166
 2351                             	.LBB51:
 653:../DGC_A230_Functions/DGC_A230_Normal_Mode.c **** 			__Do_Open_Gate_Motor1();
 2352                             		.loc 1 653 0
 2353 00d0 8F 00 00                		mov	a, !_CFG_parameter+52
 2354 00d3 9D F0                   		mov	r8, a
 2355 00d5 9F 00 00                		mov	!_Pre_flash_Time, a
 654:../DGC_A230_Functions/DGC_A230_Normal_Mode.c **** 			__Do_Open_Gate_Motor2();
 2356                             		.loc 1 654 0
 2357 00d8 FC 00 00 00             		call	!!%code(___Do_Open_Gate_Motor1)
 655:../DGC_A230_Functions/DGC_A230_Normal_Mode.c **** 		}
 2358                             		.loc 1 655 0
 2359 00dc FC 00 00 00             		call	!!%code(___Do_Open_Gate_Motor2)
 2360                             	.LBE51:
 2361 00e0 EC 24 01 00             		br	!!.L165
 2362                             	.L166:
 657:../DGC_A230_Functions/DGC_A230_Normal_Mode.c **** 		{
 2363                             		.loc 1 657 0
 2364 00e4 8F 00 00                		mov	a, !_Leaf_No1_State
 2365 00e7 9D F0                   		mov	r8, a
 2366 00e9 4A F0 05                		cmp	r8, #5
 2367 00ec 61 F8                   		 sknz
 2368 00ee EC 00 01 00             		 br	!!.L167
 657:../DGC_A230_Functions/DGC_A230_Normal_Mode.c **** 		{
 2369                             		.loc 1 657 0 is_stmt 0 discriminator 1
 2370 00f2 8F 00 00                		mov	a, !_Leaf_No1_State
 2371 00f5 9D F0                   		mov	r8, a
 2372 00f7 4A F0 08                		cmp	r8, #8
 2373 00fa 61 E8                   		 skz
 2374 00fc EC 10 01 00             		 br	!!.L168
 2375                             	.L167:
 2376                             	.LBB52:
 659:../DGC_A230_Functions/DGC_A230_Normal_Mode.c **** 			__Do_Partial_Close_Gate();
 2377                             		.loc 1 659 0 is_stmt 1
 2378 0100 8F 00 00                		mov	a, !_CFG_parameter+52
 2379 0103 9D F0                   		mov	r8, a
 2380 0105 9F 00 00                		mov	!_Pre_flash_Time, a
 660:../DGC_A230_Functions/DGC_A230_Normal_Mode.c **** 		}
 2381                             		.loc 1 660 0
 2382 0108 FC 00 00 00             		call	!!%code(___Do_Partial_Close_Gate)
 2383                             	.LBE52:
 658:../DGC_A230_Functions/DGC_A230_Normal_Mode.c **** 			Pre_flash_Time = CFG_parameter.Pre_Flashing;
 2384                             		.loc 1 658 0
 2385 010c EC 24 01 00             		br	!!.L165
 2386                             	.L168:
 2387                             	.LBB53:
 664:../DGC_A230_Functions/DGC_A230_Normal_Mode.c **** 			__Do_Close_Gate_Motor1();
 2388                             		.loc 1 664 0
 2389 0110 8F 00 00                		mov	a, !_CFG_parameter+52
 2390 0113 9D F0                   		mov	r8, a
 2391 0115 9F 00 00                		mov	!_Pre_flash_Time, a
 665:../DGC_A230_Functions/DGC_A230_Normal_Mode.c **** 			__Do_Close_Gate_Motor2();
 2392                             		.loc 1 665 0
 2393 0118 FC 00 00 00             		call	!!%code(___Do_Close_Gate_Motor1)
 666:../DGC_A230_Functions/DGC_A230_Normal_Mode.c **** 		}
 2394                             		.loc 1 666 0
 2395 011c FC 00 00 00             		call	!!%code(___Do_Close_Gate_Motor2)
 2396                             	.LBE53:
 668:../DGC_A230_Functions/DGC_A230_Normal_Mode.c **** 
 2397                             		.loc 1 668 0
 2398 0120 EC D2 01 00             		br	!!.L153
 2399                             	.L165:
 668:../DGC_A230_Functions/DGC_A230_Normal_Mode.c **** 
 2400                             		.loc 1 668 0 is_stmt 0 discriminator 1
 2401 0124 EC D2 01 00             		br	!!.L153
 2402                             	.L158:
 2403                             	.LBB54:
 672:../DGC_A230_Functions/DGC_A230_Normal_Mode.c **** 		Leaf_No2_State = GATE_STATE_OPENING_PAUSE;
 2404                             		.loc 1 672 0 is_stmt 1
 2405 0128 51 06                   		mov	a, #6
 2406 012a 9F 00 00                		mov	!_Leaf_No1_State, a
 673:../DGC_A230_Functions/DGC_A230_Normal_Mode.c **** 
 2407                             		.loc 1 673 0
 2408 012d 51 06                   		mov	a, #6
 2409 012f 9F 00 00                		mov	!_Leaf_No2_State, a
 675:../DGC_A230_Functions/DGC_A230_Normal_Mode.c **** 		{
 2410                             		.loc 1 675 0
 2411 0132 8F 00 00                		mov	a, !_CFG_parameter+90
 2412 0135 9D F0                   		mov	r8, a
 2413 0137 4A F0 01                		cmp	r8, #1
 2414 013a 61 E8                   		 skz
 2415 013c EC 60 01 00             		 br	!!.L170
 2416                             	.LBB55:
 677:../DGC_A230_Functions/DGC_A230_Normal_Mode.c **** 				__Do_Brake_Motor_Type_2(OPEN_MOVING_DIRECTION);
 2417                             		.loc 1 677 0
 2418 0140 8F 00 00                		mov	a, !_CFG_parameter+1
 2419 0143 9D F0                   		mov	r8, a
 2420 0145 4A F0 02                		cmp	r8, #2
 2421 0148 61 E8                   		 skz
 2422 014a EC 59 01 00             		 br	!!.L171
 678:../DGC_A230_Functions/DGC_A230_Normal_Mode.c **** 			else
 2423                             		.loc 1 678 0
 2424 014e F6                      		clrw	ax
 2425 014f B8 00                   		movw	[sp], ax
 2426 0151 FC 00 00 00             		call	!!%code(___Do_Brake_Motor_Type_2)
 2427 0155 EC 60 01 00             		br	!!.L170
 2428                             	.L171:
 680:../DGC_A230_Functions/DGC_A230_Normal_Mode.c **** 		}
 2429                             		.loc 1 680 0
 2430 0159 F6                      		clrw	ax
 2431 015a B8 00                   		movw	[sp], ax
 2432 015c FC 00 00 00             		call	!!%code(___Do_Brake_Motor_Type_1)
 2433                             	.L170:
 2434                             	.LBE55:
 683:../DGC_A230_Functions/DGC_A230_Normal_Mode.c **** 		__Do_Stop_Gate_Motor2(OPEN_MOVING_DIRECTION);
 2435                             		.loc 1 683 0
 2436 0160 F6                      		clrw	ax
 2437 0161 B8 00                   		movw	[sp], ax
 2438 0163 FC 00 00 00             		call	!!%code(___Do_Stop_Gate_Motor1)
 684:../DGC_A230_Functions/DGC_A230_Normal_Mode.c **** 		Pre_flash_Time = 0x00;
 2439                             		.loc 1 684 0
 2440 0167 F6                      		clrw	ax
 2441 0168 B8 00                   		movw	[sp], ax
 2442 016a FC 00 00 00             		call	!!%code(___Do_Stop_Gate_Motor2)
 685:../DGC_A230_Functions/DGC_A230_Normal_Mode.c **** 		__Do_Close_Gate_Motor1();
 2443                             		.loc 1 685 0
 2444 016e F5 00 00                		clrb	!_Pre_flash_Time
 686:../DGC_A230_Functions/DGC_A230_Normal_Mode.c **** 		__Do_Close_Gate_Motor2();
 2445                             		.loc 1 686 0
 2446 0171 FC 00 00 00             		call	!!%code(___Do_Close_Gate_Motor1)
 687:../DGC_A230_Functions/DGC_A230_Normal_Mode.c **** 
 2447                             		.loc 1 687 0
 2448 0175 FC 00 00 00             		call	!!%code(___Do_Close_Gate_Motor2)
 2449                             	.LBE54:
 689:../DGC_A230_Functions/DGC_A230_Normal_Mode.c **** 
 2450                             		.loc 1 689 0
 2451 0179 EC D2 01 00             		br	!!.L153
 2452                             	.L155:
 2453                             	.LBB56:
 693:../DGC_A230_Functions/DGC_A230_Normal_Mode.c **** 		Leaf_No2_State = GATE_STATE_CLOSING_PAUSE;
 2454                             		.loc 1 693 0
 2455 017d 51 07                   		mov	a, #7
 2456 017f 9F 00 00                		mov	!_Leaf_No1_State, a
 694:../DGC_A230_Functions/DGC_A230_Normal_Mode.c **** 		__Do_Stop_Gate_Motor1(CLOSE_MOVING_DIRECTION);
 2457                             		.loc 1 694 0
 2458 0182 51 07                   		mov	a, #7
 2459 0184 9F 00 00                		mov	!_Leaf_No2_State, a
 695:../DGC_A230_Functions/DGC_A230_Normal_Mode.c **** 		__Do_Stop_Gate_Motor2(CLOSE_MOVING_DIRECTION);
 2460                             		.loc 1 695 0
 2461 0187 E6                      		onew	ax
 2462 0188 B8 00                   		movw	[sp], ax
 2463 018a FC 00 00 00             		call	!!%code(___Do_Stop_Gate_Motor1)
 696:../DGC_A230_Functions/DGC_A230_Normal_Mode.c **** 	} break;
 2464                             		.loc 1 696 0
 2465 018e E6                      		onew	ax
 2466 018f B8 00                   		movw	[sp], ax
 2467 0191 FC 00 00 00             		call	!!%code(___Do_Stop_Gate_Motor2)
 2468                             	.LBE56:
 697:../DGC_A230_Functions/DGC_A230_Normal_Mode.c **** 
 2469                             		.loc 1 697 0
 2470 0195 EC D2 01 00             		br	!!.L153
 2471                             	.L159:
 2472                             	.LBB57:
 701:../DGC_A230_Functions/DGC_A230_Normal_Mode.c **** 		if (CFG_parameter.Reverse_Command_Enable_Braking == 0x01)
 2473                             		.loc 1 701 0
 2474 0199 51 08                   		mov	a, #8
 2475 019b 9F 00 00                		mov	!_Leaf_No1_State, a
 702:../DGC_A230_Functions/DGC_A230_Normal_Mode.c **** 		{
 2476                             		.loc 1 702 0
 2477 019e 8F 00 00                		mov	a, !_CFG_parameter+90
 2478 01a1 9D F0                   		mov	r8, a
 2479 01a3 4A F0 01                		cmp	r8, #1
 2480 01a6 61 E8                   		 skz
 2481 01a8 EC B3 01 00             		 br	!!.L172
 2482                             	.LBB58:
 704:../DGC_A230_Functions/DGC_A230_Normal_Mode.c **** 		}
 2483                             		.loc 1 704 0
 2484 01ac F6                      		clrw	ax
 2485 01ad B8 00                   		movw	[sp], ax
 2486 01af FC 00 00 00             		call	!!%code(___Do_Brake_Motor_Type_1)
 2487                             	.L172:
 2488                             	.LBE58:
 706:../DGC_A230_Functions/DGC_A230_Normal_Mode.c **** 		Pre_flash_Time = 0x00;
 2489                             		.loc 1 706 0
 2490 01b3 F6                      		clrw	ax
 2491 01b4 B8 00                   		movw	[sp], ax
 2492 01b6 FC 00 00 00             		call	!!%code(___Do_Partial_Stop_Gate)
 707:../DGC_A230_Functions/DGC_A230_Normal_Mode.c **** 		__Do_Partial_Close_Gate();
 2493                             		.loc 1 707 0
 2494 01ba F5 00 00                		clrb	!_Pre_flash_Time
 708:../DGC_A230_Functions/DGC_A230_Normal_Mode.c **** 	} break;
 2495                             		.loc 1 708 0
 2496 01bd FC 00 00 00             		call	!!%code(___Do_Partial_Close_Gate)
 2497                             	.LBE57:
 709:../DGC_A230_Functions/DGC_A230_Normal_Mode.c **** 
 2498                             		.loc 1 709 0
 2499 01c1 EC D2 01 00             		br	!!.L153
 2500                             	.L160:
 2501                             	.LBB59:
 713:../DGC_A230_Functions/DGC_A230_Normal_Mode.c **** 		__Do_Partial_Stop_Gate(CLOSE_MOVING_DIRECTION);
 2502                             		.loc 1 713 0
 2503 01c5 51 07                   		mov	a, #7
 2504 01c7 9F 00 00                		mov	!_Leaf_No1_State, a
 714:../DGC_A230_Functions/DGC_A230_Normal_Mode.c **** 	} break;
 2505                             		.loc 1 714 0
 2506 01ca E6                      		onew	ax
 2507 01cb B8 00                   		movw	[sp], ax
 2508 01cd FC 00 00 00             		call	!!%code(___Do_Partial_Stop_Gate)
 2509                             	.LBE59:
 715:../DGC_A230_Functions/DGC_A230_Normal_Mode.c **** 
 2510                             		.loc 1 715 0
 2511 01d1 00                      		nop
 2512                             	.L153:
 718:../DGC_A230_Functions/DGC_A230_Normal_Mode.c **** 	}
 719:../DGC_A230_Functions/DGC_A230_Normal_Mode.c **** }
 2513                             		.loc 1 719 0
 2514 01d2 10 02                   		addw	sp, #2
 2515 01d4 D7                      		ret
 2516                             	.LFE8:
 2518                             		.section	.text.Step_Command_Process_Mode_5,"ax",@progbits
 2519                             		.global	_Step_Command_Process_Mode_5
 2521                             	_Step_Command_Process_Mode_5:
 2522                             	.LFB9:
 720:../DGC_A230_Functions/DGC_A230_Normal_Mode.c **** 
 721:../DGC_A230_Functions/DGC_A230_Normal_Mode.c **** void Step_Command_Process_Mode_5 (void)
 722:../DGC_A230_Functions/DGC_A230_Normal_Mode.c **** {
 2523                             		.loc 1 722 0
 2524                             		; start of function
 2525                             		; outgoing: 2 bytes
 2526                             		; uses ES register
 2527 0000 20 02                   		subw	sp, #2
 2528                             	.LCFI7:
 723:../DGC_A230_Functions/DGC_A230_Normal_Mode.c **** 	switch(Machine_State)
 2529                             		.loc 1 723 0
 2530 0002 8F 00 00                		mov	a, !_Machine_State
 2531 0005 9D F0                   		mov	r8, a
 2532 0007 F4 F1                   		clrb	r9
 2533 0009 AD F0                   		movw	ax, r8
 2534 000b 44 02 00                		cmpw	ax, #2
 2535 000e 61 F8                   		 sknz
 2536 0010 EC 44 01 00             		 br	!!.L175
 2537 0014 AD F0                   		movw	ax, r8
 2538 0016 44 02 00                		cmpw	ax, #2
 2539 0019 71 FF                   		 xor1	CY, a.7
 2540 001b 61 F3                   		 sknh
 2541 001d EC 3B 00 00             		 br	!!.L176
 2542 0021 AD F0                   		movw	ax, r8
 2543 0023 44 00 00                		cmpw	ax, #0
 2544 0026 61 F8                   		 sknz
 2545 0028 EC 55 00 00             		 br	!!.L177
 2546 002c AD F0                   		movw	ax, r8
 2547 002e 44 01 00                		cmpw	ax, #1
 2548 0031 61 F8                   		 sknz
 2549 0033 EC 28 01 00             		 br	!!.L178
 724:../DGC_A230_Functions/DGC_A230_Normal_Mode.c **** 	{
 725:../DGC_A230_Functions/DGC_A230_Normal_Mode.c **** 	case MACHINE_STATE_STOP:
 726:../DGC_A230_Functions/DGC_A230_Normal_Mode.c **** 	{
 727:../DGC_A230_Functions/DGC_A230_Normal_Mode.c **** 		if (Leaf_No1_State == GATE_STATE_CLOSED) // Step OPen
 728:../DGC_A230_Functions/DGC_A230_Normal_Mode.c **** 		{
 729:../DGC_A230_Functions/DGC_A230_Normal_Mode.c **** 			if (!((FT1 && (CFG_parameter.Photocell_FT1_Mode_Closed == 0x00)) || (FT2 && (CFG_parameter.Photo
 730:../DGC_A230_Functions/DGC_A230_Normal_Mode.c **** 			{
 731:../DGC_A230_Functions/DGC_A230_Normal_Mode.c **** 				Pre_flash_Time = CFG_parameter.Pre_Flashing;
 732:../DGC_A230_Functions/DGC_A230_Normal_Mode.c **** 				__Do_Open_Gate_Motor1();
 733:../DGC_A230_Functions/DGC_A230_Normal_Mode.c **** 				__Do_Open_Gate_Motor2();
 734:../DGC_A230_Functions/DGC_A230_Normal_Mode.c **** 			}
 735:../DGC_A230_Functions/DGC_A230_Normal_Mode.c **** 		}
 736:../DGC_A230_Functions/DGC_A230_Normal_Mode.c **** 		else if (Leaf_No1_State == GATE_STATE_CLOSING_PAUSE)
 737:../DGC_A230_Functions/DGC_A230_Normal_Mode.c **** 		{
 738:../DGC_A230_Functions/DGC_A230_Normal_Mode.c **** 			Pre_flash_Time = CFG_parameter.Pre_Flashing;
 739:../DGC_A230_Functions/DGC_A230_Normal_Mode.c **** 			__Do_Open_Gate_Motor1();
 740:../DGC_A230_Functions/DGC_A230_Normal_Mode.c **** 			__Do_Open_Gate_Motor2();
 741:../DGC_A230_Functions/DGC_A230_Normal_Mode.c **** 		}
 742:../DGC_A230_Functions/DGC_A230_Normal_Mode.c **** 		else if ((Leaf_No1_State == GATE_STATE_PARTIAL) || (Leaf_No1_State == GATE_STATE_PATIAL_OPENING_P
 743:../DGC_A230_Functions/DGC_A230_Normal_Mode.c **** 		{
 744:../DGC_A230_Functions/DGC_A230_Normal_Mode.c **** 			Pre_flash_Time = CFG_parameter.Pre_Flashing;
 745:../DGC_A230_Functions/DGC_A230_Normal_Mode.c **** 			__Do_Partial_Close_Gate();
 746:../DGC_A230_Functions/DGC_A230_Normal_Mode.c **** 		}
 747:../DGC_A230_Functions/DGC_A230_Normal_Mode.c **** 		else		// Step Close
 748:../DGC_A230_Functions/DGC_A230_Normal_Mode.c **** 		{
 749:../DGC_A230_Functions/DGC_A230_Normal_Mode.c **** 			Pre_flash_Time = CFG_parameter.Pre_Flashing;
 750:../DGC_A230_Functions/DGC_A230_Normal_Mode.c **** 			__Do_Close_Gate_Motor1();
 751:../DGC_A230_Functions/DGC_A230_Normal_Mode.c **** 			__Do_Close_Gate_Motor2();
 752:../DGC_A230_Functions/DGC_A230_Normal_Mode.c **** 		}
 753:../DGC_A230_Functions/DGC_A230_Normal_Mode.c **** 	} break;
 754:../DGC_A230_Functions/DGC_A230_Normal_Mode.c **** 
 755:../DGC_A230_Functions/DGC_A230_Normal_Mode.c **** 	case MACHINE_STATE_NORMAL_OPENING:
 756:../DGC_A230_Functions/DGC_A230_Normal_Mode.c **** 	{
 757:../DGC_A230_Functions/DGC_A230_Normal_Mode.c **** 		Leaf_No1_State = GATE_STATE_OPENING_PAUSE;
 758:../DGC_A230_Functions/DGC_A230_Normal_Mode.c **** 		Leaf_No2_State = GATE_STATE_OPENING_PAUSE;
 759:../DGC_A230_Functions/DGC_A230_Normal_Mode.c **** 		__Do_Stop_Gate_Motor1(OPEN_MOVING_DIRECTION);
 760:../DGC_A230_Functions/DGC_A230_Normal_Mode.c **** 		__Do_Stop_Gate_Motor2(OPEN_MOVING_DIRECTION);
 761:../DGC_A230_Functions/DGC_A230_Normal_Mode.c **** 	} break;
 762:../DGC_A230_Functions/DGC_A230_Normal_Mode.c **** 
 763:../DGC_A230_Functions/DGC_A230_Normal_Mode.c **** 	case MACHINE_STATE_NORMAL_CLOSING:
 764:../DGC_A230_Functions/DGC_A230_Normal_Mode.c **** 	{
 765:../DGC_A230_Functions/DGC_A230_Normal_Mode.c **** 		Leaf_No1_State = GATE_STATE_CLOSING_PAUSE;
 766:../DGC_A230_Functions/DGC_A230_Normal_Mode.c **** 		Leaf_No2_State = GATE_STATE_CLOSING_PAUSE;
 767:../DGC_A230_Functions/DGC_A230_Normal_Mode.c **** 		__Do_Stop_Gate_Motor1(CLOSE_MOVING_DIRECTION);
 768:../DGC_A230_Functions/DGC_A230_Normal_Mode.c **** 		__Do_Stop_Gate_Motor2(CLOSE_MOVING_DIRECTION);
 769:../DGC_A230_Functions/DGC_A230_Normal_Mode.c **** 	} break;
 770:../DGC_A230_Functions/DGC_A230_Normal_Mode.c **** 
 771:../DGC_A230_Functions/DGC_A230_Normal_Mode.c **** 	case MACHINE_STATE_PARTIAL_OPENING:
 772:../DGC_A230_Functions/DGC_A230_Normal_Mode.c **** 	{
 773:../DGC_A230_Functions/DGC_A230_Normal_Mode.c **** 		Leaf_No1_State = GATE_STATE_PATIAL_OPENING_PAUSE;
 774:../DGC_A230_Functions/DGC_A230_Normal_Mode.c **** 		__Do_Partial_Stop_Gate(OPEN_MOVING_DIRECTION);
 775:../DGC_A230_Functions/DGC_A230_Normal_Mode.c **** 	} break;
 776:../DGC_A230_Functions/DGC_A230_Normal_Mode.c **** 
 777:../DGC_A230_Functions/DGC_A230_Normal_Mode.c **** 	case MACHINE_STATE_PARTIAL_CLOSING:
 778:../DGC_A230_Functions/DGC_A230_Normal_Mode.c **** 	{
 779:../DGC_A230_Functions/DGC_A230_Normal_Mode.c **** 		Leaf_No1_State = GATE_STATE_CLOSING_PAUSE;
 780:../DGC_A230_Functions/DGC_A230_Normal_Mode.c **** 		__Do_Partial_Stop_Gate(CLOSE_MOVING_DIRECTION);
 781:../DGC_A230_Functions/DGC_A230_Normal_Mode.c **** 	} break;
 782:../DGC_A230_Functions/DGC_A230_Normal_Mode.c **** 
 783:../DGC_A230_Functions/DGC_A230_Normal_Mode.c **** 	default: break;
 2550                             		.loc 1 783 0
 2551 0037 EC 7D 01 00             		br	!!.L173
 2552                             	.L176:
 723:../DGC_A230_Functions/DGC_A230_Normal_Mode.c **** 	switch(Machine_State)
 2553                             		.loc 1 723 0
 2554 003b AD F0                   		movw	ax, r8
 2555 003d 44 03 00                		cmpw	ax, #3
 2556 0040 61 F8                   		 sknz
 2557 0042 EC 60 01 00             		 br	!!.L179
 2558 0046 AD F0                   		movw	ax, r8
 2559 0048 44 04 00                		cmpw	ax, #4
 2560 004b 61 F8                   		 sknz
 2561 004d EC 70 01 00             		 br	!!.L180
 2562                             		.loc 1 783 0
 2563 0051 EC 7D 01 00             		br	!!.L173
 2564                             	.L177:
 727:../DGC_A230_Functions/DGC_A230_Normal_Mode.c **** 		{
 2565                             		.loc 1 727 0
 2566 0055 8F 00 00                		mov	a, !_Leaf_No1_State
 2567 0058 9D F0                   		mov	r8, a
 2568 005a 4A F0 01                		cmp	r8, #1
 2569 005d 61 E8                   		 skz
 2570 005f EC C2 00 00             		 br	!!.L181
 729:../DGC_A230_Functions/DGC_A230_Normal_Mode.c **** 			{
 2571                             		.loc 1 729 0
 2572 0063 C9 F0 07 FF             		movw	r8, #-249
 2573 0067 AD F0                   		movw	ax, r8
 2574 0069 BD F2                   		movw	r10, ax
 2575 006b FA F2                   		movw	hl, r10
 2576 006d 8B                      		mov	a, [hl]
 2577 006e 9D F0                   		mov	r8, a
 2578 0070 31 1A                   		shr	a, 1
 2579 0072 9D F0                   		mov	r8, a
 2580 0074 5A F0 01                		and	r8, #1
 2581 0077 61 F8                   		sknz
 2582 0079 EC 8A 00 00             		 br	!!.L182
 2583                             		 # zero-comparison eliminated
 729:../DGC_A230_Functions/DGC_A230_Normal_Mode.c **** 			{
 2584                             		.loc 1 729 0 is_stmt 0 discriminator 2
 2585 007d 8F 00 00                		mov	a, !_CFG_parameter+82
 2586 0080 9D F0                   		mov	r8, a
 2587 0082 D4 F0                   		cmp0	r8
 2588 0084 61 F8                   		 sknz
 2589 0086 EC 24 01 00             		 br	!!.L185
 2590                             	.L182:
 729:../DGC_A230_Functions/DGC_A230_Normal_Mode.c **** 			{
 2591                             		.loc 1 729 0 discriminator 3
 2592 008a C9 F0 07 FF             		movw	r8, #-249
 2593 008e AD F0                   		movw	ax, r8
 2594 0090 BD F2                   		movw	r10, ax
 2595 0092 EA F2                   		movw	de, r10
 2596 0094 89                      		mov	a, [de]
 2597 0095 5C 01                   		and	a, #1
 2598 0097 9D F0                   		mov	r8, a
 2599 0099 D4 F0                   		cmp0	r8
 2600 009b 61 F8                   		 sknz
 2601 009d EC AE 00 00             		 br	!!.L184
 729:../DGC_A230_Functions/DGC_A230_Normal_Mode.c **** 			{
 2602                             		.loc 1 729 0 discriminator 4
 2603 00a1 8F 00 00                		mov	a, !_CFG_parameter+85
 2604 00a4 9D F0                   		mov	r8, a
 2605 00a6 D4 F0                   		cmp0	r8
 2606 00a8 61 F8                   		 sknz
 2607 00aa EC 24 01 00             		 br	!!.L185
 2608                             	.L184:
 2609                             	.LBB60:
 731:../DGC_A230_Functions/DGC_A230_Normal_Mode.c **** 				__Do_Open_Gate_Motor1();
 2610                             		.loc 1 731 0 is_stmt 1
 2611 00ae 8F 00 00                		mov	a, !_CFG_parameter+52
 2612 00b1 9D F0                   		mov	r8, a
 2613 00b3 9F 00 00                		mov	!_Pre_flash_Time, a
 732:../DGC_A230_Functions/DGC_A230_Normal_Mode.c **** 				__Do_Open_Gate_Motor2();
 2614                             		.loc 1 732 0
 2615 00b6 FC 00 00 00             		call	!!%code(___Do_Open_Gate_Motor1)
 733:../DGC_A230_Functions/DGC_A230_Normal_Mode.c **** 			}
 2616                             		.loc 1 733 0
 2617 00ba FC 00 00 00             		call	!!%code(___Do_Open_Gate_Motor2)
 2618                             	.LBE60:
 753:../DGC_A230_Functions/DGC_A230_Normal_Mode.c **** 
 2619                             		.loc 1 753 0
 2620 00be EC 7D 01 00             		br	!!.L173
 2621                             	.L181:
 736:../DGC_A230_Functions/DGC_A230_Normal_Mode.c **** 		{
 2622                             		.loc 1 736 0
 2623 00c2 8F 00 00                		mov	a, !_Leaf_No1_State
 2624 00c5 9D F0                   		mov	r8, a
 2625 00c7 4A F0 07                		cmp	r8, #7
 2626 00ca 61 E8                   		 skz
 2627 00cc EC E4 00 00             		 br	!!.L186
 2628                             	.LBB61:
 738:../DGC_A230_Functions/DGC_A230_Normal_Mode.c **** 			__Do_Open_Gate_Motor1();
 2629                             		.loc 1 738 0
 2630 00d0 8F 00 00                		mov	a, !_CFG_parameter+52
 2631 00d3 9D F0                   		mov	r8, a
 2632 00d5 9F 00 00                		mov	!_Pre_flash_Time, a
 739:../DGC_A230_Functions/DGC_A230_Normal_Mode.c **** 			__Do_Open_Gate_Motor2();
 2633                             		.loc 1 739 0
 2634 00d8 FC 00 00 00             		call	!!%code(___Do_Open_Gate_Motor1)
 740:../DGC_A230_Functions/DGC_A230_Normal_Mode.c **** 		}
 2635                             		.loc 1 740 0
 2636 00dc FC 00 00 00             		call	!!%code(___Do_Open_Gate_Motor2)
 2637                             	.LBE61:
 2638 00e0 EC 24 01 00             		br	!!.L185
 2639                             	.L186:
 742:../DGC_A230_Functions/DGC_A230_Normal_Mode.c **** 		{
 2640                             		.loc 1 742 0
 2641 00e4 8F 00 00                		mov	a, !_Leaf_No1_State
 2642 00e7 9D F0                   		mov	r8, a
 2643 00e9 4A F0 05                		cmp	r8, #5
 2644 00ec 61 F8                   		 sknz
 2645 00ee EC 00 01 00             		 br	!!.L187
 742:../DGC_A230_Functions/DGC_A230_Normal_Mode.c **** 		{
 2646                             		.loc 1 742 0 is_stmt 0 discriminator 1
 2647 00f2 8F 00 00                		mov	a, !_Leaf_No1_State
 2648 00f5 9D F0                   		mov	r8, a
 2649 00f7 4A F0 08                		cmp	r8, #8
 2650 00fa 61 E8                   		 skz
 2651 00fc EC 10 01 00             		 br	!!.L188
 2652                             	.L187:
 2653                             	.LBB62:
 744:../DGC_A230_Functions/DGC_A230_Normal_Mode.c **** 			__Do_Partial_Close_Gate();
 2654                             		.loc 1 744 0 is_stmt 1
 2655 0100 8F 00 00                		mov	a, !_CFG_parameter+52
 2656 0103 9D F0                   		mov	r8, a
 2657 0105 9F 00 00                		mov	!_Pre_flash_Time, a
 745:../DGC_A230_Functions/DGC_A230_Normal_Mode.c **** 		}
 2658                             		.loc 1 745 0
 2659 0108 FC 00 00 00             		call	!!%code(___Do_Partial_Close_Gate)
 2660                             	.LBE62:
 743:../DGC_A230_Functions/DGC_A230_Normal_Mode.c **** 			Pre_flash_Time = CFG_parameter.Pre_Flashing;
 2661                             		.loc 1 743 0
 2662 010c EC 24 01 00             		br	!!.L185
 2663                             	.L188:
 2664                             	.LBB63:
 749:../DGC_A230_Functions/DGC_A230_Normal_Mode.c **** 			__Do_Close_Gate_Motor1();
 2665                             		.loc 1 749 0
 2666 0110 8F 00 00                		mov	a, !_CFG_parameter+52
 2667 0113 9D F0                   		mov	r8, a
 2668 0115 9F 00 00                		mov	!_Pre_flash_Time, a
 750:../DGC_A230_Functions/DGC_A230_Normal_Mode.c **** 			__Do_Close_Gate_Motor2();
 2669                             		.loc 1 750 0
 2670 0118 FC 00 00 00             		call	!!%code(___Do_Close_Gate_Motor1)
 751:../DGC_A230_Functions/DGC_A230_Normal_Mode.c **** 		}
 2671                             		.loc 1 751 0
 2672 011c FC 00 00 00             		call	!!%code(___Do_Close_Gate_Motor2)
 2673                             	.LBE63:
 753:../DGC_A230_Functions/DGC_A230_Normal_Mode.c **** 
 2674                             		.loc 1 753 0
 2675 0120 EC 7D 01 00             		br	!!.L173
 2676                             	.L185:
 753:../DGC_A230_Functions/DGC_A230_Normal_Mode.c **** 
 2677                             		.loc 1 753 0 is_stmt 0 discriminator 1
 2678 0124 EC 7D 01 00             		br	!!.L173
 2679                             	.L178:
 2680                             	.LBB64:
 757:../DGC_A230_Functions/DGC_A230_Normal_Mode.c **** 		Leaf_No2_State = GATE_STATE_OPENING_PAUSE;
 2681                             		.loc 1 757 0 is_stmt 1
 2682 0128 51 06                   		mov	a, #6
 2683 012a 9F 00 00                		mov	!_Leaf_No1_State, a
 758:../DGC_A230_Functions/DGC_A230_Normal_Mode.c **** 		__Do_Stop_Gate_Motor1(OPEN_MOVING_DIRECTION);
 2684                             		.loc 1 758 0
 2685 012d 51 06                   		mov	a, #6
 2686 012f 9F 00 00                		mov	!_Leaf_No2_State, a
 759:../DGC_A230_Functions/DGC_A230_Normal_Mode.c **** 		__Do_Stop_Gate_Motor2(OPEN_MOVING_DIRECTION);
 2687                             		.loc 1 759 0
 2688 0132 F6                      		clrw	ax
 2689 0133 B8 00                   		movw	[sp], ax
 2690 0135 FC 00 00 00             		call	!!%code(___Do_Stop_Gate_Motor1)
 760:../DGC_A230_Functions/DGC_A230_Normal_Mode.c **** 	} break;
 2691                             		.loc 1 760 0
 2692 0139 F6                      		clrw	ax
 2693 013a B8 00                   		movw	[sp], ax
 2694 013c FC 00 00 00             		call	!!%code(___Do_Stop_Gate_Motor2)
 2695                             	.LBE64:
 761:../DGC_A230_Functions/DGC_A230_Normal_Mode.c **** 
 2696                             		.loc 1 761 0
 2697 0140 EC 7D 01 00             		br	!!.L173
 2698                             	.L175:
 2699                             	.LBB65:
 765:../DGC_A230_Functions/DGC_A230_Normal_Mode.c **** 		Leaf_No2_State = GATE_STATE_CLOSING_PAUSE;
 2700                             		.loc 1 765 0
 2701 0144 51 07                   		mov	a, #7
 2702 0146 9F 00 00                		mov	!_Leaf_No1_State, a
 766:../DGC_A230_Functions/DGC_A230_Normal_Mode.c **** 		__Do_Stop_Gate_Motor1(CLOSE_MOVING_DIRECTION);
 2703                             		.loc 1 766 0
 2704 0149 51 07                   		mov	a, #7
 2705 014b 9F 00 00                		mov	!_Leaf_No2_State, a
 767:../DGC_A230_Functions/DGC_A230_Normal_Mode.c **** 		__Do_Stop_Gate_Motor2(CLOSE_MOVING_DIRECTION);
 2706                             		.loc 1 767 0
 2707 014e E6                      		onew	ax
 2708 014f B8 00                   		movw	[sp], ax
 2709 0151 FC 00 00 00             		call	!!%code(___Do_Stop_Gate_Motor1)
 768:../DGC_A230_Functions/DGC_A230_Normal_Mode.c **** 	} break;
 2710                             		.loc 1 768 0
 2711 0155 E6                      		onew	ax
 2712 0156 B8 00                   		movw	[sp], ax
 2713 0158 FC 00 00 00             		call	!!%code(___Do_Stop_Gate_Motor2)
 2714                             	.LBE65:
 769:../DGC_A230_Functions/DGC_A230_Normal_Mode.c **** 
 2715                             		.loc 1 769 0
 2716 015c EC 7D 01 00             		br	!!.L173
 2717                             	.L179:
 2718                             	.LBB66:
 773:../DGC_A230_Functions/DGC_A230_Normal_Mode.c **** 		__Do_Partial_Stop_Gate(OPEN_MOVING_DIRECTION);
 2719                             		.loc 1 773 0
 2720 0160 51 08                   		mov	a, #8
 2721 0162 9F 00 00                		mov	!_Leaf_No1_State, a
 774:../DGC_A230_Functions/DGC_A230_Normal_Mode.c **** 	} break;
 2722                             		.loc 1 774 0
 2723 0165 F6                      		clrw	ax
 2724 0166 B8 00                   		movw	[sp], ax
 2725 0168 FC 00 00 00             		call	!!%code(___Do_Partial_Stop_Gate)
 2726                             	.LBE66:
 775:../DGC_A230_Functions/DGC_A230_Normal_Mode.c **** 
 2727                             		.loc 1 775 0
 2728 016c EC 7D 01 00             		br	!!.L173
 2729                             	.L180:
 2730                             	.LBB67:
 779:../DGC_A230_Functions/DGC_A230_Normal_Mode.c **** 		__Do_Partial_Stop_Gate(CLOSE_MOVING_DIRECTION);
 2731                             		.loc 1 779 0
 2732 0170 51 07                   		mov	a, #7
 2733 0172 9F 00 00                		mov	!_Leaf_No1_State, a
 780:../DGC_A230_Functions/DGC_A230_Normal_Mode.c **** 	} break;
 2734                             		.loc 1 780 0
 2735 0175 E6                      		onew	ax
 2736 0176 B8 00                   		movw	[sp], ax
 2737 0178 FC 00 00 00             		call	!!%code(___Do_Partial_Stop_Gate)
 2738                             	.LBE67:
 781:../DGC_A230_Functions/DGC_A230_Normal_Mode.c **** 
 2739                             		.loc 1 781 0
 2740 017c 00                      		nop
 2741                             	.L173:
 784:../DGC_A230_Functions/DGC_A230_Normal_Mode.c **** 	}
 785:../DGC_A230_Functions/DGC_A230_Normal_Mode.c **** }
 2742                             		.loc 1 785 0
 2743 017d 10 02                   		addw	sp, #2
 2744 017f D7                      		ret
 2745                             	.LFE9:
 2747                             		.section	.text.Step_Command_Process,"ax",@progbits
 2748                             		.global	_Step_Command_Process
 2750                             	_Step_Command_Process:
 2751                             	.LFB10:
 786:../DGC_A230_Functions/DGC_A230_Normal_Mode.c **** 
 787:../DGC_A230_Functions/DGC_A230_Normal_Mode.c **** 
 788:../DGC_A230_Functions/DGC_A230_Normal_Mode.c **** void Step_Command_Process ()
 789:../DGC_A230_Functions/DGC_A230_Normal_Mode.c **** {
 2752                             		.loc 1 789 0
 790:../DGC_A230_Functions/DGC_A230_Normal_Mode.c **** 	switch(CFG_parameter.Step_Mode)
 2753                             		.loc 1 790 0
 2754 0000 8F 00 00                		mov	a, !_CFG_parameter+51
 2755 0003 9D F0                   		mov	r8, a
 2756 0005 F4 F1                   		clrb	r9
 2757 0007 AD F0                   		movw	ax, r8
 2758 0009 44 02 00                		cmpw	ax, #2
 2759 000c 61 F8                   		 sknz
 2760 000e EC 63 00 00             		 br	!!.L192
 2761 0012 AD F0                   		movw	ax, r8
 2762 0014 44 02 00                		cmpw	ax, #2
 2763 0017 71 FF                   		 xor1	CY, a.7
 2764 0019 61 F3                   		 sknh
 2765 001b EC 39 00 00             		 br	!!.L193
 2766 001f AD F0                   		movw	ax, r8
 2767 0021 44 00 00                		cmpw	ax, #0
 2768 0024 61 F8                   		 sknz
 2769 0026 EC 53 00 00             		 br	!!.L194
 2770 002a AD F0                   		movw	ax, r8
 2771 002c 44 01 00                		cmpw	ax, #1
 2772 002f 61 F8                   		 sknz
 2773 0031 EC 5B 00 00             		 br	!!.L195
 2774 0035 EC 7B 00 00             		br	!!.L191
 2775                             	.L193:
 2776 0039 AD F0                   		movw	ax, r8
 2777 003b 44 03 00                		cmpw	ax, #3
 2778 003e 61 F8                   		 sknz
 2779 0040 EC 6B 00 00             		 br	!!.L196
 2780 0044 AD F0                   		movw	ax, r8
 2781 0046 44 04 00                		cmpw	ax, #4
 2782 0049 61 F8                   		 sknz
 2783 004b EC 73 00 00             		 br	!!.L197
 2784 004f EC 7B 00 00             		br	!!.L191
 2785                             	.L194:
 791:../DGC_A230_Functions/DGC_A230_Normal_Mode.c **** 	{
 792:../DGC_A230_Functions/DGC_A230_Normal_Mode.c **** 	case 0x00:	Step_Command_Process_Mode_0(); break;
 2786                             		.loc 1 792 0
 2787 0053 FC 00 00 00             		call	!!%code(_Step_Command_Process_Mode_0)
 2788 0057 EC 80 00 00             		br	!!.L190
 2789                             	.L195:
 793:../DGC_A230_Functions/DGC_A230_Normal_Mode.c **** 	case 0x01: 	Step_Command_Process_Mode_1(); break;
 2790                             		.loc 1 793 0
 2791 005b FC 00 00 00             		call	!!%code(_Step_Command_Process_Mode_1)
 2792 005f EC 80 00 00             		br	!!.L190
 2793                             	.L192:
 794:../DGC_A230_Functions/DGC_A230_Normal_Mode.c **** 	case 0x02: 	Step_Command_Process_Mode_2(); break;
 2794                             		.loc 1 794 0
 2795 0063 FC 00 00 00             		call	!!%code(_Step_Command_Process_Mode_2)
 2796 0067 EC 80 00 00             		br	!!.L190
 2797                             	.L196:
 795:../DGC_A230_Functions/DGC_A230_Normal_Mode.c **** 	case 0x03: 	Step_Command_Process_Mode_3(); break;
 2798                             		.loc 1 795 0
 2799 006b FC 00 00 00             		call	!!%code(_Step_Command_Process_Mode_3)
 2800 006f EC 80 00 00             		br	!!.L190
 2801                             	.L197:
 796:../DGC_A230_Functions/DGC_A230_Normal_Mode.c **** 	case 0x04: 	Step_Command_Process_Mode_4(); break;
 2802                             		.loc 1 796 0
 2803 0073 FC 00 00 00             		call	!!%code(_Step_Command_Process_Mode_4)
 2804 0077 EC 80 00 00             		br	!!.L190
 2805                             	.L191:
 797:../DGC_A230_Functions/DGC_A230_Normal_Mode.c **** 	default: 	Step_Command_Process_Mode_0(); break;
 2806                             		.loc 1 797 0
 2807 007b FC 00 00 00             		call	!!%code(_Step_Command_Process_Mode_0)
 2808 007f 00                      		nop
 2809                             	.L190:
 798:../DGC_A230_Functions/DGC_A230_Normal_Mode.c **** 	}
 799:../DGC_A230_Functions/DGC_A230_Normal_Mode.c **** }
 2810                             		.loc 1 799 0
 2811 0080 D7                      		ret
 2812                             	.LFE10:
 2814                             		.section	.text.Open_Command_Process,"ax",@progbits
 2815                             		.global	_Open_Command_Process
 2817                             	_Open_Command_Process:
 2818                             	.LFB11:
 800:../DGC_A230_Functions/DGC_A230_Normal_Mode.c **** 
 801:../DGC_A230_Functions/DGC_A230_Normal_Mode.c **** void Open_Command_Process ()
 802:../DGC_A230_Functions/DGC_A230_Normal_Mode.c **** {
 2819                             		.loc 1 802 0
 2820                             		; start of function
 2821                             		; outgoing: 2 bytes
 2822                             		; uses ES register
 2823 0000 20 02                   		subw	sp, #2
 2824                             	.LCFI8:
 803:../DGC_A230_Functions/DGC_A230_Normal_Mode.c **** 	if (CFG_parameter.Manual_Function == 0x00)
 2825                             		.loc 1 803 0
 2826 0002 8F 00 00                		mov	a, !_CFG_parameter+58
 2827 0005 9D F0                   		mov	r8, a
 2828 0007 D4 F0                   		cmp0	r8
 2829 0009 61 E8                   		 skz
 2830 000b EC E6 01 00             		 br	!!.L200
 804:../DGC_A230_Functions/DGC_A230_Normal_Mode.c **** 	{
 805:../DGC_A230_Functions/DGC_A230_Normal_Mode.c **** 		while(!AP_IN);
 2831                             		.loc 1 805 0
 2832 000f 00                      		nop
 2833                             	.L201:
 2834                             		.loc 1 805 0 is_stmt 0 discriminator 1
 2835 0010 C9 F0 06 FF             		movw	r8, #-250
 2836 0014 AD F0                   		movw	ax, r8
 2837 0016 BD F2                   		movw	r10, ax
 2838 0018 FA F2                   		movw	hl, r10
 2839 001a 8B                      		mov	a, [hl]
 2840 001b 9D F0                   		mov	r8, a
 2841 001d 31 3A                   		shr	a, 3
 2842 001f 9D F0                   		mov	r8, a
 2843 0021 5A F0 01                		and	r8, #1
 2844 0024 61 F8                   		sknz
 2845 0026 EC 10 00 00             		 br	!!.L201
 2846                             		 # zero-comparison eliminated
 806:../DGC_A230_Functions/DGC_A230_Normal_Mode.c **** 		switch(Machine_State)
 2847                             		.loc 1 806 0 is_stmt 1
 2848 002a 8F 00 00                		mov	a, !_Machine_State
 2849 002d 9D F0                   		mov	r8, a
 2850 002f F4 F1                   		clrb	r9
 2851 0031 AD F0                   		movw	ax, r8
 2852 0033 44 02 00                		cmpw	ax, #2
 2853 0036 61 F8                   		 sknz
 2854 0038 EC 10 01 00             		 br	!!.L203
 2855 003c AD F0                   		movw	ax, r8
 2856 003e 44 02 00                		cmpw	ax, #2
 2857 0041 71 FF                   		 xor1	CY, a.7
 2858 0043 61 F3                   		 sknh
 2859 0045 EC 63 00 00             		 br	!!.L204
 2860 0049 AD F0                   		movw	ax, r8
 2861 004b 44 00 00                		cmpw	ax, #0
 2862 004e 61 F8                   		 sknz
 2863 0050 EC 7D 00 00             		 br	!!.L205
 2864 0054 AD F0                   		movw	ax, r8
 2865 0056 44 01 00                		cmpw	ax, #1
 2866 0059 61 F8                   		 sknz
 2867 005b EC E1 01 00             		 br	!!.L236
 807:../DGC_A230_Functions/DGC_A230_Normal_Mode.c **** 		{
 808:../DGC_A230_Functions/DGC_A230_Normal_Mode.c **** 		case MACHINE_STATE_STOP:
 809:../DGC_A230_Functions/DGC_A230_Normal_Mode.c **** 		{
 810:../DGC_A230_Functions/DGC_A230_Normal_Mode.c **** 			if (Leaf_No1_State == GATE_STATE_CLOSED) // Step OPen
 811:../DGC_A230_Functions/DGC_A230_Normal_Mode.c **** 			{
 812:../DGC_A230_Functions/DGC_A230_Normal_Mode.c **** 				if (!((FT1 && (CFG_parameter.Photocell_FT1_Mode_Closed == 0x00)) || (FT2 && (CFG_parameter.Phot
 813:../DGC_A230_Functions/DGC_A230_Normal_Mode.c **** 				{
 814:../DGC_A230_Functions/DGC_A230_Normal_Mode.c **** 					Pre_flash_Time = CFG_parameter.Pre_Flashing;
 815:../DGC_A230_Functions/DGC_A230_Normal_Mode.c **** 					__Do_Open_Gate_Motor1();
 816:../DGC_A230_Functions/DGC_A230_Normal_Mode.c **** 					__Do_Open_Gate_Motor2();
 817:../DGC_A230_Functions/DGC_A230_Normal_Mode.c **** 				}
 818:../DGC_A230_Functions/DGC_A230_Normal_Mode.c **** 			}
 819:../DGC_A230_Functions/DGC_A230_Normal_Mode.c **** 			else if (Leaf_No1_State != GATE_STATE_OPENED)
 820:../DGC_A230_Functions/DGC_A230_Normal_Mode.c **** 			{
 821:../DGC_A230_Functions/DGC_A230_Normal_Mode.c **** 				Pre_flash_Time = CFG_parameter.Pre_Flashing;
 822:../DGC_A230_Functions/DGC_A230_Normal_Mode.c **** 				__Do_Open_Gate_Motor1();
 823:../DGC_A230_Functions/DGC_A230_Normal_Mode.c **** 				__Do_Open_Gate_Motor2();
 824:../DGC_A230_Functions/DGC_A230_Normal_Mode.c **** 			}
 825:../DGC_A230_Functions/DGC_A230_Normal_Mode.c **** 		} break;
 826:../DGC_A230_Functions/DGC_A230_Normal_Mode.c **** 
 827:../DGC_A230_Functions/DGC_A230_Normal_Mode.c **** 		case MACHINE_STATE_NORMAL_OPENING:
 828:../DGC_A230_Functions/DGC_A230_Normal_Mode.c **** 		{
 829:../DGC_A230_Functions/DGC_A230_Normal_Mode.c **** 			// Do nothing
 830:../DGC_A230_Functions/DGC_A230_Normal_Mode.c **** 		} break;
 831:../DGC_A230_Functions/DGC_A230_Normal_Mode.c **** 
 832:../DGC_A230_Functions/DGC_A230_Normal_Mode.c **** 		case MACHINE_STATE_NORMAL_CLOSING:
 833:../DGC_A230_Functions/DGC_A230_Normal_Mode.c **** 		{
 834:../DGC_A230_Functions/DGC_A230_Normal_Mode.c **** 			Leaf_No1_State = GATE_STATE_CLOSING_PAUSE;
 835:../DGC_A230_Functions/DGC_A230_Normal_Mode.c **** 			Leaf_No2_State = GATE_STATE_CLOSING_PAUSE;
 836:../DGC_A230_Functions/DGC_A230_Normal_Mode.c **** 			if (CFG_parameter.Reverse_Command_Enable_Braking == 0x01)
 837:../DGC_A230_Functions/DGC_A230_Normal_Mode.c **** 			{
 838:../DGC_A230_Functions/DGC_A230_Normal_Mode.c **** 				if (CFG_parameter.Number_Of_Motors == 0x02)
 839:../DGC_A230_Functions/DGC_A230_Normal_Mode.c **** 					__Do_Brake_Motor_Type_2(CLOSE_MOVING_DIRECTION);
 840:../DGC_A230_Functions/DGC_A230_Normal_Mode.c **** 				else
 841:../DGC_A230_Functions/DGC_A230_Normal_Mode.c **** 					__Do_Brake_Motor_Type_1(CLOSE_MOVING_DIRECTION);
 842:../DGC_A230_Functions/DGC_A230_Normal_Mode.c **** 			}
 843:../DGC_A230_Functions/DGC_A230_Normal_Mode.c **** 			__Do_Stop_Gate_Motor1(CLOSE_MOVING_DIRECTION);
 844:../DGC_A230_Functions/DGC_A230_Normal_Mode.c **** 			__Do_Stop_Gate_Motor2(CLOSE_MOVING_DIRECTION);
 845:../DGC_A230_Functions/DGC_A230_Normal_Mode.c **** 
 846:../DGC_A230_Functions/DGC_A230_Normal_Mode.c **** 			Pre_flash_Time = 0x00;
 847:../DGC_A230_Functions/DGC_A230_Normal_Mode.c **** 			__Do_Open_Gate_Motor1();
 848:../DGC_A230_Functions/DGC_A230_Normal_Mode.c **** 			__Do_Open_Gate_Motor2();
 849:../DGC_A230_Functions/DGC_A230_Normal_Mode.c **** 		} break;
 850:../DGC_A230_Functions/DGC_A230_Normal_Mode.c **** 
 851:../DGC_A230_Functions/DGC_A230_Normal_Mode.c **** 		case MACHINE_STATE_PARTIAL_OPENING:
 852:../DGC_A230_Functions/DGC_A230_Normal_Mode.c **** 		{
 853:../DGC_A230_Functions/DGC_A230_Normal_Mode.c **** 			Leaf_No1_State = GATE_STATE_PATIAL_OPENING_PAUSE;
 854:../DGC_A230_Functions/DGC_A230_Normal_Mode.c **** 			if (CFG_parameter.Reverse_Command_Enable_Braking == 0x01)
 855:../DGC_A230_Functions/DGC_A230_Normal_Mode.c **** 			{
 856:../DGC_A230_Functions/DGC_A230_Normal_Mode.c **** 				if (CFG_parameter.Number_Of_Motors == 0x02)
 857:../DGC_A230_Functions/DGC_A230_Normal_Mode.c **** 					__Do_Brake_Motor_Type_1(OPEN_MOVING_DIRECTION);
 858:../DGC_A230_Functions/DGC_A230_Normal_Mode.c **** 			}
 859:../DGC_A230_Functions/DGC_A230_Normal_Mode.c **** 			__Do_Partial_Stop_Gate(OPEN_MOVING_DIRECTION);
 860:../DGC_A230_Functions/DGC_A230_Normal_Mode.c **** 
 861:../DGC_A230_Functions/DGC_A230_Normal_Mode.c **** 			Pre_flash_Time = 0x00;
 862:../DGC_A230_Functions/DGC_A230_Normal_Mode.c **** 			__Do_Open_Gate_Motor1();
 863:../DGC_A230_Functions/DGC_A230_Normal_Mode.c **** 			__Do_Open_Gate_Motor2();
 864:../DGC_A230_Functions/DGC_A230_Normal_Mode.c **** 		} break;
 865:../DGC_A230_Functions/DGC_A230_Normal_Mode.c **** 
 866:../DGC_A230_Functions/DGC_A230_Normal_Mode.c **** 		case MACHINE_STATE_PARTIAL_CLOSING:
 867:../DGC_A230_Functions/DGC_A230_Normal_Mode.c **** 		{
 868:../DGC_A230_Functions/DGC_A230_Normal_Mode.c **** 			Leaf_No1_State = GATE_STATE_CLOSING_PAUSE;
 869:../DGC_A230_Functions/DGC_A230_Normal_Mode.c **** 			if (CFG_parameter.Reverse_Command_Enable_Braking == 0x01)
 870:../DGC_A230_Functions/DGC_A230_Normal_Mode.c **** 			{
 871:../DGC_A230_Functions/DGC_A230_Normal_Mode.c **** 				if (CFG_parameter.Number_Of_Motors == 0x02)
 872:../DGC_A230_Functions/DGC_A230_Normal_Mode.c **** 					__Do_Brake_Motor_Type_1(CLOSE_MOVING_DIRECTION);
 873:../DGC_A230_Functions/DGC_A230_Normal_Mode.c **** 			}
 874:../DGC_A230_Functions/DGC_A230_Normal_Mode.c **** 			__Do_Partial_Stop_Gate(CLOSE_MOVING_DIRECTION);
 875:../DGC_A230_Functions/DGC_A230_Normal_Mode.c **** 
 876:../DGC_A230_Functions/DGC_A230_Normal_Mode.c **** 			Pre_flash_Time = 0x00;
 877:../DGC_A230_Functions/DGC_A230_Normal_Mode.c **** 			__Do_Open_Gate_Motor1();
 878:../DGC_A230_Functions/DGC_A230_Normal_Mode.c **** 			__Do_Open_Gate_Motor2();
 879:../DGC_A230_Functions/DGC_A230_Normal_Mode.c **** 		} break;
 880:../DGC_A230_Functions/DGC_A230_Normal_Mode.c **** 
 881:../DGC_A230_Functions/DGC_A230_Normal_Mode.c **** 		default: break;
 2868                             		.loc 1 881 0
 2869 005f EC E2 01 00             		br	!!.L214
 2870                             	.L204:
 806:../DGC_A230_Functions/DGC_A230_Normal_Mode.c **** 		switch(Machine_State)
 2871                             		.loc 1 806 0
 2872 0063 AD F0                   		movw	ax, r8
 2873 0065 44 03 00                		cmpw	ax, #3
 2874 0068 61 F8                   		 sknz
 2875 006a EC 65 01 00             		 br	!!.L207
 2876 006e AD F0                   		movw	ax, r8
 2877 0070 44 04 00                		cmpw	ax, #4
 2878 0073 61 F8                   		 sknz
 2879 0075 EC A3 01 00             		 br	!!.L208
 2880                             		.loc 1 881 0
 2881 0079 EC E2 01 00             		br	!!.L214
 2882                             	.L205:
 810:../DGC_A230_Functions/DGC_A230_Normal_Mode.c **** 			{
 2883                             		.loc 1 810 0
 2884 007d 8F 00 00                		mov	a, !_Leaf_No1_State
 2885 0080 9D F0                   		mov	r8, a
 2886 0082 4A F0 01                		cmp	r8, #1
 2887 0085 61 E8                   		 skz
 2888 0087 EC EA 00 00             		 br	!!.L209
 812:../DGC_A230_Functions/DGC_A230_Normal_Mode.c **** 				{
 2889                             		.loc 1 812 0
 2890 008b C9 F0 07 FF             		movw	r8, #-249
 2891 008f AD F0                   		movw	ax, r8
 2892 0091 BD F2                   		movw	r10, ax
 2893 0093 FA F2                   		movw	hl, r10
 2894 0095 8B                      		mov	a, [hl]
 2895 0096 9D F0                   		mov	r8, a
 2896 0098 31 1A                   		shr	a, 1
 2897 009a 9D F0                   		mov	r8, a
 2898 009c 5A F0 01                		and	r8, #1
 2899 009f 61 F8                   		sknz
 2900 00a1 EC B2 00 00             		 br	!!.L210
 2901                             		 # zero-comparison eliminated
 812:../DGC_A230_Functions/DGC_A230_Normal_Mode.c **** 				{
 2902                             		.loc 1 812 0 is_stmt 0 discriminator 2
 2903 00a5 8F 00 00                		mov	a, !_CFG_parameter+82
 2904 00a8 9D F0                   		mov	r8, a
 2905 00aa D4 F0                   		cmp0	r8
 2906 00ac 61 F8                   		 sknz
 2907 00ae EC 0C 01 00             		 br	!!.L213
 2908                             	.L210:
 812:../DGC_A230_Functions/DGC_A230_Normal_Mode.c **** 				{
 2909                             		.loc 1 812 0 discriminator 3
 2910 00b2 C9 F0 07 FF             		movw	r8, #-249
 2911 00b6 AD F0                   		movw	ax, r8
 2912 00b8 BD F2                   		movw	r10, ax
 2913 00ba EA F2                   		movw	de, r10
 2914 00bc 89                      		mov	a, [de]
 2915 00bd 5C 01                   		and	a, #1
 2916 00bf 9D F0                   		mov	r8, a
 2917 00c1 D4 F0                   		cmp0	r8
 2918 00c3 61 F8                   		 sknz
 2919 00c5 EC D6 00 00             		 br	!!.L212
 812:../DGC_A230_Functions/DGC_A230_Normal_Mode.c **** 				{
 2920                             		.loc 1 812 0 discriminator 4
 2921 00c9 8F 00 00                		mov	a, !_CFG_parameter+85
 2922 00cc 9D F0                   		mov	r8, a
 2923 00ce D4 F0                   		cmp0	r8
 2924 00d0 61 F8                   		 sknz
 2925 00d2 EC 0C 01 00             		 br	!!.L213
 2926                             	.L212:
 2927                             	.LBB68:
 814:../DGC_A230_Functions/DGC_A230_Normal_Mode.c **** 					__Do_Open_Gate_Motor1();
 2928                             		.loc 1 814 0 is_stmt 1
 2929 00d6 8F 00 00                		mov	a, !_CFG_parameter+52
 2930 00d9 9D F0                   		mov	r8, a
 2931 00db 9F 00 00                		mov	!_Pre_flash_Time, a
 815:../DGC_A230_Functions/DGC_A230_Normal_Mode.c **** 					__Do_Open_Gate_Motor2();
 2932                             		.loc 1 815 0
 2933 00de FC 00 00 00             		call	!!%code(___Do_Open_Gate_Motor1)
 816:../DGC_A230_Functions/DGC_A230_Normal_Mode.c **** 				}
 2934                             		.loc 1 816 0
 2935 00e2 FC 00 00 00             		call	!!%code(___Do_Open_Gate_Motor2)
 2936                             	.LBE68:
 825:../DGC_A230_Functions/DGC_A230_Normal_Mode.c **** 
 2937                             		.loc 1 825 0
 2938 00e6 EC E2 01 00             		br	!!.L214
 2939                             	.L209:
 819:../DGC_A230_Functions/DGC_A230_Normal_Mode.c **** 			{
 2940                             		.loc 1 819 0
 2941 00ea 8F 00 00                		mov	a, !_Leaf_No1_State
 2942 00ed 9D F0                   		mov	r8, a
 2943 00ef 4A F0 03                		cmp	r8, #3
 2944 00f2 61 F8                   		 sknz
 2945 00f4 EC 0C 01 00             		 br	!!.L213
 2946                             	.LBB69:
 821:../DGC_A230_Functions/DGC_A230_Normal_Mode.c **** 				__Do_Open_Gate_Motor1();
 2947                             		.loc 1 821 0
 2948 00f8 8F 00 00                		mov	a, !_CFG_parameter+52
 2949 00fb 9D F0                   		mov	r8, a
 2950 00fd 9F 00 00                		mov	!_Pre_flash_Time, a
 822:../DGC_A230_Functions/DGC_A230_Normal_Mode.c **** 				__Do_Open_Gate_Motor2();
 2951                             		.loc 1 822 0
 2952 0100 FC 00 00 00             		call	!!%code(___Do_Open_Gate_Motor1)
 823:../DGC_A230_Functions/DGC_A230_Normal_Mode.c **** 			}
 2953                             		.loc 1 823 0
 2954 0104 FC 00 00 00             		call	!!%code(___Do_Open_Gate_Motor2)
 2955                             	.LBE69:
 825:../DGC_A230_Functions/DGC_A230_Normal_Mode.c **** 
 2956                             		.loc 1 825 0
 2957 0108 EC E2 01 00             		br	!!.L214
 2958                             	.L213:
 825:../DGC_A230_Functions/DGC_A230_Normal_Mode.c **** 
 2959                             		.loc 1 825 0 is_stmt 0 discriminator 1
 2960 010c EC E2 01 00             		br	!!.L214
 2961                             	.L203:
 2962                             	.LBB70:
 834:../DGC_A230_Functions/DGC_A230_Normal_Mode.c **** 			Leaf_No2_State = GATE_STATE_CLOSING_PAUSE;
 2963                             		.loc 1 834 0 is_stmt 1
 2964 0110 51 07                   		mov	a, #7
 2965 0112 9F 00 00                		mov	!_Leaf_No1_State, a
 835:../DGC_A230_Functions/DGC_A230_Normal_Mode.c **** 			if (CFG_parameter.Reverse_Command_Enable_Braking == 0x01)
 2966                             		.loc 1 835 0
 2967 0115 51 07                   		mov	a, #7
 2968 0117 9F 00 00                		mov	!_Leaf_No2_State, a
 836:../DGC_A230_Functions/DGC_A230_Normal_Mode.c **** 			{
 2969                             		.loc 1 836 0
 2970 011a 8F 00 00                		mov	a, !_CFG_parameter+90
 2971 011d 9D F0                   		mov	r8, a
 2972 011f 4A F0 01                		cmp	r8, #1
 2973 0122 61 E8                   		 skz
 2974 0124 EC 48 01 00             		 br	!!.L215
 2975                             	.LBB71:
 838:../DGC_A230_Functions/DGC_A230_Normal_Mode.c **** 					__Do_Brake_Motor_Type_2(CLOSE_MOVING_DIRECTION);
 2976                             		.loc 1 838 0
 2977 0128 8F 00 00                		mov	a, !_CFG_parameter+1
 2978 012b 9D F0                   		mov	r8, a
 2979 012d 4A F0 02                		cmp	r8, #2
 2980 0130 61 E8                   		 skz
 2981 0132 EC 41 01 00             		 br	!!.L216
 839:../DGC_A230_Functions/DGC_A230_Normal_Mode.c **** 				else
 2982                             		.loc 1 839 0
 2983 0136 E6                      		onew	ax
 2984 0137 B8 00                   		movw	[sp], ax
 2985 0139 FC 00 00 00             		call	!!%code(___Do_Brake_Motor_Type_2)
 2986 013d EC 48 01 00             		br	!!.L215
 2987                             	.L216:
 841:../DGC_A230_Functions/DGC_A230_Normal_Mode.c **** 			}
 2988                             		.loc 1 841 0
 2989 0141 E6                      		onew	ax
 2990 0142 B8 00                   		movw	[sp], ax
 2991 0144 FC 00 00 00             		call	!!%code(___Do_Brake_Motor_Type_1)
 2992                             	.L215:
 2993                             	.LBE71:
 843:../DGC_A230_Functions/DGC_A230_Normal_Mode.c **** 			__Do_Stop_Gate_Motor2(CLOSE_MOVING_DIRECTION);
 2994                             		.loc 1 843 0
 2995 0148 E6                      		onew	ax
 2996 0149 B8 00                   		movw	[sp], ax
 2997 014b FC 00 00 00             		call	!!%code(___Do_Stop_Gate_Motor1)
 844:../DGC_A230_Functions/DGC_A230_Normal_Mode.c **** 
 2998                             		.loc 1 844 0
 2999 014f E6                      		onew	ax
 3000 0150 B8 00                   		movw	[sp], ax
 3001 0152 FC 00 00 00             		call	!!%code(___Do_Stop_Gate_Motor2)
 846:../DGC_A230_Functions/DGC_A230_Normal_Mode.c **** 			__Do_Open_Gate_Motor1();
 3002                             		.loc 1 846 0
 3003 0156 F5 00 00                		clrb	!_Pre_flash_Time
 847:../DGC_A230_Functions/DGC_A230_Normal_Mode.c **** 			__Do_Open_Gate_Motor2();
 3004                             		.loc 1 847 0
 3005 0159 FC 00 00 00             		call	!!%code(___Do_Open_Gate_Motor1)
 848:../DGC_A230_Functions/DGC_A230_Normal_Mode.c **** 		} break;
 3006                             		.loc 1 848 0
 3007 015d FC 00 00 00             		call	!!%code(___Do_Open_Gate_Motor2)
 3008                             	.LBE70:
 849:../DGC_A230_Functions/DGC_A230_Normal_Mode.c **** 
 3009                             		.loc 1 849 0
 3010 0161 EC E2 01 00             		br	!!.L214
 3011                             	.L207:
 3012                             	.LBB72:
 853:../DGC_A230_Functions/DGC_A230_Normal_Mode.c **** 			if (CFG_parameter.Reverse_Command_Enable_Braking == 0x01)
 3013                             		.loc 1 853 0
 3014 0165 51 08                   		mov	a, #8
 3015 0167 9F 00 00                		mov	!_Leaf_No1_State, a
 854:../DGC_A230_Functions/DGC_A230_Normal_Mode.c **** 			{
 3016                             		.loc 1 854 0
 3017 016a 8F 00 00                		mov	a, !_CFG_parameter+90
 3018 016d 9D F0                   		mov	r8, a
 3019 016f 4A F0 01                		cmp	r8, #1
 3020 0172 61 E8                   		 skz
 3021 0174 EC 8D 01 00             		 br	!!.L217
 3022                             	.LBB73:
 856:../DGC_A230_Functions/DGC_A230_Normal_Mode.c **** 					__Do_Brake_Motor_Type_1(OPEN_MOVING_DIRECTION);
 3023                             		.loc 1 856 0
 3024 0178 8F 00 00                		mov	a, !_CFG_parameter+1
 3025 017b 9D F0                   		mov	r8, a
 3026 017d 4A F0 02                		cmp	r8, #2
 3027 0180 61 E8                   		 skz
 3028 0182 EC 8D 01 00             		 br	!!.L217
 857:../DGC_A230_Functions/DGC_A230_Normal_Mode.c **** 			}
 3029                             		.loc 1 857 0
 3030 0186 F6                      		clrw	ax
 3031 0187 B8 00                   		movw	[sp], ax
 3032 0189 FC 00 00 00             		call	!!%code(___Do_Brake_Motor_Type_1)
 3033                             	.L217:
 3034                             	.LBE73:
 859:../DGC_A230_Functions/DGC_A230_Normal_Mode.c **** 
 3035                             		.loc 1 859 0
 3036 018d F6                      		clrw	ax
 3037 018e B8 00                   		movw	[sp], ax
 3038 0190 FC 00 00 00             		call	!!%code(___Do_Partial_Stop_Gate)
 861:../DGC_A230_Functions/DGC_A230_Normal_Mode.c **** 			__Do_Open_Gate_Motor1();
 3039                             		.loc 1 861 0
 3040 0194 F5 00 00                		clrb	!_Pre_flash_Time
 862:../DGC_A230_Functions/DGC_A230_Normal_Mode.c **** 			__Do_Open_Gate_Motor2();
 3041                             		.loc 1 862 0
 3042 0197 FC 00 00 00             		call	!!%code(___Do_Open_Gate_Motor1)
 863:../DGC_A230_Functions/DGC_A230_Normal_Mode.c **** 		} break;
 3043                             		.loc 1 863 0
 3044 019b FC 00 00 00             		call	!!%code(___Do_Open_Gate_Motor2)
 3045                             	.LBE72:
 864:../DGC_A230_Functions/DGC_A230_Normal_Mode.c **** 
 3046                             		.loc 1 864 0
 3047 019f EC E2 01 00             		br	!!.L214
 3048                             	.L208:
 3049                             	.LBB74:
 868:../DGC_A230_Functions/DGC_A230_Normal_Mode.c **** 			if (CFG_parameter.Reverse_Command_Enable_Braking == 0x01)
 3050                             		.loc 1 868 0
 3051 01a3 51 07                   		mov	a, #7
 3052 01a5 9F 00 00                		mov	!_Leaf_No1_State, a
 869:../DGC_A230_Functions/DGC_A230_Normal_Mode.c **** 			{
 3053                             		.loc 1 869 0
 3054 01a8 8F 00 00                		mov	a, !_CFG_parameter+90
 3055 01ab 9D F0                   		mov	r8, a
 3056 01ad 4A F0 01                		cmp	r8, #1
 3057 01b0 61 E8                   		 skz
 3058 01b2 EC CB 01 00             		 br	!!.L218
 3059                             	.LBB75:
 871:../DGC_A230_Functions/DGC_A230_Normal_Mode.c **** 					__Do_Brake_Motor_Type_1(CLOSE_MOVING_DIRECTION);
 3060                             		.loc 1 871 0
 3061 01b6 8F 00 00                		mov	a, !_CFG_parameter+1
 3062 01b9 9D F0                   		mov	r8, a
 3063 01bb 4A F0 02                		cmp	r8, #2
 3064 01be 61 E8                   		 skz
 3065 01c0 EC CB 01 00             		 br	!!.L218
 872:../DGC_A230_Functions/DGC_A230_Normal_Mode.c **** 			}
 3066                             		.loc 1 872 0
 3067 01c4 E6                      		onew	ax
 3068 01c5 B8 00                   		movw	[sp], ax
 3069 01c7 FC 00 00 00             		call	!!%code(___Do_Brake_Motor_Type_1)
 3070                             	.L218:
 3071                             	.LBE75:
 874:../DGC_A230_Functions/DGC_A230_Normal_Mode.c **** 
 3072                             		.loc 1 874 0
 3073 01cb E6                      		onew	ax
 3074 01cc B8 00                   		movw	[sp], ax
 3075 01ce FC 00 00 00             		call	!!%code(___Do_Partial_Stop_Gate)
 876:../DGC_A230_Functions/DGC_A230_Normal_Mode.c **** 			__Do_Open_Gate_Motor1();
 3076                             		.loc 1 876 0
 3077 01d2 F5 00 00                		clrb	!_Pre_flash_Time
 877:../DGC_A230_Functions/DGC_A230_Normal_Mode.c **** 			__Do_Open_Gate_Motor2();
 3078                             		.loc 1 877 0
 3079 01d5 FC 00 00 00             		call	!!%code(___Do_Open_Gate_Motor1)
 878:../DGC_A230_Functions/DGC_A230_Normal_Mode.c **** 		} break;
 3080                             		.loc 1 878 0
 3081 01d9 FC 00 00 00             		call	!!%code(___Do_Open_Gate_Motor2)
 3082                             	.LBE74:
 879:../DGC_A230_Functions/DGC_A230_Normal_Mode.c **** 
 3083                             		.loc 1 879 0
 3084 01dd EC E2 01 00             		br	!!.L214
 3085                             	.L236:
 830:../DGC_A230_Functions/DGC_A230_Normal_Mode.c **** 
 3086                             		.loc 1 830 0
 3087 01e1 00                      		nop
 3088                             	.L214:
 3089 01e2 EC AF 03 00             		br	!!.L199
 3090                             	.L200:
 882:../DGC_A230_Functions/DGC_A230_Normal_Mode.c **** 		}
 883:../DGC_A230_Functions/DGC_A230_Normal_Mode.c **** 	}
 884:../DGC_A230_Functions/DGC_A230_Normal_Mode.c **** 	else
 885:../DGC_A230_Functions/DGC_A230_Normal_Mode.c **** 	{
 886:../DGC_A230_Functions/DGC_A230_Normal_Mode.c **** 		if (Last_Open_Command_State == COMMAND_RELEASE_STATE)
 3091                             		.loc 1 886 0
 3092 01e6 8F 00 00                		mov	a, !_Last_Open_Command_State
 3093 01e9 9D F0                   		mov	r8, a
 3094 01eb 4A F0 01                		cmp	r8, #1
 3095 01ee 61 E8                   		 skz
 3096 01f0 EC AF 03 00             		 br	!!.L199
 887:../DGC_A230_Functions/DGC_A230_Normal_Mode.c **** 		{
 888:../DGC_A230_Functions/DGC_A230_Normal_Mode.c **** 			Last_Open_Command_State = COMMAND_PRESSED_STATE;
 3097                             		.loc 1 888 0
 3098 01f4 F5 00 00                		clrb	!_Last_Open_Command_State
 889:../DGC_A230_Functions/DGC_A230_Normal_Mode.c **** 			switch(Machine_State)
 3099                             		.loc 1 889 0
 3100 01f7 8F 00 00                		mov	a, !_Machine_State
 3101 01fa 9D F0                   		mov	r8, a
 3102 01fc F4 F1                   		clrb	r9
 3103 01fe AD F0                   		movw	ax, r8
 3104 0200 44 02 00                		cmpw	ax, #2
 3105 0203 61 F8                   		 sknz
 3106 0205 EC DD 02 00             		 br	!!.L221
 3107 0209 AD F0                   		movw	ax, r8
 3108 020b 44 02 00                		cmpw	ax, #2
 3109 020e 71 FF                   		 xor1	CY, a.7
 3110 0210 61 F3                   		 sknh
 3111 0212 EC 30 02 00             		 br	!!.L222
 3112 0216 AD F0                   		movw	ax, r8
 3113 0218 44 00 00                		cmpw	ax, #0
 3114 021b 61 F8                   		 sknz
 3115 021d EC 4A 02 00             		 br	!!.L223
 3116 0221 AD F0                   		movw	ax, r8
 3117 0223 44 01 00                		cmpw	ax, #1
 3118 0226 61 F8                   		 sknz
 3119 0228 EC AE 03 00             		 br	!!.L237
 890:../DGC_A230_Functions/DGC_A230_Normal_Mode.c **** 			{
 891:../DGC_A230_Functions/DGC_A230_Normal_Mode.c **** 			case MACHINE_STATE_STOP:
 892:../DGC_A230_Functions/DGC_A230_Normal_Mode.c **** 			{
 893:../DGC_A230_Functions/DGC_A230_Normal_Mode.c **** 				if (Leaf_No1_State == GATE_STATE_CLOSED) // Step OPen
 894:../DGC_A230_Functions/DGC_A230_Normal_Mode.c **** 				{
 895:../DGC_A230_Functions/DGC_A230_Normal_Mode.c **** 					if (!((FT1 && (CFG_parameter.Photocell_FT1_Mode_Closed == 0x00)) || (FT2 && (CFG_parameter.Pho
 896:../DGC_A230_Functions/DGC_A230_Normal_Mode.c **** 					{
 897:../DGC_A230_Functions/DGC_A230_Normal_Mode.c **** 						Pre_flash_Time = CFG_parameter.Pre_Flashing;
 898:../DGC_A230_Functions/DGC_A230_Normal_Mode.c **** 						__Do_Open_Gate_Motor1();
 899:../DGC_A230_Functions/DGC_A230_Normal_Mode.c **** 						__Do_Open_Gate_Motor2();
 900:../DGC_A230_Functions/DGC_A230_Normal_Mode.c **** 					}
 901:../DGC_A230_Functions/DGC_A230_Normal_Mode.c **** 				}
 902:../DGC_A230_Functions/DGC_A230_Normal_Mode.c **** 				else if (Leaf_No1_State != GATE_STATE_OPENED)
 903:../DGC_A230_Functions/DGC_A230_Normal_Mode.c **** 				{
 904:../DGC_A230_Functions/DGC_A230_Normal_Mode.c **** 					Pre_flash_Time = CFG_parameter.Pre_Flashing;
 905:../DGC_A230_Functions/DGC_A230_Normal_Mode.c **** 					__Do_Open_Gate_Motor1();
 906:../DGC_A230_Functions/DGC_A230_Normal_Mode.c **** 					__Do_Open_Gate_Motor2();
 907:../DGC_A230_Functions/DGC_A230_Normal_Mode.c **** 				}
 908:../DGC_A230_Functions/DGC_A230_Normal_Mode.c **** 			} break;
 909:../DGC_A230_Functions/DGC_A230_Normal_Mode.c **** 
 910:../DGC_A230_Functions/DGC_A230_Normal_Mode.c **** 			case MACHINE_STATE_NORMAL_OPENING:
 911:../DGC_A230_Functions/DGC_A230_Normal_Mode.c **** 			{
 912:../DGC_A230_Functions/DGC_A230_Normal_Mode.c **** 				// Do nothing
 913:../DGC_A230_Functions/DGC_A230_Normal_Mode.c **** 			} break;
 914:../DGC_A230_Functions/DGC_A230_Normal_Mode.c **** 
 915:../DGC_A230_Functions/DGC_A230_Normal_Mode.c **** 			case MACHINE_STATE_NORMAL_CLOSING:
 916:../DGC_A230_Functions/DGC_A230_Normal_Mode.c **** 			{
 917:../DGC_A230_Functions/DGC_A230_Normal_Mode.c **** 				Leaf_No1_State = GATE_STATE_CLOSING_PAUSE;
 918:../DGC_A230_Functions/DGC_A230_Normal_Mode.c **** 				Leaf_No2_State = GATE_STATE_CLOSING_PAUSE;
 919:../DGC_A230_Functions/DGC_A230_Normal_Mode.c **** 				if (CFG_parameter.Reverse_Command_Enable_Braking == 0x01)
 920:../DGC_A230_Functions/DGC_A230_Normal_Mode.c **** 				{
 921:../DGC_A230_Functions/DGC_A230_Normal_Mode.c **** 					if (CFG_parameter.Number_Of_Motors == 0x02)
 922:../DGC_A230_Functions/DGC_A230_Normal_Mode.c **** 						__Do_Brake_Motor_Type_2(CLOSE_MOVING_DIRECTION);
 923:../DGC_A230_Functions/DGC_A230_Normal_Mode.c **** 					else
 924:../DGC_A230_Functions/DGC_A230_Normal_Mode.c **** 						__Do_Brake_Motor_Type_1(CLOSE_MOVING_DIRECTION);
 925:../DGC_A230_Functions/DGC_A230_Normal_Mode.c **** 
 926:../DGC_A230_Functions/DGC_A230_Normal_Mode.c **** 				}
 927:../DGC_A230_Functions/DGC_A230_Normal_Mode.c **** 				__Do_Stop_Gate_Motor1(CLOSE_MOVING_DIRECTION);
 928:../DGC_A230_Functions/DGC_A230_Normal_Mode.c **** 				__Do_Stop_Gate_Motor2(CLOSE_MOVING_DIRECTION);
 929:../DGC_A230_Functions/DGC_A230_Normal_Mode.c **** 
 930:../DGC_A230_Functions/DGC_A230_Normal_Mode.c **** 				Pre_flash_Time = 0x00;
 931:../DGC_A230_Functions/DGC_A230_Normal_Mode.c **** 				__Do_Open_Gate_Motor1();
 932:../DGC_A230_Functions/DGC_A230_Normal_Mode.c **** 				__Do_Open_Gate_Motor2();
 933:../DGC_A230_Functions/DGC_A230_Normal_Mode.c **** 
 934:../DGC_A230_Functions/DGC_A230_Normal_Mode.c **** 			} break;
 935:../DGC_A230_Functions/DGC_A230_Normal_Mode.c **** 
 936:../DGC_A230_Functions/DGC_A230_Normal_Mode.c **** 			case MACHINE_STATE_PARTIAL_OPENING:
 937:../DGC_A230_Functions/DGC_A230_Normal_Mode.c **** 			{
 938:../DGC_A230_Functions/DGC_A230_Normal_Mode.c **** 				Leaf_No1_State = GATE_STATE_PATIAL_OPENING_PAUSE;
 939:../DGC_A230_Functions/DGC_A230_Normal_Mode.c **** 				if (CFG_parameter.Reverse_Command_Enable_Braking == 0x01)
 940:../DGC_A230_Functions/DGC_A230_Normal_Mode.c **** 				{
 941:../DGC_A230_Functions/DGC_A230_Normal_Mode.c **** 					if (CFG_parameter.Number_Of_Motors == 0x02)
 942:../DGC_A230_Functions/DGC_A230_Normal_Mode.c **** 						__Do_Brake_Motor_Type_1(OPEN_MOVING_DIRECTION);
 943:../DGC_A230_Functions/DGC_A230_Normal_Mode.c **** 				}
 944:../DGC_A230_Functions/DGC_A230_Normal_Mode.c **** 				__Do_Partial_Stop_Gate(OPEN_MOVING_DIRECTION);
 945:../DGC_A230_Functions/DGC_A230_Normal_Mode.c **** 
 946:../DGC_A230_Functions/DGC_A230_Normal_Mode.c **** 				Pre_flash_Time = 0x00;
 947:../DGC_A230_Functions/DGC_A230_Normal_Mode.c **** 				__Do_Open_Gate_Motor1();
 948:../DGC_A230_Functions/DGC_A230_Normal_Mode.c **** 				__Do_Open_Gate_Motor2();
 949:../DGC_A230_Functions/DGC_A230_Normal_Mode.c **** 			} break;
 950:../DGC_A230_Functions/DGC_A230_Normal_Mode.c **** 
 951:../DGC_A230_Functions/DGC_A230_Normal_Mode.c **** 			case MACHINE_STATE_PARTIAL_CLOSING:
 952:../DGC_A230_Functions/DGC_A230_Normal_Mode.c **** 			{
 953:../DGC_A230_Functions/DGC_A230_Normal_Mode.c **** 				Leaf_No1_State = GATE_STATE_CLOSING_PAUSE;
 954:../DGC_A230_Functions/DGC_A230_Normal_Mode.c **** 				if (CFG_parameter.Reverse_Command_Enable_Braking == 0x01)
 955:../DGC_A230_Functions/DGC_A230_Normal_Mode.c **** 				{
 956:../DGC_A230_Functions/DGC_A230_Normal_Mode.c **** 					if (CFG_parameter.Number_Of_Motors == 0x02)
 957:../DGC_A230_Functions/DGC_A230_Normal_Mode.c **** 						__Do_Brake_Motor_Type_1(CLOSE_MOVING_DIRECTION);
 958:../DGC_A230_Functions/DGC_A230_Normal_Mode.c **** 				}
 959:../DGC_A230_Functions/DGC_A230_Normal_Mode.c **** 				__Do_Partial_Stop_Gate(CLOSE_MOVING_DIRECTION);
 960:../DGC_A230_Functions/DGC_A230_Normal_Mode.c **** 
 961:../DGC_A230_Functions/DGC_A230_Normal_Mode.c **** 				Pre_flash_Time = 0x00;
 962:../DGC_A230_Functions/DGC_A230_Normal_Mode.c **** 				__Do_Open_Gate_Motor1();
 963:../DGC_A230_Functions/DGC_A230_Normal_Mode.c **** 				__Do_Open_Gate_Motor2();
 964:../DGC_A230_Functions/DGC_A230_Normal_Mode.c **** 			} break;
 965:../DGC_A230_Functions/DGC_A230_Normal_Mode.c **** 
 966:../DGC_A230_Functions/DGC_A230_Normal_Mode.c **** 			default: break;
 3120                             		.loc 1 966 0
 3121 022c EC AF 03 00             		br	!!.L199
 3122                             	.L222:
 889:../DGC_A230_Functions/DGC_A230_Normal_Mode.c **** 			switch(Machine_State)
 3123                             		.loc 1 889 0
 3124 0230 AD F0                   		movw	ax, r8
 3125 0232 44 03 00                		cmpw	ax, #3
 3126 0235 61 F8                   		 sknz
 3127 0237 EC 32 03 00             		 br	!!.L225
 3128 023b AD F0                   		movw	ax, r8
 3129 023d 44 04 00                		cmpw	ax, #4
 3130 0240 61 F8                   		 sknz
 3131 0242 EC 70 03 00             		 br	!!.L226
 3132                             		.loc 1 966 0
 3133 0246 EC AF 03 00             		br	!!.L199
 3134                             	.L223:
 893:../DGC_A230_Functions/DGC_A230_Normal_Mode.c **** 				{
 3135                             		.loc 1 893 0
 3136 024a 8F 00 00                		mov	a, !_Leaf_No1_State
 3137 024d 9D F0                   		mov	r8, a
 3138 024f 4A F0 01                		cmp	r8, #1
 3139 0252 61 E8                   		 skz
 3140 0254 EC B7 02 00             		 br	!!.L227
 895:../DGC_A230_Functions/DGC_A230_Normal_Mode.c **** 					{
 3141                             		.loc 1 895 0
 3142 0258 C9 F0 07 FF             		movw	r8, #-249
 3143 025c AD F0                   		movw	ax, r8
 3144 025e BD F2                   		movw	r10, ax
 3145 0260 FA F2                   		movw	hl, r10
 3146 0262 8B                      		mov	a, [hl]
 3147 0263 9D F0                   		mov	r8, a
 3148 0265 31 1A                   		shr	a, 1
 3149 0267 9D F0                   		mov	r8, a
 3150 0269 5A F0 01                		and	r8, #1
 3151 026c 61 F8                   		sknz
 3152 026e EC 7F 02 00             		 br	!!.L228
 3153                             		 # zero-comparison eliminated
 895:../DGC_A230_Functions/DGC_A230_Normal_Mode.c **** 					{
 3154                             		.loc 1 895 0 is_stmt 0 discriminator 2
 3155 0272 8F 00 00                		mov	a, !_CFG_parameter+82
 3156 0275 9D F0                   		mov	r8, a
 3157 0277 D4 F0                   		cmp0	r8
 3158 0279 61 F8                   		 sknz
 3159 027b EC D9 02 00             		 br	!!.L231
 3160                             	.L228:
 895:../DGC_A230_Functions/DGC_A230_Normal_Mode.c **** 					{
 3161                             		.loc 1 895 0 discriminator 3
 3162 027f C9 F0 07 FF             		movw	r8, #-249
 3163 0283 AD F0                   		movw	ax, r8
 3164 0285 BD F2                   		movw	r10, ax
 3165 0287 EA F2                   		movw	de, r10
 3166 0289 89                      		mov	a, [de]
 3167 028a 5C 01                   		and	a, #1
 3168 028c 9D F0                   		mov	r8, a
 3169 028e D4 F0                   		cmp0	r8
 3170 0290 61 F8                   		 sknz
 3171 0292 EC A3 02 00             		 br	!!.L230
 895:../DGC_A230_Functions/DGC_A230_Normal_Mode.c **** 					{
 3172                             		.loc 1 895 0 discriminator 4
 3173 0296 8F 00 00                		mov	a, !_CFG_parameter+85
 3174 0299 9D F0                   		mov	r8, a
 3175 029b D4 F0                   		cmp0	r8
 3176 029d 61 F8                   		 sknz
 3177 029f EC D9 02 00             		 br	!!.L231
 3178                             	.L230:
 3179                             	.LBB76:
 897:../DGC_A230_Functions/DGC_A230_Normal_Mode.c **** 						__Do_Open_Gate_Motor1();
 3180                             		.loc 1 897 0 is_stmt 1
 3181 02a3 8F 00 00                		mov	a, !_CFG_parameter+52
 3182 02a6 9D F0                   		mov	r8, a
 3183 02a8 9F 00 00                		mov	!_Pre_flash_Time, a
 898:../DGC_A230_Functions/DGC_A230_Normal_Mode.c **** 						__Do_Open_Gate_Motor2();
 3184                             		.loc 1 898 0
 3185 02ab FC 00 00 00             		call	!!%code(___Do_Open_Gate_Motor1)
 899:../DGC_A230_Functions/DGC_A230_Normal_Mode.c **** 					}
 3186                             		.loc 1 899 0
 3187 02af FC 00 00 00             		call	!!%code(___Do_Open_Gate_Motor2)
 3188                             	.LBE76:
 908:../DGC_A230_Functions/DGC_A230_Normal_Mode.c **** 
 3189                             		.loc 1 908 0
 3190 02b3 EC AF 03 00             		br	!!.L199
 3191                             	.L227:
 902:../DGC_A230_Functions/DGC_A230_Normal_Mode.c **** 				{
 3192                             		.loc 1 902 0
 3193 02b7 8F 00 00                		mov	a, !_Leaf_No1_State
 3194 02ba 9D F0                   		mov	r8, a
 3195 02bc 4A F0 03                		cmp	r8, #3
 3196 02bf 61 F8                   		 sknz
 3197 02c1 EC D9 02 00             		 br	!!.L231
 3198                             	.LBB77:
 904:../DGC_A230_Functions/DGC_A230_Normal_Mode.c **** 					__Do_Open_Gate_Motor1();
 3199                             		.loc 1 904 0
 3200 02c5 8F 00 00                		mov	a, !_CFG_parameter+52
 3201 02c8 9D F0                   		mov	r8, a
 3202 02ca 9F 00 00                		mov	!_Pre_flash_Time, a
 905:../DGC_A230_Functions/DGC_A230_Normal_Mode.c **** 					__Do_Open_Gate_Motor2();
 3203                             		.loc 1 905 0
 3204 02cd FC 00 00 00             		call	!!%code(___Do_Open_Gate_Motor1)
 906:../DGC_A230_Functions/DGC_A230_Normal_Mode.c **** 				}
 3205                             		.loc 1 906 0
 3206 02d1 FC 00 00 00             		call	!!%code(___Do_Open_Gate_Motor2)
 3207                             	.LBE77:
 908:../DGC_A230_Functions/DGC_A230_Normal_Mode.c **** 
 3208                             		.loc 1 908 0
 3209 02d5 EC AF 03 00             		br	!!.L199
 3210                             	.L231:
 908:../DGC_A230_Functions/DGC_A230_Normal_Mode.c **** 
 3211                             		.loc 1 908 0 is_stmt 0 discriminator 5
 3212 02d9 EC AF 03 00             		br	!!.L199
 3213                             	.L221:
 3214                             	.LBB78:
 917:../DGC_A230_Functions/DGC_A230_Normal_Mode.c **** 				Leaf_No2_State = GATE_STATE_CLOSING_PAUSE;
 3215                             		.loc 1 917 0 is_stmt 1
 3216 02dd 51 07                   		mov	a, #7
 3217 02df 9F 00 00                		mov	!_Leaf_No1_State, a
 918:../DGC_A230_Functions/DGC_A230_Normal_Mode.c **** 				if (CFG_parameter.Reverse_Command_Enable_Braking == 0x01)
 3218                             		.loc 1 918 0
 3219 02e2 51 07                   		mov	a, #7
 3220 02e4 9F 00 00                		mov	!_Leaf_No2_State, a
 919:../DGC_A230_Functions/DGC_A230_Normal_Mode.c **** 				{
 3221                             		.loc 1 919 0
 3222 02e7 8F 00 00                		mov	a, !_CFG_parameter+90
 3223 02ea 9D F0                   		mov	r8, a
 3224 02ec 4A F0 01                		cmp	r8, #1
 3225 02ef 61 E8                   		 skz
 3226 02f1 EC 15 03 00             		 br	!!.L232
 3227                             	.LBB79:
 921:../DGC_A230_Functions/DGC_A230_Normal_Mode.c **** 						__Do_Brake_Motor_Type_2(CLOSE_MOVING_DIRECTION);
 3228                             		.loc 1 921 0
 3229 02f5 8F 00 00                		mov	a, !_CFG_parameter+1
 3230 02f8 9D F0                   		mov	r8, a
 3231 02fa 4A F0 02                		cmp	r8, #2
 3232 02fd 61 E8                   		 skz
 3233 02ff EC 0E 03 00             		 br	!!.L233
 922:../DGC_A230_Functions/DGC_A230_Normal_Mode.c **** 					else
 3234                             		.loc 1 922 0
 3235 0303 E6                      		onew	ax
 3236 0304 B8 00                   		movw	[sp], ax
 3237 0306 FC 00 00 00             		call	!!%code(___Do_Brake_Motor_Type_2)
 3238 030a EC 15 03 00             		br	!!.L232
 3239                             	.L233:
 924:../DGC_A230_Functions/DGC_A230_Normal_Mode.c **** 
 3240                             		.loc 1 924 0
 3241 030e E6                      		onew	ax
 3242 030f B8 00                   		movw	[sp], ax
 3243 0311 FC 00 00 00             		call	!!%code(___Do_Brake_Motor_Type_1)
 3244                             	.L232:
 3245                             	.LBE79:
 927:../DGC_A230_Functions/DGC_A230_Normal_Mode.c **** 				__Do_Stop_Gate_Motor2(CLOSE_MOVING_DIRECTION);
 3246                             		.loc 1 927 0
 3247 0315 E6                      		onew	ax
 3248 0316 B8 00                   		movw	[sp], ax
 3249 0318 FC 00 00 00             		call	!!%code(___Do_Stop_Gate_Motor1)
 928:../DGC_A230_Functions/DGC_A230_Normal_Mode.c **** 
 3250                             		.loc 1 928 0
 3251 031c E6                      		onew	ax
 3252 031d B8 00                   		movw	[sp], ax
 3253 031f FC 00 00 00             		call	!!%code(___Do_Stop_Gate_Motor2)
 930:../DGC_A230_Functions/DGC_A230_Normal_Mode.c **** 				__Do_Open_Gate_Motor1();
 3254                             		.loc 1 930 0
 3255 0323 F5 00 00                		clrb	!_Pre_flash_Time
 931:../DGC_A230_Functions/DGC_A230_Normal_Mode.c **** 				__Do_Open_Gate_Motor2();
 3256                             		.loc 1 931 0
 3257 0326 FC 00 00 00             		call	!!%code(___Do_Open_Gate_Motor1)
 932:../DGC_A230_Functions/DGC_A230_Normal_Mode.c **** 
 3258                             		.loc 1 932 0
 3259 032a FC 00 00 00             		call	!!%code(___Do_Open_Gate_Motor2)
 3260                             	.LBE78:
 934:../DGC_A230_Functions/DGC_A230_Normal_Mode.c **** 
 3261                             		.loc 1 934 0
 3262 032e EC AF 03 00             		br	!!.L199
 3263                             	.L225:
 3264                             	.LBB80:
 938:../DGC_A230_Functions/DGC_A230_Normal_Mode.c **** 				if (CFG_parameter.Reverse_Command_Enable_Braking == 0x01)
 3265                             		.loc 1 938 0
 3266 0332 51 08                   		mov	a, #8
 3267 0334 9F 00 00                		mov	!_Leaf_No1_State, a
 939:../DGC_A230_Functions/DGC_A230_Normal_Mode.c **** 				{
 3268                             		.loc 1 939 0
 3269 0337 8F 00 00                		mov	a, !_CFG_parameter+90
 3270 033a 9D F0                   		mov	r8, a
 3271 033c 4A F0 01                		cmp	r8, #1
 3272 033f 61 E8                   		 skz
 3273 0341 EC 5A 03 00             		 br	!!.L234
 3274                             	.LBB81:
 941:../DGC_A230_Functions/DGC_A230_Normal_Mode.c **** 						__Do_Brake_Motor_Type_1(OPEN_MOVING_DIRECTION);
 3275                             		.loc 1 941 0
 3276 0345 8F 00 00                		mov	a, !_CFG_parameter+1
 3277 0348 9D F0                   		mov	r8, a
 3278 034a 4A F0 02                		cmp	r8, #2
 3279 034d 61 E8                   		 skz
 3280 034f EC 5A 03 00             		 br	!!.L234
 942:../DGC_A230_Functions/DGC_A230_Normal_Mode.c **** 				}
 3281                             		.loc 1 942 0
 3282 0353 F6                      		clrw	ax
 3283 0354 B8 00                   		movw	[sp], ax
 3284 0356 FC 00 00 00             		call	!!%code(___Do_Brake_Motor_Type_1)
 3285                             	.L234:
 3286                             	.LBE81:
 944:../DGC_A230_Functions/DGC_A230_Normal_Mode.c **** 
 3287                             		.loc 1 944 0
 3288 035a F6                      		clrw	ax
 3289 035b B8 00                   		movw	[sp], ax
 3290 035d FC 00 00 00             		call	!!%code(___Do_Partial_Stop_Gate)
 946:../DGC_A230_Functions/DGC_A230_Normal_Mode.c **** 				__Do_Open_Gate_Motor1();
 3291                             		.loc 1 946 0
 3292 0361 F5 00 00                		clrb	!_Pre_flash_Time
 947:../DGC_A230_Functions/DGC_A230_Normal_Mode.c **** 				__Do_Open_Gate_Motor2();
 3293                             		.loc 1 947 0
 3294 0364 FC 00 00 00             		call	!!%code(___Do_Open_Gate_Motor1)
 948:../DGC_A230_Functions/DGC_A230_Normal_Mode.c **** 			} break;
 3295                             		.loc 1 948 0
 3296 0368 FC 00 00 00             		call	!!%code(___Do_Open_Gate_Motor2)
 3297                             	.LBE80:
 949:../DGC_A230_Functions/DGC_A230_Normal_Mode.c **** 
 3298                             		.loc 1 949 0
 3299 036c EC AF 03 00             		br	!!.L199
 3300                             	.L226:
 3301                             	.LBB82:
 953:../DGC_A230_Functions/DGC_A230_Normal_Mode.c **** 				if (CFG_parameter.Reverse_Command_Enable_Braking == 0x01)
 3302                             		.loc 1 953 0
 3303 0370 51 07                   		mov	a, #7
 3304 0372 9F 00 00                		mov	!_Leaf_No1_State, a
 954:../DGC_A230_Functions/DGC_A230_Normal_Mode.c **** 				{
 3305                             		.loc 1 954 0
 3306 0375 8F 00 00                		mov	a, !_CFG_parameter+90
 3307 0378 9D F0                   		mov	r8, a
 3308 037a 4A F0 01                		cmp	r8, #1
 3309 037d 61 E8                   		 skz
 3310 037f EC 98 03 00             		 br	!!.L235
 3311                             	.LBB83:
 956:../DGC_A230_Functions/DGC_A230_Normal_Mode.c **** 						__Do_Brake_Motor_Type_1(CLOSE_MOVING_DIRECTION);
 3312                             		.loc 1 956 0
 3313 0383 8F 00 00                		mov	a, !_CFG_parameter+1
 3314 0386 9D F0                   		mov	r8, a
 3315 0388 4A F0 02                		cmp	r8, #2
 3316 038b 61 E8                   		 skz
 3317 038d EC 98 03 00             		 br	!!.L235
 957:../DGC_A230_Functions/DGC_A230_Normal_Mode.c **** 				}
 3318                             		.loc 1 957 0
 3319 0391 E6                      		onew	ax
 3320 0392 B8 00                   		movw	[sp], ax
 3321 0394 FC 00 00 00             		call	!!%code(___Do_Brake_Motor_Type_1)
 3322                             	.L235:
 3323                             	.LBE83:
 959:../DGC_A230_Functions/DGC_A230_Normal_Mode.c **** 
 3324                             		.loc 1 959 0
 3325 0398 E6                      		onew	ax
 3326 0399 B8 00                   		movw	[sp], ax
 3327 039b FC 00 00 00             		call	!!%code(___Do_Partial_Stop_Gate)
 961:../DGC_A230_Functions/DGC_A230_Normal_Mode.c **** 				__Do_Open_Gate_Motor1();
 3328                             		.loc 1 961 0
 3329 039f F5 00 00                		clrb	!_Pre_flash_Time
 962:../DGC_A230_Functions/DGC_A230_Normal_Mode.c **** 				__Do_Open_Gate_Motor2();
 3330                             		.loc 1 962 0
 3331 03a2 FC 00 00 00             		call	!!%code(___Do_Open_Gate_Motor1)
 963:../DGC_A230_Functions/DGC_A230_Normal_Mode.c **** 			} break;
 3332                             		.loc 1 963 0
 3333 03a6 FC 00 00 00             		call	!!%code(___Do_Open_Gate_Motor2)
 3334                             	.LBE82:
 964:../DGC_A230_Functions/DGC_A230_Normal_Mode.c **** 
 3335                             		.loc 1 964 0
 3336 03aa EC AF 03 00             		br	!!.L199
 3337                             	.L237:
 913:../DGC_A230_Functions/DGC_A230_Normal_Mode.c **** 
 3338                             		.loc 1 913 0
 3339 03ae 00                      		nop
 3340                             	.L199:
 967:../DGC_A230_Functions/DGC_A230_Normal_Mode.c **** 			}
 968:../DGC_A230_Functions/DGC_A230_Normal_Mode.c **** 		}
 969:../DGC_A230_Functions/DGC_A230_Normal_Mode.c **** 	}
 970:../DGC_A230_Functions/DGC_A230_Normal_Mode.c **** }
 3341                             		.loc 1 970 0
 3342 03af 10 02                   		addw	sp, #2
 3343 03b1 D7                      		ret
 3344                             	.LFE11:
 3346                             		.section	.text.Close_Command_Process,"ax",@progbits
 3347                             		.global	_Close_Command_Process
 3349                             	_Close_Command_Process:
 3350                             	.LFB12:
 971:../DGC_A230_Functions/DGC_A230_Normal_Mode.c **** 
 972:../DGC_A230_Functions/DGC_A230_Normal_Mode.c **** void Close_Command_Process ()
 973:../DGC_A230_Functions/DGC_A230_Normal_Mode.c **** {
 3351                             		.loc 1 973 0
 3352                             		; start of function
 3353                             		; outgoing: 2 bytes
 3354                             		; uses ES register
 3355 0000 20 02                   		subw	sp, #2
 3356                             	.LCFI9:
 974:../DGC_A230_Functions/DGC_A230_Normal_Mode.c **** 	if (CFG_parameter.Manual_Function == 0x00)
 3357                             		.loc 1 974 0
 3358 0002 8F 00 00                		mov	a, !_CFG_parameter+58
 3359 0005 9D F0                   		mov	r8, a
 3360 0007 D4 F0                   		cmp0	r8
 3361 0009 61 E8                   		 skz
 3362 000b EC 82 01 00             		 br	!!.L239
 975:../DGC_A230_Functions/DGC_A230_Normal_Mode.c **** 	{
 976:../DGC_A230_Functions/DGC_A230_Normal_Mode.c **** 		switch(Machine_State)
 3363                             		.loc 1 976 0
 3364 000f 8F 00 00                		mov	a, !_Machine_State
 3365 0012 9D F0                   		mov	r8, a
 3366 0014 F4 F1                   		clrb	r9
 3367 0016 AD F0                   		movw	ax, r8
 3368 0018 44 01 00                		cmpw	ax, #1
 3369 001b 61 F8                   		 sknz
 3370 001d EC E5 00 00             		 br	!!.L241
 3371 0021 AD F0                   		movw	ax, r8
 3372 0023 44 03 00                		cmpw	ax, #3
 3373 0026 61 F8                   		 sknz
 3374 0028 EC 3A 01 00             		 br	!!.L242
 3375 002c AD F0                   		movw	ax, r8
 3376 002e 44 00 00                		cmpw	ax, #0
 3377 0031 61 F8                   		 sknz
 3378 0033 EC 3B 00 00             		 br	!!.L243
 977:../DGC_A230_Functions/DGC_A230_Normal_Mode.c **** 		{
 978:../DGC_A230_Functions/DGC_A230_Normal_Mode.c **** 			case MACHINE_STATE_STOP:
 979:../DGC_A230_Functions/DGC_A230_Normal_Mode.c **** 			{
 980:../DGC_A230_Functions/DGC_A230_Normal_Mode.c **** 				if (((Leaf_No1_State == GATE_STATE_OPENED) && (CFG_parameter.Number_Of_Motors == 0x01))
 981:../DGC_A230_Functions/DGC_A230_Normal_Mode.c **** 					|| ((Leaf_No1_State == GATE_STATE_OPENED) && (Leaf_No2_State == GATE_STATE_OPENED) && (CFG_par
 982:../DGC_A230_Functions/DGC_A230_Normal_Mode.c **** 					|| (Leaf_No1_State == GATE_STATE_PARTIAL))
 983:../DGC_A230_Functions/DGC_A230_Normal_Mode.c **** 				{
 984:../DGC_A230_Functions/DGC_A230_Normal_Mode.c **** 					Auto_Close_Gate_Retry_Number = Auto_Close_Retry_Number;
 985:../DGC_A230_Functions/DGC_A230_Normal_Mode.c **** 					Auto_Close_Gate_Timer_Counter = 0;
 986:../DGC_A230_Functions/DGC_A230_Normal_Mode.c **** 					Auto_Close_Gate_Timer_Enable = 0;
 987:../DGC_A230_Functions/DGC_A230_Normal_Mode.c **** 				}
 988:../DGC_A230_Functions/DGC_A230_Normal_Mode.c **** 				Pre_flash_Time = CFG_parameter.Pre_Flashing;
 989:../DGC_A230_Functions/DGC_A230_Normal_Mode.c **** 				if ((Leaf_No1_State == GATE_STATE_PARTIAL)
 990:../DGC_A230_Functions/DGC_A230_Normal_Mode.c **** 						|| (Leaf_No1_State == GATE_STATE_PATIAL_OPENING_PAUSE)
 991:../DGC_A230_Functions/DGC_A230_Normal_Mode.c **** 						|| (Leaf_No2_State == GATE_STATE_CLOSED))
 992:../DGC_A230_Functions/DGC_A230_Normal_Mode.c **** 				{
 993:../DGC_A230_Functions/DGC_A230_Normal_Mode.c **** 					__Do_Partial_Close_Gate();
 994:../DGC_A230_Functions/DGC_A230_Normal_Mode.c **** 				}
 995:../DGC_A230_Functions/DGC_A230_Normal_Mode.c **** 				else
 996:../DGC_A230_Functions/DGC_A230_Normal_Mode.c **** 				{
 997:../DGC_A230_Functions/DGC_A230_Normal_Mode.c **** 					__Do_Close_Gate_Motor1();
 998:../DGC_A230_Functions/DGC_A230_Normal_Mode.c **** 					__Do_Close_Gate_Motor2();
 999:../DGC_A230_Functions/DGC_A230_Normal_Mode.c **** 				}
1000:../DGC_A230_Functions/DGC_A230_Normal_Mode.c **** 			} break;
1001:../DGC_A230_Functions/DGC_A230_Normal_Mode.c **** 
1002:../DGC_A230_Functions/DGC_A230_Normal_Mode.c **** 			case MACHINE_STATE_NORMAL_OPENING:
1003:../DGC_A230_Functions/DGC_A230_Normal_Mode.c **** 			{
1004:../DGC_A230_Functions/DGC_A230_Normal_Mode.c **** 				Leaf_No1_State = GATE_STATE_OPENING_PAUSE;
1005:../DGC_A230_Functions/DGC_A230_Normal_Mode.c **** 				Leaf_No2_State = GATE_STATE_OPENING_PAUSE;
1006:../DGC_A230_Functions/DGC_A230_Normal_Mode.c **** 				if (CFG_parameter.Reverse_Command_Enable_Braking == 0x01)
1007:../DGC_A230_Functions/DGC_A230_Normal_Mode.c **** 				{
1008:../DGC_A230_Functions/DGC_A230_Normal_Mode.c **** 					if (CFG_parameter.Number_Of_Motors == 0x02)
1009:../DGC_A230_Functions/DGC_A230_Normal_Mode.c **** 						__Do_Brake_Motor_Type_2(OPEN_MOVING_DIRECTION);
1010:../DGC_A230_Functions/DGC_A230_Normal_Mode.c **** 					else
1011:../DGC_A230_Functions/DGC_A230_Normal_Mode.c **** 						__Do_Brake_Motor_Type_1(OPEN_MOVING_DIRECTION);
1012:../DGC_A230_Functions/DGC_A230_Normal_Mode.c **** 				}
1013:../DGC_A230_Functions/DGC_A230_Normal_Mode.c **** 				__Do_Stop_Gate_Motor1(OPEN_MOVING_DIRECTION);
1014:../DGC_A230_Functions/DGC_A230_Normal_Mode.c **** 				__Do_Stop_Gate_Motor2(OPEN_MOVING_DIRECTION);
1015:../DGC_A230_Functions/DGC_A230_Normal_Mode.c **** 
1016:../DGC_A230_Functions/DGC_A230_Normal_Mode.c **** 				Pre_flash_Time = 0x00;
1017:../DGC_A230_Functions/DGC_A230_Normal_Mode.c **** 				__Do_Close_Gate_Motor1();
1018:../DGC_A230_Functions/DGC_A230_Normal_Mode.c **** 				__Do_Close_Gate_Motor2();
1019:../DGC_A230_Functions/DGC_A230_Normal_Mode.c **** 			} break;
1020:../DGC_A230_Functions/DGC_A230_Normal_Mode.c **** 
1021:../DGC_A230_Functions/DGC_A230_Normal_Mode.c **** 			case MACHINE_STATE_PARTIAL_OPENING:
1022:../DGC_A230_Functions/DGC_A230_Normal_Mode.c **** 			{
1023:../DGC_A230_Functions/DGC_A230_Normal_Mode.c **** 				Leaf_No1_State = GATE_STATE_PATIAL_OPENING_PAUSE;
1024:../DGC_A230_Functions/DGC_A230_Normal_Mode.c **** 				if (CFG_parameter.Reverse_Command_Enable_Braking == 0x01)
1025:../DGC_A230_Functions/DGC_A230_Normal_Mode.c **** 				{
1026:../DGC_A230_Functions/DGC_A230_Normal_Mode.c **** 					__Do_Brake_Motor_Type_1(OPEN_MOVING_DIRECTION);
1027:../DGC_A230_Functions/DGC_A230_Normal_Mode.c **** 				}
1028:../DGC_A230_Functions/DGC_A230_Normal_Mode.c **** 				__Do_Partial_Stop_Gate(OPEN_MOVING_DIRECTION);
1029:../DGC_A230_Functions/DGC_A230_Normal_Mode.c **** 
1030:../DGC_A230_Functions/DGC_A230_Normal_Mode.c **** 				Pre_flash_Time = 0x00;
1031:../DGC_A230_Functions/DGC_A230_Normal_Mode.c **** 				__Do_Partial_Close_Gate();
1032:../DGC_A230_Functions/DGC_A230_Normal_Mode.c **** 			} break;
1033:../DGC_A230_Functions/DGC_A230_Normal_Mode.c **** 
1034:../DGC_A230_Functions/DGC_A230_Normal_Mode.c **** 			case MACHINE_STATE_NORMAL_CLOSING:
1035:../DGC_A230_Functions/DGC_A230_Normal_Mode.c **** 			case MACHINE_STATE_PARTIAL_CLOSING:
1036:../DGC_A230_Functions/DGC_A230_Normal_Mode.c **** 			default: break;
 3379                             		.loc 1 1036 0
 3380 0037 EC 63 01 00             		br	!!.L251
 3381                             	.L243:
 980:../DGC_A230_Functions/DGC_A230_Normal_Mode.c **** 					|| ((Leaf_No1_State == GATE_STATE_OPENED) && (Leaf_No2_State == GATE_STATE_OPENED) && (CFG_par
 3382                             		.loc 1 980 0
 3383 003b 8F 00 00                		mov	a, !_Leaf_No1_State
 3384 003e 9D F0                   		mov	r8, a
 3385 0040 4A F0 03                		cmp	r8, #3
 3386 0043 61 E8                   		 skz
 3387 0045 EC 57 00 00             		 br	!!.L244
 980:../DGC_A230_Functions/DGC_A230_Normal_Mode.c **** 					|| ((Leaf_No1_State == GATE_STATE_OPENED) && (Leaf_No2_State == GATE_STATE_OPENED) && (CFG_par
 3388                             		.loc 1 980 0 is_stmt 0 discriminator 1
 3389 0049 8F 00 00                		mov	a, !_CFG_parameter+1
 3390 004c 9D F0                   		mov	r8, a
 3391 004e 4A F0 01                		cmp	r8, #1
 3392 0051 61 F8                   		 sknz
 3393 0053 EC 8F 00 00             		 br	!!.L245
 3394                             	.L244:
 981:../DGC_A230_Functions/DGC_A230_Normal_Mode.c **** 					|| (Leaf_No1_State == GATE_STATE_PARTIAL))
 3395                             		.loc 1 981 0 is_stmt 1
 3396 0057 8F 00 00                		mov	a, !_Leaf_No1_State
 3397 005a 9D F0                   		mov	r8, a
 3398 005c 4A F0 03                		cmp	r8, #3
 3399 005f 61 E8                   		 skz
 3400 0061 EC 81 00 00             		 br	!!.L246
 981:../DGC_A230_Functions/DGC_A230_Normal_Mode.c **** 					|| (Leaf_No1_State == GATE_STATE_PARTIAL))
 3401                             		.loc 1 981 0 is_stmt 0 discriminator 1
 3402 0065 8F 00 00                		mov	a, !_Leaf_No2_State
 3403 0068 9D F0                   		mov	r8, a
 3404 006a 4A F0 03                		cmp	r8, #3
 3405 006d 61 E8                   		 skz
 3406 006f EC 81 00 00             		 br	!!.L246
 981:../DGC_A230_Functions/DGC_A230_Normal_Mode.c **** 					|| (Leaf_No1_State == GATE_STATE_PARTIAL))
 3407                             		.loc 1 981 0 discriminator 2
 3408 0073 8F 00 00                		mov	a, !_CFG_parameter+1
 3409 0076 9D F0                   		mov	r8, a
 3410 0078 4A F0 02                		cmp	r8, #2
 3411 007b 61 F8                   		 sknz
 3412 007d EC 8F 00 00             		 br	!!.L245
 3413                             	.L246:
 982:../DGC_A230_Functions/DGC_A230_Normal_Mode.c **** 				{
 3414                             		.loc 1 982 0 is_stmt 1
 3415 0081 8F 00 00                		mov	a, !_Leaf_No1_State
 3416 0084 9D F0                   		mov	r8, a
 3417 0086 4A F0 05                		cmp	r8, #5
 3418 0089 61 E8                   		 skz
 3419 008b EC 9E 00 00             		 br	!!.L247
 3420                             	.L245:
 984:../DGC_A230_Functions/DGC_A230_Normal_Mode.c **** 					Auto_Close_Gate_Timer_Counter = 0;
 3421                             		.loc 1 984 0
 3422 008f 8F 00 00                		mov	a, !_Auto_Close_Retry_Number
 3423 0092 9D F0                   		mov	r8, a
 3424 0094 9F 00 00                		mov	!_Auto_Close_Gate_Retry_Number, a
 985:../DGC_A230_Functions/DGC_A230_Normal_Mode.c **** 					Auto_Close_Gate_Timer_Enable = 0;
 3425                             		.loc 1 985 0
 3426 0097 F6                      		clrw	ax
 3427 0098 BF 00 00                		movw	!_Auto_Close_Gate_Timer_Counter, ax
 986:../DGC_A230_Functions/DGC_A230_Normal_Mode.c **** 				}
 3428                             		.loc 1 986 0
 3429 009b F5 00 00                		clrb	!_Auto_Close_Gate_Timer_Enable
 3430                             	.L247:
 988:../DGC_A230_Functions/DGC_A230_Normal_Mode.c **** 				if ((Leaf_No1_State == GATE_STATE_PARTIAL)
 3431                             		.loc 1 988 0
 3432 009e 8F 00 00                		mov	a, !_CFG_parameter+52
 3433 00a1 9D F0                   		mov	r8, a
 3434 00a3 9F 00 00                		mov	!_Pre_flash_Time, a
 989:../DGC_A230_Functions/DGC_A230_Normal_Mode.c **** 						|| (Leaf_No1_State == GATE_STATE_PATIAL_OPENING_PAUSE)
 3435                             		.loc 1 989 0
 3436 00a6 8F 00 00                		mov	a, !_Leaf_No1_State
 3437 00a9 9D F0                   		mov	r8, a
 3438 00ab 4A F0 05                		cmp	r8, #5
 3439 00ae 61 F8                   		 sknz
 3440 00b0 EC D0 00 00             		 br	!!.L248
 990:../DGC_A230_Functions/DGC_A230_Normal_Mode.c **** 						|| (Leaf_No2_State == GATE_STATE_CLOSED))
 3441                             		.loc 1 990 0
 3442 00b4 8F 00 00                		mov	a, !_Leaf_No1_State
 3443 00b7 9D F0                   		mov	r8, a
 3444 00b9 4A F0 08                		cmp	r8, #8
 3445 00bc 61 F8                   		 sknz
 3446 00be EC D0 00 00             		 br	!!.L248
 991:../DGC_A230_Functions/DGC_A230_Normal_Mode.c **** 				{
 3447                             		.loc 1 991 0
 3448 00c2 8F 00 00                		mov	a, !_Leaf_No2_State
 3449 00c5 9D F0                   		mov	r8, a
 3450 00c7 4A F0 01                		cmp	r8, #1
 3451 00ca 61 E8                   		 skz
 3452 00cc EC D9 00 00             		 br	!!.L249
 3453                             	.L248:
 3454                             	.LBB84:
 993:../DGC_A230_Functions/DGC_A230_Normal_Mode.c **** 				}
 3455                             		.loc 1 993 0
 3456 00d0 FC 00 00 00             		call	!!%code(___Do_Partial_Close_Gate)
 3457                             	.LBE84:
 992:../DGC_A230_Functions/DGC_A230_Normal_Mode.c **** 					__Do_Partial_Close_Gate();
 3458                             		.loc 1 992 0
 3459 00d4 00                      		nop
1000:../DGC_A230_Functions/DGC_A230_Normal_Mode.c **** 
 3460                             		.loc 1 1000 0
 3461 00d5 EC 63 01 00             		br	!!.L251
 3462                             	.L249:
 3463                             	.LBB85:
 997:../DGC_A230_Functions/DGC_A230_Normal_Mode.c **** 					__Do_Close_Gate_Motor2();
 3464                             		.loc 1 997 0
 3465 00d9 FC 00 00 00             		call	!!%code(___Do_Close_Gate_Motor1)
 998:../DGC_A230_Functions/DGC_A230_Normal_Mode.c **** 				}
 3466                             		.loc 1 998 0
 3467 00dd FC 00 00 00             		call	!!%code(___Do_Close_Gate_Motor2)
 3468                             	.LBE85:
1000:../DGC_A230_Functions/DGC_A230_Normal_Mode.c **** 
 3469                             		.loc 1 1000 0
 3470 00e1 EC 63 01 00             		br	!!.L251
 3471                             	.L241:
 3472                             	.LBB86:
1004:../DGC_A230_Functions/DGC_A230_Normal_Mode.c **** 				Leaf_No2_State = GATE_STATE_OPENING_PAUSE;
 3473                             		.loc 1 1004 0
 3474 00e5 51 06                   		mov	a, #6
 3475 00e7 9F 00 00                		mov	!_Leaf_No1_State, a
1005:../DGC_A230_Functions/DGC_A230_Normal_Mode.c **** 				if (CFG_parameter.Reverse_Command_Enable_Braking == 0x01)
 3476                             		.loc 1 1005 0
 3477 00ea 51 06                   		mov	a, #6
 3478 00ec 9F 00 00                		mov	!_Leaf_No2_State, a
1006:../DGC_A230_Functions/DGC_A230_Normal_Mode.c **** 				{
 3479                             		.loc 1 1006 0
 3480 00ef 8F 00 00                		mov	a, !_CFG_parameter+90
 3481 00f2 9D F0                   		mov	r8, a
 3482 00f4 4A F0 01                		cmp	r8, #1
 3483 00f7 61 E8                   		 skz
 3484 00f9 EC 1D 01 00             		 br	!!.L252
 3485                             	.LBB87:
1008:../DGC_A230_Functions/DGC_A230_Normal_Mode.c **** 						__Do_Brake_Motor_Type_2(OPEN_MOVING_DIRECTION);
 3486                             		.loc 1 1008 0
 3487 00fd 8F 00 00                		mov	a, !_CFG_parameter+1
 3488 0100 9D F0                   		mov	r8, a
 3489 0102 4A F0 02                		cmp	r8, #2
 3490 0105 61 E8                   		 skz
 3491 0107 EC 16 01 00             		 br	!!.L253
1009:../DGC_A230_Functions/DGC_A230_Normal_Mode.c **** 					else
 3492                             		.loc 1 1009 0
 3493 010b F6                      		clrw	ax
 3494 010c B8 00                   		movw	[sp], ax
 3495 010e FC 00 00 00             		call	!!%code(___Do_Brake_Motor_Type_2)
 3496 0112 EC 1D 01 00             		br	!!.L252
 3497                             	.L253:
1011:../DGC_A230_Functions/DGC_A230_Normal_Mode.c **** 				}
 3498                             		.loc 1 1011 0
 3499 0116 F6                      		clrw	ax
 3500 0117 B8 00                   		movw	[sp], ax
 3501 0119 FC 00 00 00             		call	!!%code(___Do_Brake_Motor_Type_1)
 3502                             	.L252:
 3503                             	.LBE87:
1013:../DGC_A230_Functions/DGC_A230_Normal_Mode.c **** 				__Do_Stop_Gate_Motor2(OPEN_MOVING_DIRECTION);
 3504                             		.loc 1 1013 0
 3505 011d F6                      		clrw	ax
 3506 011e B8 00                   		movw	[sp], ax
 3507 0120 FC 00 00 00             		call	!!%code(___Do_Stop_Gate_Motor1)
1014:../DGC_A230_Functions/DGC_A230_Normal_Mode.c **** 
 3508                             		.loc 1 1014 0
 3509 0124 F6                      		clrw	ax
 3510 0125 B8 00                   		movw	[sp], ax
 3511 0127 FC 00 00 00             		call	!!%code(___Do_Stop_Gate_Motor2)
1016:../DGC_A230_Functions/DGC_A230_Normal_Mode.c **** 				__Do_Close_Gate_Motor1();
 3512                             		.loc 1 1016 0
 3513 012b F5 00 00                		clrb	!_Pre_flash_Time
1017:../DGC_A230_Functions/DGC_A230_Normal_Mode.c **** 				__Do_Close_Gate_Motor2();
 3514                             		.loc 1 1017 0
 3515 012e FC 00 00 00             		call	!!%code(___Do_Close_Gate_Motor1)
1018:../DGC_A230_Functions/DGC_A230_Normal_Mode.c **** 			} break;
 3516                             		.loc 1 1018 0
 3517 0132 FC 00 00 00             		call	!!%code(___Do_Close_Gate_Motor2)
 3518                             	.LBE86:
1019:../DGC_A230_Functions/DGC_A230_Normal_Mode.c **** 
 3519                             		.loc 1 1019 0
 3520 0136 EC 63 01 00             		br	!!.L251
 3521                             	.L242:
 3522                             	.LBB88:
1023:../DGC_A230_Functions/DGC_A230_Normal_Mode.c **** 				if (CFG_parameter.Reverse_Command_Enable_Braking == 0x01)
 3523                             		.loc 1 1023 0
 3524 013a 51 08                   		mov	a, #8
 3525 013c 9F 00 00                		mov	!_Leaf_No1_State, a
1024:../DGC_A230_Functions/DGC_A230_Normal_Mode.c **** 				{
 3526                             		.loc 1 1024 0
 3527 013f 8F 00 00                		mov	a, !_CFG_parameter+90
 3528 0142 9D F0                   		mov	r8, a
 3529 0144 4A F0 01                		cmp	r8, #1
 3530 0147 61 E8                   		 skz
 3531 0149 EC 54 01 00             		 br	!!.L254
 3532                             	.LBB89:
1026:../DGC_A230_Functions/DGC_A230_Normal_Mode.c **** 				}
 3533                             		.loc 1 1026 0
 3534 014d F6                      		clrw	ax
 3535 014e B8 00                   		movw	[sp], ax
 3536 0150 FC 00 00 00             		call	!!%code(___Do_Brake_Motor_Type_1)
 3537                             	.L254:
 3538                             	.LBE89:
1028:../DGC_A230_Functions/DGC_A230_Normal_Mode.c **** 
 3539                             		.loc 1 1028 0
 3540 0154 F6                      		clrw	ax
 3541 0155 B8 00                   		movw	[sp], ax
 3542 0157 FC 00 00 00             		call	!!%code(___Do_Partial_Stop_Gate)
1030:../DGC_A230_Functions/DGC_A230_Normal_Mode.c **** 				__Do_Partial_Close_Gate();
 3543                             		.loc 1 1030 0
 3544 015b F5 00 00                		clrb	!_Pre_flash_Time
1031:../DGC_A230_Functions/DGC_A230_Normal_Mode.c **** 			} break;
 3545                             		.loc 1 1031 0
 3546 015e FC 00 00 00             		call	!!%code(___Do_Partial_Close_Gate)
 3547                             	.LBE88:
1032:../DGC_A230_Functions/DGC_A230_Normal_Mode.c **** 
 3548                             		.loc 1 1032 0
 3549 0162 00                      		nop
 3550                             	.L251:
1037:../DGC_A230_Functions/DGC_A230_Normal_Mode.c **** 		}
1038:../DGC_A230_Functions/DGC_A230_Normal_Mode.c **** 		while(!CH_IN);
 3551                             		.loc 1 1038 0 discriminator 1
 3552 0163 00                      		nop
 3553                             	.L255:
 3554 0164 C9 F0 06 FF             		movw	r8, #-250
 3555 0168 AD F0                   		movw	ax, r8
 3556 016a BD F2                   		movw	r10, ax
 3557 016c FA F2                   		movw	hl, r10
 3558 016e 8B                      		mov	a, [hl]
 3559 016f 9D F0                   		mov	r8, a
 3560 0171 31 2A                   		shr	a, 2
 3561 0173 9D F0                   		mov	r8, a
 3562 0175 5A F0 01                		and	r8, #1
 3563 0178 61 F8                   		sknz
 3564 017a EC 64 01 00             		 br	!!.L255
 3565                             		 # zero-comparison eliminated
 3566 017e EC E7 02 00             		br	!!.L238
 3567                             	.L239:
1039:../DGC_A230_Functions/DGC_A230_Normal_Mode.c **** 	}
1040:../DGC_A230_Functions/DGC_A230_Normal_Mode.c **** 	else
1041:../DGC_A230_Functions/DGC_A230_Normal_Mode.c **** 	{
1042:../DGC_A230_Functions/DGC_A230_Normal_Mode.c **** 		if (Last_Close_Command_State == COMMAND_RELEASE_STATE)
 3568                             		.loc 1 1042 0
 3569 0182 8F 00 00                		mov	a, !_Last_Close_Command_State
 3570 0185 9D F0                   		mov	r8, a
 3571 0187 4A F0 01                		cmp	r8, #1
 3572 018a 61 E8                   		 skz
 3573 018c EC E7 02 00             		 br	!!.L238
1043:../DGC_A230_Functions/DGC_A230_Normal_Mode.c **** 		{
1044:../DGC_A230_Functions/DGC_A230_Normal_Mode.c **** 			Last_Close_Command_State = COMMAND_PRESSED_STATE;
 3574                             		.loc 1 1044 0
 3575 0190 F5 00 00                		clrb	!_Last_Close_Command_State
1045:../DGC_A230_Functions/DGC_A230_Normal_Mode.c **** 
1046:../DGC_A230_Functions/DGC_A230_Normal_Mode.c **** 			switch(Machine_State)
 3576                             		.loc 1 1046 0
 3577 0193 8F 00 00                		mov	a, !_Machine_State
 3578 0196 9D F0                   		mov	r8, a
 3579 0198 F4 F1                   		clrb	r9
 3580 019a AD F0                   		movw	ax, r8
 3581 019c 44 01 00                		cmpw	ax, #1
 3582 019f 61 F8                   		 sknz
 3583 01a1 EC 69 02 00             		 br	!!.L258
 3584 01a5 AD F0                   		movw	ax, r8
 3585 01a7 44 03 00                		cmpw	ax, #3
 3586 01aa 61 F8                   		 sknz
 3587 01ac EC BE 02 00             		 br	!!.L259
 3588 01b0 AD F0                   		movw	ax, r8
 3589 01b2 44 00 00                		cmpw	ax, #0
 3590 01b5 61 F8                   		 sknz
 3591 01b7 EC BF 01 00             		 br	!!.L260
1047:../DGC_A230_Functions/DGC_A230_Normal_Mode.c **** 			{
1048:../DGC_A230_Functions/DGC_A230_Normal_Mode.c **** 				case MACHINE_STATE_STOP:
1049:../DGC_A230_Functions/DGC_A230_Normal_Mode.c **** 				{
1050:../DGC_A230_Functions/DGC_A230_Normal_Mode.c **** 					if (((Leaf_No1_State == GATE_STATE_OPENED) && (CFG_parameter.Number_Of_Motors == 0x01))
1051:../DGC_A230_Functions/DGC_A230_Normal_Mode.c **** 						|| ((Leaf_No1_State == GATE_STATE_OPENED) && (Leaf_No2_State == GATE_STATE_OPENED) && (CFG_pa
1052:../DGC_A230_Functions/DGC_A230_Normal_Mode.c **** 						|| (Leaf_No1_State == GATE_STATE_PARTIAL))
1053:../DGC_A230_Functions/DGC_A230_Normal_Mode.c **** 					{
1054:../DGC_A230_Functions/DGC_A230_Normal_Mode.c **** 						Auto_Close_Gate_Retry_Number = Auto_Close_Retry_Number;
1055:../DGC_A230_Functions/DGC_A230_Normal_Mode.c **** 						Auto_Close_Gate_Timer_Counter = 0;
1056:../DGC_A230_Functions/DGC_A230_Normal_Mode.c **** 						Auto_Close_Gate_Timer_Enable = 0;
1057:../DGC_A230_Functions/DGC_A230_Normal_Mode.c **** 					}
1058:../DGC_A230_Functions/DGC_A230_Normal_Mode.c **** 					Pre_flash_Time = CFG_parameter.Pre_Flashing;
1059:../DGC_A230_Functions/DGC_A230_Normal_Mode.c **** 					if ((Leaf_No1_State == GATE_STATE_PARTIAL)
1060:../DGC_A230_Functions/DGC_A230_Normal_Mode.c **** 							|| (Leaf_No1_State == GATE_STATE_PATIAL_OPENING_PAUSE)
1061:../DGC_A230_Functions/DGC_A230_Normal_Mode.c **** 							|| (Leaf_No2_State == GATE_STATE_CLOSED))
1062:../DGC_A230_Functions/DGC_A230_Normal_Mode.c **** 					{
1063:../DGC_A230_Functions/DGC_A230_Normal_Mode.c **** 						__Do_Partial_Close_Gate();
1064:../DGC_A230_Functions/DGC_A230_Normal_Mode.c **** 					}
1065:../DGC_A230_Functions/DGC_A230_Normal_Mode.c **** 					else
1066:../DGC_A230_Functions/DGC_A230_Normal_Mode.c **** 					{
1067:../DGC_A230_Functions/DGC_A230_Normal_Mode.c **** 						__Do_Close_Gate_Motor1();
1068:../DGC_A230_Functions/DGC_A230_Normal_Mode.c **** 						__Do_Close_Gate_Motor2();
1069:../DGC_A230_Functions/DGC_A230_Normal_Mode.c **** 					}
1070:../DGC_A230_Functions/DGC_A230_Normal_Mode.c **** 				} break;
1071:../DGC_A230_Functions/DGC_A230_Normal_Mode.c **** 
1072:../DGC_A230_Functions/DGC_A230_Normal_Mode.c **** 				case MACHINE_STATE_NORMAL_OPENING:
1073:../DGC_A230_Functions/DGC_A230_Normal_Mode.c **** 				{
1074:../DGC_A230_Functions/DGC_A230_Normal_Mode.c **** 					Leaf_No1_State = GATE_STATE_OPENING_PAUSE;
1075:../DGC_A230_Functions/DGC_A230_Normal_Mode.c **** 					Leaf_No2_State = GATE_STATE_OPENING_PAUSE;
1076:../DGC_A230_Functions/DGC_A230_Normal_Mode.c **** 					if (CFG_parameter.Reverse_Command_Enable_Braking == 0x01)
1077:../DGC_A230_Functions/DGC_A230_Normal_Mode.c **** 					{
1078:../DGC_A230_Functions/DGC_A230_Normal_Mode.c **** 						if (CFG_parameter.Number_Of_Motors == 0x02)
1079:../DGC_A230_Functions/DGC_A230_Normal_Mode.c **** 							__Do_Brake_Motor_Type_2(OPEN_MOVING_DIRECTION);
1080:../DGC_A230_Functions/DGC_A230_Normal_Mode.c **** 						else
1081:../DGC_A230_Functions/DGC_A230_Normal_Mode.c **** 							__Do_Brake_Motor_Type_1(OPEN_MOVING_DIRECTION);
1082:../DGC_A230_Functions/DGC_A230_Normal_Mode.c **** 
1083:../DGC_A230_Functions/DGC_A230_Normal_Mode.c **** 					}
1084:../DGC_A230_Functions/DGC_A230_Normal_Mode.c **** 					__Do_Stop_Gate_Motor1(OPEN_MOVING_DIRECTION);
1085:../DGC_A230_Functions/DGC_A230_Normal_Mode.c **** 					__Do_Stop_Gate_Motor2(OPEN_MOVING_DIRECTION);
1086:../DGC_A230_Functions/DGC_A230_Normal_Mode.c **** 
1087:../DGC_A230_Functions/DGC_A230_Normal_Mode.c **** 					Pre_flash_Time = 0x00;
1088:../DGC_A230_Functions/DGC_A230_Normal_Mode.c **** 					__Do_Close_Gate_Motor1();
1089:../DGC_A230_Functions/DGC_A230_Normal_Mode.c **** 					__Do_Close_Gate_Motor2();
1090:../DGC_A230_Functions/DGC_A230_Normal_Mode.c **** 				} break;
1091:../DGC_A230_Functions/DGC_A230_Normal_Mode.c **** 
1092:../DGC_A230_Functions/DGC_A230_Normal_Mode.c **** 				case MACHINE_STATE_PARTIAL_OPENING:
1093:../DGC_A230_Functions/DGC_A230_Normal_Mode.c **** 				{
1094:../DGC_A230_Functions/DGC_A230_Normal_Mode.c **** 					Leaf_No1_State = GATE_STATE_PATIAL_OPENING_PAUSE;
1095:../DGC_A230_Functions/DGC_A230_Normal_Mode.c **** 					if (CFG_parameter.Reverse_Command_Enable_Braking == 0x01)
1096:../DGC_A230_Functions/DGC_A230_Normal_Mode.c **** 					{
1097:../DGC_A230_Functions/DGC_A230_Normal_Mode.c **** 						__Do_Brake_Motor_Type_1(OPEN_MOVING_DIRECTION);
1098:../DGC_A230_Functions/DGC_A230_Normal_Mode.c **** 					}
1099:../DGC_A230_Functions/DGC_A230_Normal_Mode.c **** 					__Do_Partial_Stop_Gate(OPEN_MOVING_DIRECTION);
1100:../DGC_A230_Functions/DGC_A230_Normal_Mode.c **** 
1101:../DGC_A230_Functions/DGC_A230_Normal_Mode.c **** 					Pre_flash_Time = 0x00;
1102:../DGC_A230_Functions/DGC_A230_Normal_Mode.c **** 					__Do_Partial_Close_Gate();
1103:../DGC_A230_Functions/DGC_A230_Normal_Mode.c **** 				} break;
1104:../DGC_A230_Functions/DGC_A230_Normal_Mode.c **** 
1105:../DGC_A230_Functions/DGC_A230_Normal_Mode.c **** 				case MACHINE_STATE_NORMAL_CLOSING:
1106:../DGC_A230_Functions/DGC_A230_Normal_Mode.c **** 				case MACHINE_STATE_PARTIAL_CLOSING:
1107:../DGC_A230_Functions/DGC_A230_Normal_Mode.c **** 				default: break;
 3592                             		.loc 1 1107 0
 3593 01bb EC E7 02 00             		br	!!.L238
 3594                             	.L260:
1050:../DGC_A230_Functions/DGC_A230_Normal_Mode.c **** 						|| ((Leaf_No1_State == GATE_STATE_OPENED) && (Leaf_No2_State == GATE_STATE_OPENED) && (CFG_pa
 3595                             		.loc 1 1050 0
 3596 01bf 8F 00 00                		mov	a, !_Leaf_No1_State
 3597 01c2 9D F0                   		mov	r8, a
 3598 01c4 4A F0 03                		cmp	r8, #3
 3599 01c7 61 E8                   		 skz
 3600 01c9 EC DB 01 00             		 br	!!.L261
1050:../DGC_A230_Functions/DGC_A230_Normal_Mode.c **** 						|| ((Leaf_No1_State == GATE_STATE_OPENED) && (Leaf_No2_State == GATE_STATE_OPENED) && (CFG_pa
 3601                             		.loc 1 1050 0 is_stmt 0 discriminator 1
 3602 01cd 8F 00 00                		mov	a, !_CFG_parameter+1
 3603 01d0 9D F0                   		mov	r8, a
 3604 01d2 4A F0 01                		cmp	r8, #1
 3605 01d5 61 F8                   		 sknz
 3606 01d7 EC 13 02 00             		 br	!!.L262
 3607                             	.L261:
1051:../DGC_A230_Functions/DGC_A230_Normal_Mode.c **** 						|| (Leaf_No1_State == GATE_STATE_PARTIAL))
 3608                             		.loc 1 1051 0 is_stmt 1
 3609 01db 8F 00 00                		mov	a, !_Leaf_No1_State
 3610 01de 9D F0                   		mov	r8, a
 3611 01e0 4A F0 03                		cmp	r8, #3
 3612 01e3 61 E8                   		 skz
 3613 01e5 EC 05 02 00             		 br	!!.L263
1051:../DGC_A230_Functions/DGC_A230_Normal_Mode.c **** 						|| (Leaf_No1_State == GATE_STATE_PARTIAL))
 3614                             		.loc 1 1051 0 is_stmt 0 discriminator 1
 3615 01e9 8F 00 00                		mov	a, !_Leaf_No2_State
 3616 01ec 9D F0                   		mov	r8, a
 3617 01ee 4A F0 03                		cmp	r8, #3
 3618 01f1 61 E8                   		 skz
 3619 01f3 EC 05 02 00             		 br	!!.L263
1051:../DGC_A230_Functions/DGC_A230_Normal_Mode.c **** 						|| (Leaf_No1_State == GATE_STATE_PARTIAL))
 3620                             		.loc 1 1051 0 discriminator 2
 3621 01f7 8F 00 00                		mov	a, !_CFG_parameter+1
 3622 01fa 9D F0                   		mov	r8, a
 3623 01fc 4A F0 02                		cmp	r8, #2
 3624 01ff 61 F8                   		 sknz
 3625 0201 EC 13 02 00             		 br	!!.L262
 3626                             	.L263:
1052:../DGC_A230_Functions/DGC_A230_Normal_Mode.c **** 					{
 3627                             		.loc 1 1052 0 is_stmt 1
 3628 0205 8F 00 00                		mov	a, !_Leaf_No1_State
 3629 0208 9D F0                   		mov	r8, a
 3630 020a 4A F0 05                		cmp	r8, #5
 3631 020d 61 E8                   		 skz
 3632 020f EC 22 02 00             		 br	!!.L264
 3633                             	.L262:
1054:../DGC_A230_Functions/DGC_A230_Normal_Mode.c **** 						Auto_Close_Gate_Timer_Counter = 0;
 3634                             		.loc 1 1054 0
 3635 0213 8F 00 00                		mov	a, !_Auto_Close_Retry_Number
 3636 0216 9D F0                   		mov	r8, a
 3637 0218 9F 00 00                		mov	!_Auto_Close_Gate_Retry_Number, a
1055:../DGC_A230_Functions/DGC_A230_Normal_Mode.c **** 						Auto_Close_Gate_Timer_Enable = 0;
 3638                             		.loc 1 1055 0
 3639 021b F6                      		clrw	ax
 3640 021c BF 00 00                		movw	!_Auto_Close_Gate_Timer_Counter, ax
1056:../DGC_A230_Functions/DGC_A230_Normal_Mode.c **** 					}
 3641                             		.loc 1 1056 0
 3642 021f F5 00 00                		clrb	!_Auto_Close_Gate_Timer_Enable
 3643                             	.L264:
1058:../DGC_A230_Functions/DGC_A230_Normal_Mode.c **** 					if ((Leaf_No1_State == GATE_STATE_PARTIAL)
 3644                             		.loc 1 1058 0
 3645 0222 8F 00 00                		mov	a, !_CFG_parameter+52
 3646 0225 9D F0                   		mov	r8, a
 3647 0227 9F 00 00                		mov	!_Pre_flash_Time, a
1059:../DGC_A230_Functions/DGC_A230_Normal_Mode.c **** 							|| (Leaf_No1_State == GATE_STATE_PATIAL_OPENING_PAUSE)
 3648                             		.loc 1 1059 0
 3649 022a 8F 00 00                		mov	a, !_Leaf_No1_State
 3650 022d 9D F0                   		mov	r8, a
 3651 022f 4A F0 05                		cmp	r8, #5
 3652 0232 61 F8                   		 sknz
 3653 0234 EC 54 02 00             		 br	!!.L265
1060:../DGC_A230_Functions/DGC_A230_Normal_Mode.c **** 							|| (Leaf_No2_State == GATE_STATE_CLOSED))
 3654                             		.loc 1 1060 0
 3655 0238 8F 00 00                		mov	a, !_Leaf_No1_State
 3656 023b 9D F0                   		mov	r8, a
 3657 023d 4A F0 08                		cmp	r8, #8
 3658 0240 61 F8                   		 sknz
 3659 0242 EC 54 02 00             		 br	!!.L265
1061:../DGC_A230_Functions/DGC_A230_Normal_Mode.c **** 					{
 3660                             		.loc 1 1061 0
 3661 0246 8F 00 00                		mov	a, !_Leaf_No2_State
 3662 0249 9D F0                   		mov	r8, a
 3663 024b 4A F0 01                		cmp	r8, #1
 3664 024e 61 E8                   		 skz
 3665 0250 EC 5D 02 00             		 br	!!.L266
 3666                             	.L265:
 3667                             	.LBB90:
1063:../DGC_A230_Functions/DGC_A230_Normal_Mode.c **** 					}
 3668                             		.loc 1 1063 0
 3669 0254 FC 00 00 00             		call	!!%code(___Do_Partial_Close_Gate)
 3670                             	.LBE90:
1062:../DGC_A230_Functions/DGC_A230_Normal_Mode.c **** 						__Do_Partial_Close_Gate();
 3671                             		.loc 1 1062 0
 3672 0258 00                      		nop
1070:../DGC_A230_Functions/DGC_A230_Normal_Mode.c **** 
 3673                             		.loc 1 1070 0
 3674 0259 EC E7 02 00             		br	!!.L238
 3675                             	.L266:
 3676                             	.LBB91:
1067:../DGC_A230_Functions/DGC_A230_Normal_Mode.c **** 						__Do_Close_Gate_Motor2();
 3677                             		.loc 1 1067 0
 3678 025d FC 00 00 00             		call	!!%code(___Do_Close_Gate_Motor1)
1068:../DGC_A230_Functions/DGC_A230_Normal_Mode.c **** 					}
 3679                             		.loc 1 1068 0
 3680 0261 FC 00 00 00             		call	!!%code(___Do_Close_Gate_Motor2)
 3681                             	.LBE91:
1070:../DGC_A230_Functions/DGC_A230_Normal_Mode.c **** 
 3682                             		.loc 1 1070 0
 3683 0265 EC E7 02 00             		br	!!.L238
 3684                             	.L258:
 3685                             	.LBB92:
1074:../DGC_A230_Functions/DGC_A230_Normal_Mode.c **** 					Leaf_No2_State = GATE_STATE_OPENING_PAUSE;
 3686                             		.loc 1 1074 0
 3687 0269 51 06                   		mov	a, #6
 3688 026b 9F 00 00                		mov	!_Leaf_No1_State, a
1075:../DGC_A230_Functions/DGC_A230_Normal_Mode.c **** 					if (CFG_parameter.Reverse_Command_Enable_Braking == 0x01)
 3689                             		.loc 1 1075 0
 3690 026e 51 06                   		mov	a, #6
 3691 0270 9F 00 00                		mov	!_Leaf_No2_State, a
1076:../DGC_A230_Functions/DGC_A230_Normal_Mode.c **** 					{
 3692                             		.loc 1 1076 0
 3693 0273 8F 00 00                		mov	a, !_CFG_parameter+90
 3694 0276 9D F0                   		mov	r8, a
 3695 0278 4A F0 01                		cmp	r8, #1
 3696 027b 61 E8                   		 skz
 3697 027d EC A1 02 00             		 br	!!.L268
 3698                             	.LBB93:
1078:../DGC_A230_Functions/DGC_A230_Normal_Mode.c **** 							__Do_Brake_Motor_Type_2(OPEN_MOVING_DIRECTION);
 3699                             		.loc 1 1078 0
 3700 0281 8F 00 00                		mov	a, !_CFG_parameter+1
 3701 0284 9D F0                   		mov	r8, a
 3702 0286 4A F0 02                		cmp	r8, #2
 3703 0289 61 E8                   		 skz
 3704 028b EC 9A 02 00             		 br	!!.L269
1079:../DGC_A230_Functions/DGC_A230_Normal_Mode.c **** 						else
 3705                             		.loc 1 1079 0
 3706 028f F6                      		clrw	ax
 3707 0290 B8 00                   		movw	[sp], ax
 3708 0292 FC 00 00 00             		call	!!%code(___Do_Brake_Motor_Type_2)
 3709 0296 EC A1 02 00             		br	!!.L268
 3710                             	.L269:
1081:../DGC_A230_Functions/DGC_A230_Normal_Mode.c **** 
 3711                             		.loc 1 1081 0
 3712 029a F6                      		clrw	ax
 3713 029b B8 00                   		movw	[sp], ax
 3714 029d FC 00 00 00             		call	!!%code(___Do_Brake_Motor_Type_1)
 3715                             	.L268:
 3716                             	.LBE93:
1084:../DGC_A230_Functions/DGC_A230_Normal_Mode.c **** 					__Do_Stop_Gate_Motor2(OPEN_MOVING_DIRECTION);
 3717                             		.loc 1 1084 0
 3718 02a1 F6                      		clrw	ax
 3719 02a2 B8 00                   		movw	[sp], ax
 3720 02a4 FC 00 00 00             		call	!!%code(___Do_Stop_Gate_Motor1)
1085:../DGC_A230_Functions/DGC_A230_Normal_Mode.c **** 
 3721                             		.loc 1 1085 0
 3722 02a8 F6                      		clrw	ax
 3723 02a9 B8 00                   		movw	[sp], ax
 3724 02ab FC 00 00 00             		call	!!%code(___Do_Stop_Gate_Motor2)
1087:../DGC_A230_Functions/DGC_A230_Normal_Mode.c **** 					__Do_Close_Gate_Motor1();
 3725                             		.loc 1 1087 0
 3726 02af F5 00 00                		clrb	!_Pre_flash_Time
1088:../DGC_A230_Functions/DGC_A230_Normal_Mode.c **** 					__Do_Close_Gate_Motor2();
 3727                             		.loc 1 1088 0
 3728 02b2 FC 00 00 00             		call	!!%code(___Do_Close_Gate_Motor1)
1089:../DGC_A230_Functions/DGC_A230_Normal_Mode.c **** 				} break;
 3729                             		.loc 1 1089 0
 3730 02b6 FC 00 00 00             		call	!!%code(___Do_Close_Gate_Motor2)
 3731                             	.LBE92:
1090:../DGC_A230_Functions/DGC_A230_Normal_Mode.c **** 
 3732                             		.loc 1 1090 0
 3733 02ba EC E7 02 00             		br	!!.L238
 3734                             	.L259:
 3735                             	.LBB94:
1094:../DGC_A230_Functions/DGC_A230_Normal_Mode.c **** 					if (CFG_parameter.Reverse_Command_Enable_Braking == 0x01)
 3736                             		.loc 1 1094 0
 3737 02be 51 08                   		mov	a, #8
 3738 02c0 9F 00 00                		mov	!_Leaf_No1_State, a
1095:../DGC_A230_Functions/DGC_A230_Normal_Mode.c **** 					{
 3739                             		.loc 1 1095 0
 3740 02c3 8F 00 00                		mov	a, !_CFG_parameter+90
 3741 02c6 9D F0                   		mov	r8, a
 3742 02c8 4A F0 01                		cmp	r8, #1
 3743 02cb 61 E8                   		 skz
 3744 02cd EC D8 02 00             		 br	!!.L270
 3745                             	.LBB95:
1097:../DGC_A230_Functions/DGC_A230_Normal_Mode.c **** 					}
 3746                             		.loc 1 1097 0
 3747 02d1 F6                      		clrw	ax
 3748 02d2 B8 00                   		movw	[sp], ax
 3749 02d4 FC 00 00 00             		call	!!%code(___Do_Brake_Motor_Type_1)
 3750                             	.L270:
 3751                             	.LBE95:
1099:../DGC_A230_Functions/DGC_A230_Normal_Mode.c **** 
 3752                             		.loc 1 1099 0
 3753 02d8 F6                      		clrw	ax
 3754 02d9 B8 00                   		movw	[sp], ax
 3755 02db FC 00 00 00             		call	!!%code(___Do_Partial_Stop_Gate)
1101:../DGC_A230_Functions/DGC_A230_Normal_Mode.c **** 					__Do_Partial_Close_Gate();
 3756                             		.loc 1 1101 0
 3757 02df F5 00 00                		clrb	!_Pre_flash_Time
1102:../DGC_A230_Functions/DGC_A230_Normal_Mode.c **** 				} break;
 3758                             		.loc 1 1102 0
 3759 02e2 FC 00 00 00             		call	!!%code(___Do_Partial_Close_Gate)
 3760                             	.LBE94:
1103:../DGC_A230_Functions/DGC_A230_Normal_Mode.c **** 
 3761                             		.loc 1 1103 0
 3762 02e6 00                      		nop
 3763                             	.L238:
1108:../DGC_A230_Functions/DGC_A230_Normal_Mode.c **** 			}
1109:../DGC_A230_Functions/DGC_A230_Normal_Mode.c **** 
1110:../DGC_A230_Functions/DGC_A230_Normal_Mode.c **** 		}
1111:../DGC_A230_Functions/DGC_A230_Normal_Mode.c **** 	}
1112:../DGC_A230_Functions/DGC_A230_Normal_Mode.c **** }
 3764                             		.loc 1 1112 0
 3765 02e7 10 02                   		addw	sp, #2
 3766 02e9 D7                      		ret
 3767                             	.LFE12:
 3769                             		.section	.text.Auto_Close_Gate_Command_Process,"ax",@progbits
 3770                             		.global	_Auto_Close_Gate_Command_Process
 3772                             	_Auto_Close_Gate_Command_Process:
 3773                             	.LFB13:
1113:../DGC_A230_Functions/DGC_A230_Normal_Mode.c **** 
1114:../DGC_A230_Functions/DGC_A230_Normal_Mode.c **** void Auto_Close_Gate_Command_Process(void)
1115:../DGC_A230_Functions/DGC_A230_Normal_Mode.c **** {
 3774                             		.loc 1 1115 0
1116:../DGC_A230_Functions/DGC_A230_Normal_Mode.c **** 	Auto_Close_Gate_Command = AUTO_CLOSE_GATE_COMMAND_OFF;
 3775                             		.loc 1 1116 0
 3776 0000 F5 00 00                		clrb	!_Auto_Close_Gate_Command
1117:../DGC_A230_Functions/DGC_A230_Normal_Mode.c **** 	Auto_Close_Gate_Timer_Enable = 0;
 3777                             		.loc 1 1117 0
 3778 0003 F5 00 00                		clrb	!_Auto_Close_Gate_Timer_Enable
1118:../DGC_A230_Functions/DGC_A230_Normal_Mode.c **** 	Auto_Close_Gate_Timer_Counter = 0;
 3779                             		.loc 1 1118 0
 3780 0006 F6                      		clrw	ax
 3781 0007 BF 00 00                		movw	!_Auto_Close_Gate_Timer_Counter, ax
1119:../DGC_A230_Functions/DGC_A230_Normal_Mode.c **** 
1120:../DGC_A230_Functions/DGC_A230_Normal_Mode.c **** 	if(ORO_IN)
 3782                             		.loc 1 1120 0
 3783 000a C9 F0 03 FF             		movw	r8, #-253
 3784 000e AD F0                   		movw	ax, r8
 3785 0010 BD F2                   		movw	r10, ax
 3786 0012 FA F2                   		movw	hl, r10
 3787 0014 8B                      		mov	a, [hl]
 3788 0015 9D F0                   		mov	r8, a
 3789 0017 31 1A                   		shr	a, 1
 3790 0019 9D F0                   		mov	r8, a
 3791 001b 5A F0 01                		and	r8, #1
 3792 001e 61 F8                   		sknz
 3793 0020 EC 90 00 00             		 br	!!.L271
 3794                             		 # zero-comparison eliminated
1121:../DGC_A230_Functions/DGC_A230_Normal_Mode.c **** 	{
1122:../DGC_A230_Functions/DGC_A230_Normal_Mode.c **** 		if ((Auto_Close_Gate_Retry_Number > 0) && (Auto_Close_Gate_Retry_Number != 99))
 3795                             		.loc 1 1122 0
 3796 0024 8F 00 00                		mov	a, !_Auto_Close_Gate_Retry_Number
 3797 0027 9D F0                   		mov	r8, a
 3798 0029 D4 F0                   		cmp0	r8
 3799 002b 61 F8                   		 sknz
 3800 002d EC 4B 00 00             		 br	!!.L273
 3801                             		.loc 1 1122 0 is_stmt 0 discriminator 1
 3802 0031 8F 00 00                		mov	a, !_Auto_Close_Gate_Retry_Number
 3803 0034 9D F0                   		mov	r8, a
 3804 0036 4A F0 63                		cmp	r8, #99
 3805 0039 61 F8                   		 sknz
 3806 003b EC 4B 00 00             		 br	!!.L273
1123:../DGC_A230_Functions/DGC_A230_Normal_Mode.c **** 		{
1124:../DGC_A230_Functions/DGC_A230_Normal_Mode.c **** 			Auto_Close_Gate_Retry_Number -= 1;
 3807                             		.loc 1 1124 0 is_stmt 1
 3808 003f 8F 00 00                		mov	a, !_Auto_Close_Gate_Retry_Number
 3809 0042 9D F0                   		mov	r8, a
 3810 0044 B4 F0                   		dec	r8
 3811 0046 8D F0                   		mov	a, r8
 3812 0048 9F 00 00                		mov	!_Auto_Close_Gate_Retry_Number, a
 3813                             	.L273:
1125:../DGC_A230_Functions/DGC_A230_Normal_Mode.c **** 		}
1126:../DGC_A230_Functions/DGC_A230_Normal_Mode.c **** 
1127:../DGC_A230_Functions/DGC_A230_Normal_Mode.c **** 		if (Leaf_No1_State == GATE_STATE_PARTIAL)
 3814                             		.loc 1 1127 0
 3815 004b 8F 00 00                		mov	a, !_Leaf_No1_State
 3816 004e 9D F0                   		mov	r8, a
 3817 0050 4A F0 05                		cmp	r8, #5
 3818 0053 61 E8                   		 skz
 3819 0055 EC 65 00 00             		 br	!!.L274
 3820                             	.LBB96:
1128:../DGC_A230_Functions/DGC_A230_Normal_Mode.c **** 		{
1129:../DGC_A230_Functions/DGC_A230_Normal_Mode.c **** 			Pre_flash_Time = CFG_parameter.Pre_Flashing;
 3821                             		.loc 1 1129 0
 3822 0059 8F 00 00                		mov	a, !_CFG_parameter+52
 3823 005c 9D F0                   		mov	r8, a
 3824 005e 9F 00 00                		mov	!_Pre_flash_Time, a
1130:../DGC_A230_Functions/DGC_A230_Normal_Mode.c **** 			__Do_Partial_Close_Gate();
 3825                             		.loc 1 1130 0
 3826 0061 FC 00 00 00             		call	!!%code(___Do_Partial_Close_Gate)
 3827                             	.L274:
 3828                             	.LBE96:
1131:../DGC_A230_Functions/DGC_A230_Normal_Mode.c **** 		}
1132:../DGC_A230_Functions/DGC_A230_Normal_Mode.c **** 		if ((Leaf_No1_State != GATE_STATE_CLOSED) && (Machine_State == MACHINE_STATE_STOP))
 3829                             		.loc 1 1132 0
 3830 0065 8F 00 00                		mov	a, !_Leaf_No1_State
 3831 0068 9D F0                   		mov	r8, a
 3832 006a 4A F0 01                		cmp	r8, #1
 3833 006d 61 F8                   		 sknz
 3834 006f EC 90 00 00             		 br	!!.L271
 3835                             		.loc 1 1132 0 is_stmt 0 discriminator 1
 3836 0073 8F 00 00                		mov	a, !_Machine_State
 3837 0076 9D F0                   		mov	r8, a
 3838 0078 D4 F0                   		cmp0	r8
 3839 007a 61 E8                   		 skz
 3840 007c EC 90 00 00             		 br	!!.L271
 3841                             	.LBB97:
1133:../DGC_A230_Functions/DGC_A230_Normal_Mode.c **** 		{
1134:../DGC_A230_Functions/DGC_A230_Normal_Mode.c **** 			Pre_flash_Time = CFG_parameter.Pre_Flashing;
 3842                             		.loc 1 1134 0 is_stmt 1
 3843 0080 8F 00 00                		mov	a, !_CFG_parameter+52
 3844 0083 9D F0                   		mov	r8, a
 3845 0085 9F 00 00                		mov	!_Pre_flash_Time, a
1135:../DGC_A230_Functions/DGC_A230_Normal_Mode.c **** 			__Do_Close_Gate_Motor1();
 3846                             		.loc 1 1135 0
 3847 0088 FC 00 00 00             		call	!!%code(___Do_Close_Gate_Motor1)
1136:../DGC_A230_Functions/DGC_A230_Normal_Mode.c **** 			__Do_Close_Gate_Motor2();
 3848                             		.loc 1 1136 0
 3849 008c FC 00 00 00             		call	!!%code(___Do_Close_Gate_Motor2)
 3850                             	.L271:
 3851                             	.LBE97:
1137:../DGC_A230_Functions/DGC_A230_Normal_Mode.c **** 		}
1138:../DGC_A230_Functions/DGC_A230_Normal_Mode.c **** 	}
1139:../DGC_A230_Functions/DGC_A230_Normal_Mode.c **** }
 3852                             		.loc 1 1139 0
 3853 0090 D7                      		ret
 3854                             	.LFE13:
 3856                             		.section	.text.Ext_Clock_Open_Command_Process,"ax",@progbits
 3857                             		.global	_Ext_Clock_Open_Command_Process
 3859                             	_Ext_Clock_Open_Command_Process:
 3860                             	.LFB14:
1140:../DGC_A230_Functions/DGC_A230_Normal_Mode.c **** 
1141:../DGC_A230_Functions/DGC_A230_Normal_Mode.c **** void Ext_Clock_Open_Command_Process ()
1142:../DGC_A230_Functions/DGC_A230_Normal_Mode.c **** {
 3861                             		.loc 1 1142 0
 3862                             		; start of function
 3863                             		; outgoing: 2 bytes
 3864                             		; uses ES register
 3865 0000 20 02                   		subw	sp, #2
 3866                             	.LCFI10:
1143:../DGC_A230_Functions/DGC_A230_Normal_Mode.c **** 	switch(Machine_State)
 3867                             		.loc 1 1143 0
 3868 0002 8F 00 00                		mov	a, !_Machine_State
 3869 0005 9D F0                   		mov	r8, a
 3870 0007 F4 F1                   		clrb	r9
 3871 0009 AD F0                   		movw	ax, r8
 3872 000b 44 02 00                		cmpw	ax, #2
 3873 000e 61 F8                   		 sknz
 3874 0010 EC E8 00 00             		 br	!!.L277
 3875 0014 AD F0                   		movw	ax, r8
 3876 0016 44 02 00                		cmpw	ax, #2
 3877 0019 71 FF                   		 xor1	CY, a.7
 3878 001b 61 F3                   		 sknh
 3879 001d EC 3B 00 00             		 br	!!.L278
 3880 0021 AD F0                   		movw	ax, r8
 3881 0023 44 00 00                		cmpw	ax, #0
 3882 0026 61 F8                   		 sknz
 3883 0028 EC 55 00 00             		 br	!!.L279
 3884 002c AD F0                   		movw	ax, r8
 3885 002e 44 01 00                		cmpw	ax, #1
 3886 0031 61 F8                   		 sknz
 3887 0033 EC 73 01 00             		 br	!!.L291
1144:../DGC_A230_Functions/DGC_A230_Normal_Mode.c **** 	{
1145:../DGC_A230_Functions/DGC_A230_Normal_Mode.c **** 		case MACHINE_STATE_STOP:
1146:../DGC_A230_Functions/DGC_A230_Normal_Mode.c **** 		{
1147:../DGC_A230_Functions/DGC_A230_Normal_Mode.c **** 			if (Leaf_No1_State == GATE_STATE_CLOSED) // Step OPen
1148:../DGC_A230_Functions/DGC_A230_Normal_Mode.c **** 			{
1149:../DGC_A230_Functions/DGC_A230_Normal_Mode.c **** 				if (!((FT1 && (CFG_parameter.Photocell_FT1_Mode_Closed == 0x00)) || (FT2 && (CFG_parameter.Phot
1150:../DGC_A230_Functions/DGC_A230_Normal_Mode.c **** 				{
1151:../DGC_A230_Functions/DGC_A230_Normal_Mode.c **** 					Pre_flash_Time = CFG_parameter.Pre_Flashing;
1152:../DGC_A230_Functions/DGC_A230_Normal_Mode.c **** 					__Do_Open_Gate_Motor1();
1153:../DGC_A230_Functions/DGC_A230_Normal_Mode.c **** 					__Do_Open_Gate_Motor2();
1154:../DGC_A230_Functions/DGC_A230_Normal_Mode.c **** 				}
1155:../DGC_A230_Functions/DGC_A230_Normal_Mode.c **** 			}
1156:../DGC_A230_Functions/DGC_A230_Normal_Mode.c **** 			else if (Leaf_No1_State != GATE_STATE_OPENED)
1157:../DGC_A230_Functions/DGC_A230_Normal_Mode.c **** 			{
1158:../DGC_A230_Functions/DGC_A230_Normal_Mode.c **** 				Pre_flash_Time = CFG_parameter.Pre_Flashing;
1159:../DGC_A230_Functions/DGC_A230_Normal_Mode.c **** 				__Do_Open_Gate_Motor1();
1160:../DGC_A230_Functions/DGC_A230_Normal_Mode.c **** 				__Do_Open_Gate_Motor2();
1161:../DGC_A230_Functions/DGC_A230_Normal_Mode.c **** 			}
1162:../DGC_A230_Functions/DGC_A230_Normal_Mode.c **** 		} break;
1163:../DGC_A230_Functions/DGC_A230_Normal_Mode.c **** 
1164:../DGC_A230_Functions/DGC_A230_Normal_Mode.c **** 		case MACHINE_STATE_NORMAL_OPENING:
1165:../DGC_A230_Functions/DGC_A230_Normal_Mode.c **** 		{
1166:../DGC_A230_Functions/DGC_A230_Normal_Mode.c **** 			// Do nothing
1167:../DGC_A230_Functions/DGC_A230_Normal_Mode.c **** 		} break;
1168:../DGC_A230_Functions/DGC_A230_Normal_Mode.c **** 
1169:../DGC_A230_Functions/DGC_A230_Normal_Mode.c **** 		case MACHINE_STATE_NORMAL_CLOSING:
1170:../DGC_A230_Functions/DGC_A230_Normal_Mode.c **** 		{
1171:../DGC_A230_Functions/DGC_A230_Normal_Mode.c **** 			Leaf_No1_State = GATE_STATE_CLOSING_PAUSE;
1172:../DGC_A230_Functions/DGC_A230_Normal_Mode.c **** 			Leaf_No2_State = GATE_STATE_CLOSING_PAUSE;
1173:../DGC_A230_Functions/DGC_A230_Normal_Mode.c **** 			if (CFG_parameter.Reverse_Command_Enable_Braking == 0x01)
1174:../DGC_A230_Functions/DGC_A230_Normal_Mode.c **** 			{
1175:../DGC_A230_Functions/DGC_A230_Normal_Mode.c **** 				if (CFG_parameter.Number_Of_Motors == 0x02)
1176:../DGC_A230_Functions/DGC_A230_Normal_Mode.c **** 					__Do_Brake_Motor_Type_2(CLOSE_MOVING_DIRECTION);
1177:../DGC_A230_Functions/DGC_A230_Normal_Mode.c **** 				else
1178:../DGC_A230_Functions/DGC_A230_Normal_Mode.c **** 					__Do_Brake_Motor_Type_1(CLOSE_MOVING_DIRECTION);
1179:../DGC_A230_Functions/DGC_A230_Normal_Mode.c **** 
1180:../DGC_A230_Functions/DGC_A230_Normal_Mode.c **** 			}
1181:../DGC_A230_Functions/DGC_A230_Normal_Mode.c **** 			__Do_Stop_Gate_Motor1(CLOSE_MOVING_DIRECTION);
1182:../DGC_A230_Functions/DGC_A230_Normal_Mode.c **** 			__Do_Stop_Gate_Motor2(CLOSE_MOVING_DIRECTION);
1183:../DGC_A230_Functions/DGC_A230_Normal_Mode.c **** 
1184:../DGC_A230_Functions/DGC_A230_Normal_Mode.c **** 			Pre_flash_Time = 0x00;
1185:../DGC_A230_Functions/DGC_A230_Normal_Mode.c **** 			__Do_Open_Gate_Motor1();
1186:../DGC_A230_Functions/DGC_A230_Normal_Mode.c **** 			__Do_Open_Gate_Motor2();
1187:../DGC_A230_Functions/DGC_A230_Normal_Mode.c **** 
1188:../DGC_A230_Functions/DGC_A230_Normal_Mode.c **** 		} break;
1189:../DGC_A230_Functions/DGC_A230_Normal_Mode.c **** 
1190:../DGC_A230_Functions/DGC_A230_Normal_Mode.c **** 		case MACHINE_STATE_PARTIAL_OPENING:
1191:../DGC_A230_Functions/DGC_A230_Normal_Mode.c **** 		{
1192:../DGC_A230_Functions/DGC_A230_Normal_Mode.c **** 			Leaf_No1_State = GATE_STATE_PATIAL_OPENING_PAUSE;
1193:../DGC_A230_Functions/DGC_A230_Normal_Mode.c **** 			__Do_Partial_Stop_Gate(OPEN_MOVING_DIRECTION);
1194:../DGC_A230_Functions/DGC_A230_Normal_Mode.c **** 
1195:../DGC_A230_Functions/DGC_A230_Normal_Mode.c **** 			Pre_flash_Time = 0x00;
1196:../DGC_A230_Functions/DGC_A230_Normal_Mode.c **** 			__Do_Open_Gate_Motor1();
1197:../DGC_A230_Functions/DGC_A230_Normal_Mode.c **** 			__Do_Open_Gate_Motor2();
1198:../DGC_A230_Functions/DGC_A230_Normal_Mode.c **** 		} break;
1199:../DGC_A230_Functions/DGC_A230_Normal_Mode.c **** 
1200:../DGC_A230_Functions/DGC_A230_Normal_Mode.c **** 		case MACHINE_STATE_PARTIAL_CLOSING:
1201:../DGC_A230_Functions/DGC_A230_Normal_Mode.c **** 		{
1202:../DGC_A230_Functions/DGC_A230_Normal_Mode.c **** 			Leaf_No1_State = GATE_STATE_CLOSING_PAUSE;
1203:../DGC_A230_Functions/DGC_A230_Normal_Mode.c **** 			__Do_Partial_Stop_Gate(CLOSE_MOVING_DIRECTION);
1204:../DGC_A230_Functions/DGC_A230_Normal_Mode.c **** 
1205:../DGC_A230_Functions/DGC_A230_Normal_Mode.c **** 			Pre_flash_Time = 0x00;
1206:../DGC_A230_Functions/DGC_A230_Normal_Mode.c **** 			__Do_Open_Gate_Motor1();
1207:../DGC_A230_Functions/DGC_A230_Normal_Mode.c **** 			__Do_Open_Gate_Motor2();
1208:../DGC_A230_Functions/DGC_A230_Normal_Mode.c **** 		} break;
1209:../DGC_A230_Functions/DGC_A230_Normal_Mode.c **** 
1210:../DGC_A230_Functions/DGC_A230_Normal_Mode.c **** 		default: break;
 3888                             		.loc 1 1210 0
 3889 0037 EC 74 01 00             		br	!!.L275
 3890                             	.L278:
1143:../DGC_A230_Functions/DGC_A230_Normal_Mode.c **** 	switch(Machine_State)
 3891                             		.loc 1 1143 0
 3892 003b AD F0                   		movw	ax, r8
 3893 003d 44 03 00                		cmpw	ax, #3
 3894 0040 61 F8                   		 sknz
 3895 0042 EC 3D 01 00             		 br	!!.L281
 3896 0046 AD F0                   		movw	ax, r8
 3897 0048 44 04 00                		cmpw	ax, #4
 3898 004b 61 F8                   		 sknz
 3899 004d EC 58 01 00             		 br	!!.L282
 3900                             		.loc 1 1210 0
 3901 0051 EC 74 01 00             		br	!!.L275
 3902                             	.L279:
1147:../DGC_A230_Functions/DGC_A230_Normal_Mode.c **** 			{
 3903                             		.loc 1 1147 0
 3904 0055 8F 00 00                		mov	a, !_Leaf_No1_State
 3905 0058 9D F0                   		mov	r8, a
 3906 005a 4A F0 01                		cmp	r8, #1
 3907 005d 61 E8                   		 skz
 3908 005f EC C2 00 00             		 br	!!.L283
1149:../DGC_A230_Functions/DGC_A230_Normal_Mode.c **** 				{
 3909                             		.loc 1 1149 0
 3910 0063 C9 F0 07 FF             		movw	r8, #-249
 3911 0067 AD F0                   		movw	ax, r8
 3912 0069 BD F2                   		movw	r10, ax
 3913 006b FA F2                   		movw	hl, r10
 3914 006d 8B                      		mov	a, [hl]
 3915 006e 9D F0                   		mov	r8, a
 3916 0070 31 1A                   		shr	a, 1
 3917 0072 9D F0                   		mov	r8, a
 3918 0074 5A F0 01                		and	r8, #1
 3919 0077 61 F8                   		sknz
 3920 0079 EC 8A 00 00             		 br	!!.L284
 3921                             		 # zero-comparison eliminated
1149:../DGC_A230_Functions/DGC_A230_Normal_Mode.c **** 				{
 3922                             		.loc 1 1149 0 is_stmt 0 discriminator 2
 3923 007d 8F 00 00                		mov	a, !_CFG_parameter+82
 3924 0080 9D F0                   		mov	r8, a
 3925 0082 D4 F0                   		cmp0	r8
 3926 0084 61 F8                   		 sknz
 3927 0086 EC E4 00 00             		 br	!!.L287
 3928                             	.L284:
1149:../DGC_A230_Functions/DGC_A230_Normal_Mode.c **** 				{
 3929                             		.loc 1 1149 0 discriminator 3
 3930 008a C9 F0 07 FF             		movw	r8, #-249
 3931 008e AD F0                   		movw	ax, r8
 3932 0090 BD F2                   		movw	r10, ax
 3933 0092 EA F2                   		movw	de, r10
 3934 0094 89                      		mov	a, [de]
 3935 0095 5C 01                   		and	a, #1
 3936 0097 9D F0                   		mov	r8, a
 3937 0099 D4 F0                   		cmp0	r8
 3938 009b 61 F8                   		 sknz
 3939 009d EC AE 00 00             		 br	!!.L286
1149:../DGC_A230_Functions/DGC_A230_Normal_Mode.c **** 				{
 3940                             		.loc 1 1149 0 discriminator 4
 3941 00a1 8F 00 00                		mov	a, !_CFG_parameter+85
 3942 00a4 9D F0                   		mov	r8, a
 3943 00a6 D4 F0                   		cmp0	r8
 3944 00a8 61 F8                   		 sknz
 3945 00aa EC E4 00 00             		 br	!!.L287
 3946                             	.L286:
 3947                             	.LBB98:
1151:../DGC_A230_Functions/DGC_A230_Normal_Mode.c **** 					__Do_Open_Gate_Motor1();
 3948                             		.loc 1 1151 0 is_stmt 1
 3949 00ae 8F 00 00                		mov	a, !_CFG_parameter+52
 3950 00b1 9D F0                   		mov	r8, a
 3951 00b3 9F 00 00                		mov	!_Pre_flash_Time, a
1152:../DGC_A230_Functions/DGC_A230_Normal_Mode.c **** 					__Do_Open_Gate_Motor2();
 3952                             		.loc 1 1152 0
 3953 00b6 FC 00 00 00             		call	!!%code(___Do_Open_Gate_Motor1)
1153:../DGC_A230_Functions/DGC_A230_Normal_Mode.c **** 				}
 3954                             		.loc 1 1153 0
 3955 00ba FC 00 00 00             		call	!!%code(___Do_Open_Gate_Motor2)
 3956                             	.LBE98:
1162:../DGC_A230_Functions/DGC_A230_Normal_Mode.c **** 
 3957                             		.loc 1 1162 0
 3958 00be EC 74 01 00             		br	!!.L275
 3959                             	.L283:
1156:../DGC_A230_Functions/DGC_A230_Normal_Mode.c **** 			{
 3960                             		.loc 1 1156 0
 3961 00c2 8F 00 00                		mov	a, !_Leaf_No1_State
 3962 00c5 9D F0                   		mov	r8, a
 3963 00c7 4A F0 03                		cmp	r8, #3
 3964 00ca 61 F8                   		 sknz
 3965 00cc EC E4 00 00             		 br	!!.L287
 3966                             	.LBB99:
1158:../DGC_A230_Functions/DGC_A230_Normal_Mode.c **** 				__Do_Open_Gate_Motor1();
 3967                             		.loc 1 1158 0
 3968 00d0 8F 00 00                		mov	a, !_CFG_parameter+52
 3969 00d3 9D F0                   		mov	r8, a
 3970 00d5 9F 00 00                		mov	!_Pre_flash_Time, a
1159:../DGC_A230_Functions/DGC_A230_Normal_Mode.c **** 				__Do_Open_Gate_Motor2();
 3971                             		.loc 1 1159 0
 3972 00d8 FC 00 00 00             		call	!!%code(___Do_Open_Gate_Motor1)
1160:../DGC_A230_Functions/DGC_A230_Normal_Mode.c **** 			}
 3973                             		.loc 1 1160 0
 3974 00dc FC 00 00 00             		call	!!%code(___Do_Open_Gate_Motor2)
 3975                             	.LBE99:
1162:../DGC_A230_Functions/DGC_A230_Normal_Mode.c **** 
 3976                             		.loc 1 1162 0
 3977 00e0 EC 74 01 00             		br	!!.L275
 3978                             	.L287:
1162:../DGC_A230_Functions/DGC_A230_Normal_Mode.c **** 
 3979                             		.loc 1 1162 0 is_stmt 0 discriminator 1
 3980 00e4 EC 74 01 00             		br	!!.L275
 3981                             	.L277:
 3982                             	.LBB100:
1171:../DGC_A230_Functions/DGC_A230_Normal_Mode.c **** 			Leaf_No2_State = GATE_STATE_CLOSING_PAUSE;
 3983                             		.loc 1 1171 0 is_stmt 1
 3984 00e8 51 07                   		mov	a, #7
 3985 00ea 9F 00 00                		mov	!_Leaf_No1_State, a
1172:../DGC_A230_Functions/DGC_A230_Normal_Mode.c **** 			if (CFG_parameter.Reverse_Command_Enable_Braking == 0x01)
 3986                             		.loc 1 1172 0
 3987 00ed 51 07                   		mov	a, #7
 3988 00ef 9F 00 00                		mov	!_Leaf_No2_State, a
1173:../DGC_A230_Functions/DGC_A230_Normal_Mode.c **** 			{
 3989                             		.loc 1 1173 0
 3990 00f2 8F 00 00                		mov	a, !_CFG_parameter+90
 3991 00f5 9D F0                   		mov	r8, a
 3992 00f7 4A F0 01                		cmp	r8, #1
 3993 00fa 61 E8                   		 skz
 3994 00fc EC 20 01 00             		 br	!!.L289
 3995                             	.LBB101:
1175:../DGC_A230_Functions/DGC_A230_Normal_Mode.c **** 					__Do_Brake_Motor_Type_2(CLOSE_MOVING_DIRECTION);
 3996                             		.loc 1 1175 0
 3997 0100 8F 00 00                		mov	a, !_CFG_parameter+1
 3998 0103 9D F0                   		mov	r8, a
 3999 0105 4A F0 02                		cmp	r8, #2
 4000 0108 61 E8                   		 skz
 4001 010a EC 19 01 00             		 br	!!.L290
1176:../DGC_A230_Functions/DGC_A230_Normal_Mode.c **** 				else
 4002                             		.loc 1 1176 0
 4003 010e E6                      		onew	ax
 4004 010f B8 00                   		movw	[sp], ax
 4005 0111 FC 00 00 00             		call	!!%code(___Do_Brake_Motor_Type_2)
 4006 0115 EC 20 01 00             		br	!!.L289
 4007                             	.L290:
1178:../DGC_A230_Functions/DGC_A230_Normal_Mode.c **** 
 4008                             		.loc 1 1178 0
 4009 0119 E6                      		onew	ax
 4010 011a B8 00                   		movw	[sp], ax
 4011 011c FC 00 00 00             		call	!!%code(___Do_Brake_Motor_Type_1)
 4012                             	.L289:
 4013                             	.LBE101:
1181:../DGC_A230_Functions/DGC_A230_Normal_Mode.c **** 			__Do_Stop_Gate_Motor2(CLOSE_MOVING_DIRECTION);
 4014                             		.loc 1 1181 0
 4015 0120 E6                      		onew	ax
 4016 0121 B8 00                   		movw	[sp], ax
 4017 0123 FC 00 00 00             		call	!!%code(___Do_Stop_Gate_Motor1)
1182:../DGC_A230_Functions/DGC_A230_Normal_Mode.c **** 
 4018                             		.loc 1 1182 0
 4019 0127 E6                      		onew	ax
 4020 0128 B8 00                   		movw	[sp], ax
 4021 012a FC 00 00 00             		call	!!%code(___Do_Stop_Gate_Motor2)
1184:../DGC_A230_Functions/DGC_A230_Normal_Mode.c **** 			__Do_Open_Gate_Motor1();
 4022                             		.loc 1 1184 0
 4023 012e F5 00 00                		clrb	!_Pre_flash_Time
1185:../DGC_A230_Functions/DGC_A230_Normal_Mode.c **** 			__Do_Open_Gate_Motor2();
 4024                             		.loc 1 1185 0
 4025 0131 FC 00 00 00             		call	!!%code(___Do_Open_Gate_Motor1)
1186:../DGC_A230_Functions/DGC_A230_Normal_Mode.c **** 
 4026                             		.loc 1 1186 0
 4027 0135 FC 00 00 00             		call	!!%code(___Do_Open_Gate_Motor2)
 4028                             	.LBE100:
1188:../DGC_A230_Functions/DGC_A230_Normal_Mode.c **** 
 4029                             		.loc 1 1188 0
 4030 0139 EC 74 01 00             		br	!!.L275
 4031                             	.L281:
 4032                             	.LBB102:
1192:../DGC_A230_Functions/DGC_A230_Normal_Mode.c **** 			__Do_Partial_Stop_Gate(OPEN_MOVING_DIRECTION);
 4033                             		.loc 1 1192 0
 4034 013d 51 08                   		mov	a, #8
 4035 013f 9F 00 00                		mov	!_Leaf_No1_State, a
1193:../DGC_A230_Functions/DGC_A230_Normal_Mode.c **** 
 4036                             		.loc 1 1193 0
 4037 0142 F6                      		clrw	ax
 4038 0143 B8 00                   		movw	[sp], ax
 4039 0145 FC 00 00 00             		call	!!%code(___Do_Partial_Stop_Gate)
1195:../DGC_A230_Functions/DGC_A230_Normal_Mode.c **** 			__Do_Open_Gate_Motor1();
 4040                             		.loc 1 1195 0
 4041 0149 F5 00 00                		clrb	!_Pre_flash_Time
1196:../DGC_A230_Functions/DGC_A230_Normal_Mode.c **** 			__Do_Open_Gate_Motor2();
 4042                             		.loc 1 1196 0
 4043 014c FC 00 00 00             		call	!!%code(___Do_Open_Gate_Motor1)
1197:../DGC_A230_Functions/DGC_A230_Normal_Mode.c **** 		} break;
 4044                             		.loc 1 1197 0
 4045 0150 FC 00 00 00             		call	!!%code(___Do_Open_Gate_Motor2)
 4046                             	.LBE102:
1198:../DGC_A230_Functions/DGC_A230_Normal_Mode.c **** 
 4047                             		.loc 1 1198 0
 4048 0154 EC 74 01 00             		br	!!.L275
 4049                             	.L282:
 4050                             	.LBB103:
1202:../DGC_A230_Functions/DGC_A230_Normal_Mode.c **** 			__Do_Partial_Stop_Gate(CLOSE_MOVING_DIRECTION);
 4051                             		.loc 1 1202 0
 4052 0158 51 07                   		mov	a, #7
 4053 015a 9F 00 00                		mov	!_Leaf_No1_State, a
1203:../DGC_A230_Functions/DGC_A230_Normal_Mode.c **** 
 4054                             		.loc 1 1203 0
 4055 015d E6                      		onew	ax
 4056 015e B8 00                   		movw	[sp], ax
 4057 0160 FC 00 00 00             		call	!!%code(___Do_Partial_Stop_Gate)
1205:../DGC_A230_Functions/DGC_A230_Normal_Mode.c **** 			__Do_Open_Gate_Motor1();
 4058                             		.loc 1 1205 0
 4059 0164 F5 00 00                		clrb	!_Pre_flash_Time
1206:../DGC_A230_Functions/DGC_A230_Normal_Mode.c **** 			__Do_Open_Gate_Motor2();
 4060                             		.loc 1 1206 0
 4061 0167 FC 00 00 00             		call	!!%code(___Do_Open_Gate_Motor1)
1207:../DGC_A230_Functions/DGC_A230_Normal_Mode.c **** 		} break;
 4062                             		.loc 1 1207 0
 4063 016b FC 00 00 00             		call	!!%code(___Do_Open_Gate_Motor2)
 4064                             	.LBE103:
1208:../DGC_A230_Functions/DGC_A230_Normal_Mode.c **** 
 4065                             		.loc 1 1208 0
 4066 016f EC 74 01 00             		br	!!.L275
 4067                             	.L291:
1167:../DGC_A230_Functions/DGC_A230_Normal_Mode.c **** 
 4068                             		.loc 1 1167 0
 4069 0173 00                      		nop
 4070                             	.L275:
1211:../DGC_A230_Functions/DGC_A230_Normal_Mode.c **** 	}
1212:../DGC_A230_Functions/DGC_A230_Normal_Mode.c **** }
 4071                             		.loc 1 1212 0
 4072 0174 10 02                   		addw	sp, #2
 4073 0176 D7                      		ret
 4074                             	.LFE14:
 4076                             		.section	.text.Ext_Clock_Close_Command_Process,"ax",@progbits
 4077                             		.global	_Ext_Clock_Close_Command_Process
 4079                             	_Ext_Clock_Close_Command_Process:
 4080                             	.LFB15:
1213:../DGC_A230_Functions/DGC_A230_Normal_Mode.c **** 
1214:../DGC_A230_Functions/DGC_A230_Normal_Mode.c **** void Ext_Clock_Close_Command_Process ()
1215:../DGC_A230_Functions/DGC_A230_Normal_Mode.c **** {
 4081                             		.loc 1 1215 0
 4082                             		; start of function
 4083                             		; outgoing: 2 bytes
 4084                             		; uses ES register
 4085 0000 20 02                   		subw	sp, #2
 4086                             	.LCFI11:
1216:../DGC_A230_Functions/DGC_A230_Normal_Mode.c **** 	switch(Machine_State)
 4087                             		.loc 1 1216 0
 4088 0002 8F 00 00                		mov	a, !_Machine_State
 4089 0005 9D F0                   		mov	r8, a
 4090 0007 F4 F1                   		clrb	r9
 4091 0009 AD F0                   		movw	ax, r8
 4092 000b 44 02 00                		cmpw	ax, #2
 4093 000e 61 F8                   		 sknz
 4094 0010 EC D9 00 00             		 br	!!.L303
 4095 0014 AD F0                   		movw	ax, r8
 4096 0016 44 02 00                		cmpw	ax, #2
 4097 0019 71 FF                   		 xor1	CY, a.7
 4098 001b 61 F3                   		 sknh
 4099 001d EC 3B 00 00             		 br	!!.L295
 4100 0021 AD F0                   		movw	ax, r8
 4101 0023 44 00 00                		cmpw	ax, #0
 4102 0026 61 F8                   		 sknz
 4103 0028 EC 55 00 00             		 br	!!.L296
 4104 002c AD F0                   		movw	ax, r8
 4105 002e 44 01 00                		cmpw	ax, #1
 4106 0031 61 F8                   		 sknz
 4107 0033 EC 69 00 00             		 br	!!.L297
1217:../DGC_A230_Functions/DGC_A230_Normal_Mode.c **** 	{
1218:../DGC_A230_Functions/DGC_A230_Normal_Mode.c **** 		case MACHINE_STATE_STOP:
1219:../DGC_A230_Functions/DGC_A230_Normal_Mode.c **** 		{
1220:../DGC_A230_Functions/DGC_A230_Normal_Mode.c **** 			Pre_flash_Time = CFG_parameter.Pre_Flashing;
1221:../DGC_A230_Functions/DGC_A230_Normal_Mode.c **** 			__Do_Close_Gate_Motor1();
1222:../DGC_A230_Functions/DGC_A230_Normal_Mode.c **** 			__Do_Close_Gate_Motor2();
1223:../DGC_A230_Functions/DGC_A230_Normal_Mode.c **** 		} break;
1224:../DGC_A230_Functions/DGC_A230_Normal_Mode.c **** 
1225:../DGC_A230_Functions/DGC_A230_Normal_Mode.c **** 		case MACHINE_STATE_NORMAL_OPENING:
1226:../DGC_A230_Functions/DGC_A230_Normal_Mode.c **** 		{
1227:../DGC_A230_Functions/DGC_A230_Normal_Mode.c **** 			Leaf_No1_State = GATE_STATE_OPENING_PAUSE;
1228:../DGC_A230_Functions/DGC_A230_Normal_Mode.c **** 			Leaf_No2_State = GATE_STATE_OPENING_PAUSE;
1229:../DGC_A230_Functions/DGC_A230_Normal_Mode.c **** 			if (CFG_parameter.Reverse_Command_Enable_Braking == 0x01)
1230:../DGC_A230_Functions/DGC_A230_Normal_Mode.c **** 			{
1231:../DGC_A230_Functions/DGC_A230_Normal_Mode.c **** 				if (CFG_parameter.Number_Of_Motors == 0x02)
1232:../DGC_A230_Functions/DGC_A230_Normal_Mode.c **** 					__Do_Brake_Motor_Type_2(OPEN_MOVING_DIRECTION);
1233:../DGC_A230_Functions/DGC_A230_Normal_Mode.c **** 				else
1234:../DGC_A230_Functions/DGC_A230_Normal_Mode.c **** 					__Do_Brake_Motor_Type_1(OPEN_MOVING_DIRECTION);
1235:../DGC_A230_Functions/DGC_A230_Normal_Mode.c **** 
1236:../DGC_A230_Functions/DGC_A230_Normal_Mode.c **** 			}
1237:../DGC_A230_Functions/DGC_A230_Normal_Mode.c **** 			__Do_Stop_Gate_Motor1(OPEN_MOVING_DIRECTION);
1238:../DGC_A230_Functions/DGC_A230_Normal_Mode.c **** 			__Do_Stop_Gate_Motor2(OPEN_MOVING_DIRECTION);
1239:../DGC_A230_Functions/DGC_A230_Normal_Mode.c **** 
1240:../DGC_A230_Functions/DGC_A230_Normal_Mode.c **** 			Pre_flash_Time = 0x00;
1241:../DGC_A230_Functions/DGC_A230_Normal_Mode.c **** 			__Do_Close_Gate_Motor1();
1242:../DGC_A230_Functions/DGC_A230_Normal_Mode.c **** 			__Do_Close_Gate_Motor2();
1243:../DGC_A230_Functions/DGC_A230_Normal_Mode.c **** 		} break;
1244:../DGC_A230_Functions/DGC_A230_Normal_Mode.c **** 
1245:../DGC_A230_Functions/DGC_A230_Normal_Mode.c **** 		case MACHINE_STATE_NORMAL_CLOSING:
1246:../DGC_A230_Functions/DGC_A230_Normal_Mode.c **** 		{
1247:../DGC_A230_Functions/DGC_A230_Normal_Mode.c **** 			// Do nothing
1248:../DGC_A230_Functions/DGC_A230_Normal_Mode.c **** 		} break;
1249:../DGC_A230_Functions/DGC_A230_Normal_Mode.c **** 
1250:../DGC_A230_Functions/DGC_A230_Normal_Mode.c **** 		case MACHINE_STATE_PARTIAL_OPENING:
1251:../DGC_A230_Functions/DGC_A230_Normal_Mode.c **** 		{
1252:../DGC_A230_Functions/DGC_A230_Normal_Mode.c **** 			Leaf_No1_State = GATE_STATE_PATIAL_OPENING_PAUSE;
1253:../DGC_A230_Functions/DGC_A230_Normal_Mode.c **** 			__Do_Partial_Stop_Gate(OPEN_MOVING_DIRECTION);
1254:../DGC_A230_Functions/DGC_A230_Normal_Mode.c **** 
1255:../DGC_A230_Functions/DGC_A230_Normal_Mode.c **** 			Pre_flash_Time = 0x00;
1256:../DGC_A230_Functions/DGC_A230_Normal_Mode.c **** 			__Do_Close_Gate_Motor1();
1257:../DGC_A230_Functions/DGC_A230_Normal_Mode.c **** 			__Do_Close_Gate_Motor2();
1258:../DGC_A230_Functions/DGC_A230_Normal_Mode.c **** 		} break;
1259:../DGC_A230_Functions/DGC_A230_Normal_Mode.c **** 
1260:../DGC_A230_Functions/DGC_A230_Normal_Mode.c **** 		case MACHINE_STATE_PARTIAL_CLOSING:
1261:../DGC_A230_Functions/DGC_A230_Normal_Mode.c **** 		{
1262:../DGC_A230_Functions/DGC_A230_Normal_Mode.c **** 		} break;
1263:../DGC_A230_Functions/DGC_A230_Normal_Mode.c **** 
1264:../DGC_A230_Functions/DGC_A230_Normal_Mode.c **** 		default:
1265:../DGC_A230_Functions/DGC_A230_Normal_Mode.c **** 		{
1266:../DGC_A230_Functions/DGC_A230_Normal_Mode.c **** 			// Do nothing
1267:../DGC_A230_Functions/DGC_A230_Normal_Mode.c **** 		} break;
 4108                             		.loc 1 1267 0
 4109 0037 EC DF 00 00             		br	!!.L292
 4110                             	.L295:
1216:../DGC_A230_Functions/DGC_A230_Normal_Mode.c **** 	switch(Machine_State)
 4111                             		.loc 1 1216 0
 4112 003b AD F0                   		movw	ax, r8
 4113 003d 44 03 00                		cmpw	ax, #3
 4114 0040 61 F8                   		 sknz
 4115 0042 EC BE 00 00             		 br	!!.L298
 4116 0046 AD F0                   		movw	ax, r8
 4117 0048 44 04 00                		cmpw	ax, #4
 4118 004b 61 F8                   		 sknz
 4119 004d EC DE 00 00             		 br	!!.L304
 4120                             		.loc 1 1267 0
 4121 0051 EC DF 00 00             		br	!!.L292
 4122                             	.L296:
 4123                             	.LBB104:
1220:../DGC_A230_Functions/DGC_A230_Normal_Mode.c **** 			__Do_Close_Gate_Motor1();
 4124                             		.loc 1 1220 0
 4125 0055 8F 00 00                		mov	a, !_CFG_parameter+52
 4126 0058 9D F0                   		mov	r8, a
 4127 005a 9F 00 00                		mov	!_Pre_flash_Time, a
1221:../DGC_A230_Functions/DGC_A230_Normal_Mode.c **** 			__Do_Close_Gate_Motor2();
 4128                             		.loc 1 1221 0
 4129 005d FC 00 00 00             		call	!!%code(___Do_Close_Gate_Motor1)
1222:../DGC_A230_Functions/DGC_A230_Normal_Mode.c **** 		} break;
 4130                             		.loc 1 1222 0
 4131 0061 FC 00 00 00             		call	!!%code(___Do_Close_Gate_Motor2)
 4132                             	.LBE104:
1223:../DGC_A230_Functions/DGC_A230_Normal_Mode.c **** 
 4133                             		.loc 1 1223 0
 4134 0065 EC DF 00 00             		br	!!.L292
 4135                             	.L297:
 4136                             	.LBB105:
1227:../DGC_A230_Functions/DGC_A230_Normal_Mode.c **** 			Leaf_No2_State = GATE_STATE_OPENING_PAUSE;
 4137                             		.loc 1 1227 0
 4138 0069 51 06                   		mov	a, #6
 4139 006b 9F 00 00                		mov	!_Leaf_No1_State, a
1228:../DGC_A230_Functions/DGC_A230_Normal_Mode.c **** 			if (CFG_parameter.Reverse_Command_Enable_Braking == 0x01)
 4140                             		.loc 1 1228 0
 4141 006e 51 06                   		mov	a, #6
 4142 0070 9F 00 00                		mov	!_Leaf_No2_State, a
1229:../DGC_A230_Functions/DGC_A230_Normal_Mode.c **** 			{
 4143                             		.loc 1 1229 0
 4144 0073 8F 00 00                		mov	a, !_CFG_parameter+90
 4145 0076 9D F0                   		mov	r8, a
 4146 0078 4A F0 01                		cmp	r8, #1
 4147 007b 61 E8                   		 skz
 4148 007d EC A1 00 00             		 br	!!.L301
 4149                             	.LBB106:
1231:../DGC_A230_Functions/DGC_A230_Normal_Mode.c **** 					__Do_Brake_Motor_Type_2(OPEN_MOVING_DIRECTION);
 4150                             		.loc 1 1231 0
 4151 0081 8F 00 00                		mov	a, !_CFG_parameter+1
 4152 0084 9D F0                   		mov	r8, a
 4153 0086 4A F0 02                		cmp	r8, #2
 4154 0089 61 E8                   		 skz
 4155 008b EC 9A 00 00             		 br	!!.L302
1232:../DGC_A230_Functions/DGC_A230_Normal_Mode.c **** 				else
 4156                             		.loc 1 1232 0
 4157 008f F6                      		clrw	ax
 4158 0090 B8 00                   		movw	[sp], ax
 4159 0092 FC 00 00 00             		call	!!%code(___Do_Brake_Motor_Type_2)
 4160 0096 EC A1 00 00             		br	!!.L301
 4161                             	.L302:
1234:../DGC_A230_Functions/DGC_A230_Normal_Mode.c **** 
 4162                             		.loc 1 1234 0
 4163 009a F6                      		clrw	ax
 4164 009b B8 00                   		movw	[sp], ax
 4165 009d FC 00 00 00             		call	!!%code(___Do_Brake_Motor_Type_1)
 4166                             	.L301:
 4167                             	.LBE106:
1237:../DGC_A230_Functions/DGC_A230_Normal_Mode.c **** 			__Do_Stop_Gate_Motor2(OPEN_MOVING_DIRECTION);
 4168                             		.loc 1 1237 0
 4169 00a1 F6                      		clrw	ax
 4170 00a2 B8 00                   		movw	[sp], ax
 4171 00a4 FC 00 00 00             		call	!!%code(___Do_Stop_Gate_Motor1)
1238:../DGC_A230_Functions/DGC_A230_Normal_Mode.c **** 
 4172                             		.loc 1 1238 0
 4173 00a8 F6                      		clrw	ax
 4174 00a9 B8 00                   		movw	[sp], ax
 4175 00ab FC 00 00 00             		call	!!%code(___Do_Stop_Gate_Motor2)
1240:../DGC_A230_Functions/DGC_A230_Normal_Mode.c **** 			__Do_Close_Gate_Motor1();
 4176                             		.loc 1 1240 0
 4177 00af F5 00 00                		clrb	!_Pre_flash_Time
1241:../DGC_A230_Functions/DGC_A230_Normal_Mode.c **** 			__Do_Close_Gate_Motor2();
 4178                             		.loc 1 1241 0
 4179 00b2 FC 00 00 00             		call	!!%code(___Do_Close_Gate_Motor1)
1242:../DGC_A230_Functions/DGC_A230_Normal_Mode.c **** 		} break;
 4180                             		.loc 1 1242 0
 4181 00b6 FC 00 00 00             		call	!!%code(___Do_Close_Gate_Motor2)
 4182                             	.LBE105:
1243:../DGC_A230_Functions/DGC_A230_Normal_Mode.c **** 
 4183                             		.loc 1 1243 0
 4184 00ba EC DF 00 00             		br	!!.L292
 4185                             	.L298:
 4186                             	.LBB107:
1252:../DGC_A230_Functions/DGC_A230_Normal_Mode.c **** 			__Do_Partial_Stop_Gate(OPEN_MOVING_DIRECTION);
 4187                             		.loc 1 1252 0
 4188 00be 51 08                   		mov	a, #8
 4189 00c0 9F 00 00                		mov	!_Leaf_No1_State, a
1253:../DGC_A230_Functions/DGC_A230_Normal_Mode.c **** 
 4190                             		.loc 1 1253 0
 4191 00c3 F6                      		clrw	ax
 4192 00c4 B8 00                   		movw	[sp], ax
 4193 00c6 FC 00 00 00             		call	!!%code(___Do_Partial_Stop_Gate)
1255:../DGC_A230_Functions/DGC_A230_Normal_Mode.c **** 			__Do_Close_Gate_Motor1();
 4194                             		.loc 1 1255 0
 4195 00ca F5 00 00                		clrb	!_Pre_flash_Time
1256:../DGC_A230_Functions/DGC_A230_Normal_Mode.c **** 			__Do_Close_Gate_Motor2();
 4196                             		.loc 1 1256 0
 4197 00cd FC 00 00 00             		call	!!%code(___Do_Close_Gate_Motor1)
1257:../DGC_A230_Functions/DGC_A230_Normal_Mode.c **** 		} break;
 4198                             		.loc 1 1257 0
 4199 00d1 FC 00 00 00             		call	!!%code(___Do_Close_Gate_Motor2)
 4200                             	.LBE107:
1258:../DGC_A230_Functions/DGC_A230_Normal_Mode.c **** 
 4201                             		.loc 1 1258 0
 4202 00d5 EC DF 00 00             		br	!!.L292
 4203                             	.L303:
1248:../DGC_A230_Functions/DGC_A230_Normal_Mode.c **** 
 4204                             		.loc 1 1248 0
 4205 00d9 00                      		nop
 4206 00da EC DF 00 00             		br	!!.L292
 4207                             	.L304:
1262:../DGC_A230_Functions/DGC_A230_Normal_Mode.c **** 
 4208                             		.loc 1 1262 0
 4209 00de 00                      		nop
 4210                             	.L292:
1268:../DGC_A230_Functions/DGC_A230_Normal_Mode.c **** 	}
1269:../DGC_A230_Functions/DGC_A230_Normal_Mode.c **** }
 4211                             		.loc 1 1269 0
 4212 00df 10 02                   		addw	sp, #2
 4213 00e1 D7                      		ret
 4214                             	.LFE15:
 4216                             		.section	.text.Photocell_FT1_Process,"ax",@progbits
 4217                             		.global	_Photocell_FT1_Process
 4219                             	_Photocell_FT1_Process:
 4220                             	.LFB16:
1270:../DGC_A230_Functions/DGC_A230_Normal_Mode.c **** 
1271:../DGC_A230_Functions/DGC_A230_Normal_Mode.c **** void Photocell_FT1_Process (void)
1272:../DGC_A230_Functions/DGC_A230_Normal_Mode.c **** {
 4221                             		.loc 1 1272 0
 4222                             		; start of function
 4223                             		; outgoing: 2 bytes
 4224                             		; uses ES register
 4225 0000 20 02                   		subw	sp, #2
 4226                             	.LCFI12:
1273:../DGC_A230_Functions/DGC_A230_Normal_Mode.c **** 	switch(Machine_State)
 4227                             		.loc 1 1273 0
 4228 0002 8F 00 00                		mov	a, !_Machine_State
 4229 0005 9D F0                   		mov	r8, a
 4230 0007 F4 F1                   		clrb	r9
 4231 0009 AD F0                   		movw	ax, r8
 4232 000b 44 02 00                		cmpw	ax, #2
 4233 000e 61 F8                   		 sknz
 4234 0010 EC A8 01 00             		 br	!!.L307
 4235 0014 AD F0                   		movw	ax, r8
 4236 0016 44 02 00                		cmpw	ax, #2
 4237 0019 71 FF                   		 xor1	CY, a.7
 4238 001b 61 F3                   		 sknh
 4239 001d EC 3B 00 00             		 br	!!.L308
 4240 0021 AD F0                   		movw	ax, r8
 4241 0023 44 00 00                		cmpw	ax, #0
 4242 0026 61 F8                   		 sknz
 4243 0028 EC 55 00 00             		 br	!!.L309
 4244 002c AD F0                   		movw	ax, r8
 4245 002e 44 01 00                		cmpw	ax, #1
 4246 0031 61 F8                   		 sknz
 4247 0033 EC C0 00 00             		 br	!!.L310
1274:../DGC_A230_Functions/DGC_A230_Normal_Mode.c **** 	{
1275:../DGC_A230_Functions/DGC_A230_Normal_Mode.c **** 		case MACHINE_STATE_STOP:
1276:../DGC_A230_Functions/DGC_A230_Normal_Mode.c **** 		{
1277:../DGC_A230_Functions/DGC_A230_Normal_Mode.c **** 			if ((Leaf_No1_State == GATE_STATE_CLOSED) && (CFG_parameter.Photocell_FT1_Mode_Closed == 0x02))
1278:../DGC_A230_Functions/DGC_A230_Normal_Mode.c **** 			{
1279:../DGC_A230_Functions/DGC_A230_Normal_Mode.c **** 				Pre_flash_Time = CFG_parameter.Pre_Flashing;
1280:../DGC_A230_Functions/DGC_A230_Normal_Mode.c **** 				__Do_Open_Gate_Motor1();
1281:../DGC_A230_Functions/DGC_A230_Normal_Mode.c **** 				__Do_Open_Gate_Motor2();
1282:../DGC_A230_Functions/DGC_A230_Normal_Mode.c **** 			}
1283:../DGC_A230_Functions/DGC_A230_Normal_Mode.c **** 			else if ((Leaf_No1_State != GATE_STATE_CLOSED) && (CFG_parameter.Close_Command_Enable_Photocell 
1284:../DGC_A230_Functions/DGC_A230_Normal_Mode.c **** 			{
1285:../DGC_A230_Functions/DGC_A230_Normal_Mode.c **** 				while(FT1);
1286:../DGC_A230_Functions/DGC_A230_Normal_Mode.c **** 				// When the photocell gate FT1 is crossed, a close command is sent 6 seconds later.
1287:../DGC_A230_Functions/DGC_A230_Normal_Mode.c **** 			}
1288:../DGC_A230_Functions/DGC_A230_Normal_Mode.c **** 		} break;
1289:../DGC_A230_Functions/DGC_A230_Normal_Mode.c **** 
1290:../DGC_A230_Functions/DGC_A230_Normal_Mode.c **** 		case MACHINE_STATE_NORMAL_OPENING:
1291:../DGC_A230_Functions/DGC_A230_Normal_Mode.c **** 		{
1292:../DGC_A230_Functions/DGC_A230_Normal_Mode.c **** 			if (CFG_parameter.Photocell_FT1_Mode_Opening != 0x00)
1293:../DGC_A230_Functions/DGC_A230_Normal_Mode.c **** 			{
1294:../DGC_A230_Functions/DGC_A230_Normal_Mode.c **** 				Leaf_No1_State = GATE_STATE_OPENING_PAUSE;
1295:../DGC_A230_Functions/DGC_A230_Normal_Mode.c **** 				Leaf_No2_State = GATE_STATE_OPENING_PAUSE;
1296:../DGC_A230_Functions/DGC_A230_Normal_Mode.c **** 				if (CFG_parameter.Photocell_Enable_Braking == 0x01)
1297:../DGC_A230_Functions/DGC_A230_Normal_Mode.c **** 				{
1298:../DGC_A230_Functions/DGC_A230_Normal_Mode.c **** 					if (CFG_parameter.Number_Of_Motors == 0x02)
1299:../DGC_A230_Functions/DGC_A230_Normal_Mode.c **** 						__Do_Brake_Motor_Type_2(OPEN_MOVING_DIRECTION);
1300:../DGC_A230_Functions/DGC_A230_Normal_Mode.c **** 					else
1301:../DGC_A230_Functions/DGC_A230_Normal_Mode.c **** 						__Do_Brake_Motor_Type_1(OPEN_MOVING_DIRECTION);
1302:../DGC_A230_Functions/DGC_A230_Normal_Mode.c **** 				}
1303:../DGC_A230_Functions/DGC_A230_Normal_Mode.c **** 				__Do_Stop_Gate_Motor1(OPEN_MOVING_DIRECTION);
1304:../DGC_A230_Functions/DGC_A230_Normal_Mode.c **** 				__Do_Stop_Gate_Motor2(OPEN_MOVING_DIRECTION);
1305:../DGC_A230_Functions/DGC_A230_Normal_Mode.c **** 
1306:../DGC_A230_Functions/DGC_A230_Normal_Mode.c **** 				if (CFG_parameter.Photocell_FT1_Mode_Opening > 0x02)
1307:../DGC_A230_Functions/DGC_A230_Normal_Mode.c **** 				{
1308:../DGC_A230_Functions/DGC_A230_Normal_Mode.c **** 					while(FT1);
1309:../DGC_A230_Functions/DGC_A230_Normal_Mode.c **** 					if (CFG_parameter.Photocell_FT1_Mode_Opening == 0x03)		// Temporary Stop
1310:../DGC_A230_Functions/DGC_A230_Normal_Mode.c **** 					{
1311:../DGC_A230_Functions/DGC_A230_Normal_Mode.c **** 						Pre_flash_Time = 0x00;
1312:../DGC_A230_Functions/DGC_A230_Normal_Mode.c **** 						__Do_Open_Gate_Motor1();
1313:../DGC_A230_Functions/DGC_A230_Normal_Mode.c **** 						__Do_Open_Gate_Motor2();
1314:../DGC_A230_Functions/DGC_A230_Normal_Mode.c **** 					}
1315:../DGC_A230_Functions/DGC_A230_Normal_Mode.c **** 					else														//	Delayed Reverse
1316:../DGC_A230_Functions/DGC_A230_Normal_Mode.c **** 					{
1317:../DGC_A230_Functions/DGC_A230_Normal_Mode.c **** 						Pre_flash_Time = 0x00;
1318:../DGC_A230_Functions/DGC_A230_Normal_Mode.c **** 						__Do_Close_Gate_Motor1();
1319:../DGC_A230_Functions/DGC_A230_Normal_Mode.c **** 						__Do_Close_Gate_Motor2();
1320:../DGC_A230_Functions/DGC_A230_Normal_Mode.c **** 					}
1321:../DGC_A230_Functions/DGC_A230_Normal_Mode.c **** 				}
1322:../DGC_A230_Functions/DGC_A230_Normal_Mode.c **** 				else if (CFG_parameter.Photocell_FT1_Mode_Opening == 0x02)		// Immediate Reverse
1323:../DGC_A230_Functions/DGC_A230_Normal_Mode.c **** 				{
1324:../DGC_A230_Functions/DGC_A230_Normal_Mode.c **** 					if (CFG_parameter.Photocell_FT1_Mode_Closing != 0x00)
1325:../DGC_A230_Functions/DGC_A230_Normal_Mode.c **** 					{
1326:../DGC_A230_Functions/DGC_A230_Normal_Mode.c **** 						__Do_Stop_Gate_Motor1(OPEN_MOVING_DIRECTION);
1327:../DGC_A230_Functions/DGC_A230_Normal_Mode.c **** 						__Do_Stop_Gate_Motor2(OPEN_MOVING_DIRECTION);
1328:../DGC_A230_Functions/DGC_A230_Normal_Mode.c **** 					}
1329:../DGC_A230_Functions/DGC_A230_Normal_Mode.c **** 					else
1330:../DGC_A230_Functions/DGC_A230_Normal_Mode.c **** 					{
1331:../DGC_A230_Functions/DGC_A230_Normal_Mode.c **** 						Pre_flash_Time = 0x00;
1332:../DGC_A230_Functions/DGC_A230_Normal_Mode.c **** 						__Do_Close_Gate_Motor1();
1333:../DGC_A230_Functions/DGC_A230_Normal_Mode.c **** 						__Do_Close_Gate_Motor2();
1334:../DGC_A230_Functions/DGC_A230_Normal_Mode.c **** 					}
1335:../DGC_A230_Functions/DGC_A230_Normal_Mode.c **** 				}
1336:../DGC_A230_Functions/DGC_A230_Normal_Mode.c **** 			}
1337:../DGC_A230_Functions/DGC_A230_Normal_Mode.c **** 		} break;
1338:../DGC_A230_Functions/DGC_A230_Normal_Mode.c **** 
1339:../DGC_A230_Functions/DGC_A230_Normal_Mode.c **** 		case MACHINE_STATE_NORMAL_CLOSING:
1340:../DGC_A230_Functions/DGC_A230_Normal_Mode.c **** 		{
1341:../DGC_A230_Functions/DGC_A230_Normal_Mode.c **** 			if (CFG_parameter.Photocell_FT1_Mode_Closing != 0x00)
1342:../DGC_A230_Functions/DGC_A230_Normal_Mode.c **** 			{
1343:../DGC_A230_Functions/DGC_A230_Normal_Mode.c **** 				Leaf_No1_State = GATE_STATE_CLOSING_PAUSE;
1344:../DGC_A230_Functions/DGC_A230_Normal_Mode.c **** 				Leaf_No2_State = GATE_STATE_CLOSING_PAUSE;
1345:../DGC_A230_Functions/DGC_A230_Normal_Mode.c **** 				if (CFG_parameter.Photocell_Enable_Braking == 0x01)
1346:../DGC_A230_Functions/DGC_A230_Normal_Mode.c **** 				{
1347:../DGC_A230_Functions/DGC_A230_Normal_Mode.c **** 					if (CFG_parameter.Number_Of_Motors == 0x02)
1348:../DGC_A230_Functions/DGC_A230_Normal_Mode.c **** 						__Do_Brake_Motor_Type_2(CLOSE_MOVING_DIRECTION);
1349:../DGC_A230_Functions/DGC_A230_Normal_Mode.c **** 					else
1350:../DGC_A230_Functions/DGC_A230_Normal_Mode.c **** 						__Do_Brake_Motor_Type_1(CLOSE_MOVING_DIRECTION);
1351:../DGC_A230_Functions/DGC_A230_Normal_Mode.c **** 				}
1352:../DGC_A230_Functions/DGC_A230_Normal_Mode.c **** 				__Do_Stop_Gate_Motor1(CLOSE_MOVING_DIRECTION);
1353:../DGC_A230_Functions/DGC_A230_Normal_Mode.c **** 				__Do_Stop_Gate_Motor2(CLOSE_MOVING_DIRECTION);
1354:../DGC_A230_Functions/DGC_A230_Normal_Mode.c **** 
1355:../DGC_A230_Functions/DGC_A230_Normal_Mode.c **** 				if (CFG_parameter.Photocell_FT1_Mode_Closing > 0x02)
1356:../DGC_A230_Functions/DGC_A230_Normal_Mode.c **** 				{
1357:../DGC_A230_Functions/DGC_A230_Normal_Mode.c **** 					while(FT1);
1358:../DGC_A230_Functions/DGC_A230_Normal_Mode.c **** 					if (CFG_parameter.Photocell_FT1_Mode_Closing == 0x03)	// Temporary Stop
1359:../DGC_A230_Functions/DGC_A230_Normal_Mode.c **** 					{
1360:../DGC_A230_Functions/DGC_A230_Normal_Mode.c **** 						Pre_flash_Time = 0x00;
1361:../DGC_A230_Functions/DGC_A230_Normal_Mode.c **** 						__Do_Close_Gate_Motor1();
1362:../DGC_A230_Functions/DGC_A230_Normal_Mode.c **** 						__Do_Close_Gate_Motor2();
1363:../DGC_A230_Functions/DGC_A230_Normal_Mode.c **** 					}
1364:../DGC_A230_Functions/DGC_A230_Normal_Mode.c **** 					else	//Delayed Reverse
1365:../DGC_A230_Functions/DGC_A230_Normal_Mode.c **** 					{
1366:../DGC_A230_Functions/DGC_A230_Normal_Mode.c **** 						Pre_flash_Time = 0x00;
1367:../DGC_A230_Functions/DGC_A230_Normal_Mode.c **** 						__Do_Open_Gate_Motor1();
1368:../DGC_A230_Functions/DGC_A230_Normal_Mode.c **** 						__Do_Open_Gate_Motor2();
1369:../DGC_A230_Functions/DGC_A230_Normal_Mode.c **** 					}
1370:../DGC_A230_Functions/DGC_A230_Normal_Mode.c **** 				}
1371:../DGC_A230_Functions/DGC_A230_Normal_Mode.c **** 				else if (CFG_parameter.Photocell_FT1_Mode_Closing == 0x02)	// Immediate Reverse
1372:../DGC_A230_Functions/DGC_A230_Normal_Mode.c **** 				{
1373:../DGC_A230_Functions/DGC_A230_Normal_Mode.c **** 					if (CFG_parameter.Photocell_FT1_Mode_Opening != 0x00)
1374:../DGC_A230_Functions/DGC_A230_Normal_Mode.c **** 					{
1375:../DGC_A230_Functions/DGC_A230_Normal_Mode.c **** 						__Do_Stop_Gate_Motor1(CLOSE_MOVING_DIRECTION);
1376:../DGC_A230_Functions/DGC_A230_Normal_Mode.c **** 						__Do_Stop_Gate_Motor2(CLOSE_MOVING_DIRECTION);
1377:../DGC_A230_Functions/DGC_A230_Normal_Mode.c **** 					}
1378:../DGC_A230_Functions/DGC_A230_Normal_Mode.c **** 					else
1379:../DGC_A230_Functions/DGC_A230_Normal_Mode.c **** 					{
1380:../DGC_A230_Functions/DGC_A230_Normal_Mode.c **** 						Pre_flash_Time = 0x00;
1381:../DGC_A230_Functions/DGC_A230_Normal_Mode.c **** 						__Do_Open_Gate_Motor1();
1382:../DGC_A230_Functions/DGC_A230_Normal_Mode.c **** 						__Do_Open_Gate_Motor2();
1383:../DGC_A230_Functions/DGC_A230_Normal_Mode.c **** 					}
1384:../DGC_A230_Functions/DGC_A230_Normal_Mode.c **** 				}
1385:../DGC_A230_Functions/DGC_A230_Normal_Mode.c **** 			}
1386:../DGC_A230_Functions/DGC_A230_Normal_Mode.c **** 		} break;
1387:../DGC_A230_Functions/DGC_A230_Normal_Mode.c **** 
1388:../DGC_A230_Functions/DGC_A230_Normal_Mode.c **** 		case MACHINE_STATE_PARTIAL_OPENING:
1389:../DGC_A230_Functions/DGC_A230_Normal_Mode.c **** 		{
1390:../DGC_A230_Functions/DGC_A230_Normal_Mode.c **** 			if (CFG_parameter.Photocell_FT1_Mode_Opening != 0x00)
1391:../DGC_A230_Functions/DGC_A230_Normal_Mode.c **** 			{
1392:../DGC_A230_Functions/DGC_A230_Normal_Mode.c **** 				Leaf_No1_State = GATE_STATE_PATIAL_OPENING_PAUSE;
1393:../DGC_A230_Functions/DGC_A230_Normal_Mode.c **** 				if (CFG_parameter.Photocell_Enable_Braking == 0x01)
1394:../DGC_A230_Functions/DGC_A230_Normal_Mode.c **** 				{
1395:../DGC_A230_Functions/DGC_A230_Normal_Mode.c **** 					__Do_Brake_Motor_Type_1(OPEN_MOVING_DIRECTION);
1396:../DGC_A230_Functions/DGC_A230_Normal_Mode.c **** 				}
1397:../DGC_A230_Functions/DGC_A230_Normal_Mode.c **** 				__Do_Partial_Stop_Gate(OPEN_MOVING_DIRECTION);
1398:../DGC_A230_Functions/DGC_A230_Normal_Mode.c **** 
1399:../DGC_A230_Functions/DGC_A230_Normal_Mode.c **** 				if (CFG_parameter.Photocell_FT1_Mode_Opening > 0x02)
1400:../DGC_A230_Functions/DGC_A230_Normal_Mode.c **** 				{
1401:../DGC_A230_Functions/DGC_A230_Normal_Mode.c **** 					while(FT1);
1402:../DGC_A230_Functions/DGC_A230_Normal_Mode.c **** 					if (CFG_parameter.Photocell_FT1_Mode_Opening == 0x03)		// Temporary Stop
1403:../DGC_A230_Functions/DGC_A230_Normal_Mode.c **** 					{
1404:../DGC_A230_Functions/DGC_A230_Normal_Mode.c **** 						Pre_flash_Time = 0x00;
1405:../DGC_A230_Functions/DGC_A230_Normal_Mode.c **** 						__Do_Partial_Open_Gate();
1406:../DGC_A230_Functions/DGC_A230_Normal_Mode.c **** 					}
1407:../DGC_A230_Functions/DGC_A230_Normal_Mode.c **** 					else														//	Delayed Reverse
1408:../DGC_A230_Functions/DGC_A230_Normal_Mode.c **** 					{
1409:../DGC_A230_Functions/DGC_A230_Normal_Mode.c **** 						Pre_flash_Time = 0x00;
1410:../DGC_A230_Functions/DGC_A230_Normal_Mode.c **** 						__Do_Partial_Close_Gate();
1411:../DGC_A230_Functions/DGC_A230_Normal_Mode.c **** 					}
1412:../DGC_A230_Functions/DGC_A230_Normal_Mode.c **** 				}
1413:../DGC_A230_Functions/DGC_A230_Normal_Mode.c **** 				else if (CFG_parameter.Photocell_FT1_Mode_Opening == 0x02)		// Immediate Reverse
1414:../DGC_A230_Functions/DGC_A230_Normal_Mode.c **** 				{
1415:../DGC_A230_Functions/DGC_A230_Normal_Mode.c **** 					if (CFG_parameter.Photocell_FT1_Mode_Closing != 0x00)
1416:../DGC_A230_Functions/DGC_A230_Normal_Mode.c **** 					{
1417:../DGC_A230_Functions/DGC_A230_Normal_Mode.c **** 						__Do_Partial_Stop_Gate(OPEN_MOVING_DIRECTION);
1418:../DGC_A230_Functions/DGC_A230_Normal_Mode.c **** 					}
1419:../DGC_A230_Functions/DGC_A230_Normal_Mode.c **** 					else
1420:../DGC_A230_Functions/DGC_A230_Normal_Mode.c **** 					{
1421:../DGC_A230_Functions/DGC_A230_Normal_Mode.c **** 						Pre_flash_Time = 0x00;
1422:../DGC_A230_Functions/DGC_A230_Normal_Mode.c **** 						__Do_Partial_Close_Gate();
1423:../DGC_A230_Functions/DGC_A230_Normal_Mode.c **** 					}
1424:../DGC_A230_Functions/DGC_A230_Normal_Mode.c **** 				}
1425:../DGC_A230_Functions/DGC_A230_Normal_Mode.c **** 			}
1426:../DGC_A230_Functions/DGC_A230_Normal_Mode.c **** 		} break;
1427:../DGC_A230_Functions/DGC_A230_Normal_Mode.c **** 
1428:../DGC_A230_Functions/DGC_A230_Normal_Mode.c **** 		case MACHINE_STATE_PARTIAL_CLOSING:
1429:../DGC_A230_Functions/DGC_A230_Normal_Mode.c **** 		{
1430:../DGC_A230_Functions/DGC_A230_Normal_Mode.c **** 			if (CFG_parameter.Photocell_FT1_Mode_Closing != 0x00)
1431:../DGC_A230_Functions/DGC_A230_Normal_Mode.c **** 			{
1432:../DGC_A230_Functions/DGC_A230_Normal_Mode.c **** 				Leaf_No1_State = GATE_STATE_CLOSING_PAUSE;
1433:../DGC_A230_Functions/DGC_A230_Normal_Mode.c **** 				if (CFG_parameter.Photocell_Enable_Braking == 0x01)
1434:../DGC_A230_Functions/DGC_A230_Normal_Mode.c **** 				{
1435:../DGC_A230_Functions/DGC_A230_Normal_Mode.c **** 					__Do_Brake_Motor_Type_1(CLOSE_MOVING_DIRECTION);
1436:../DGC_A230_Functions/DGC_A230_Normal_Mode.c **** 				}
1437:../DGC_A230_Functions/DGC_A230_Normal_Mode.c **** 				__Do_Partial_Stop_Gate(CLOSE_MOVING_DIRECTION);
1438:../DGC_A230_Functions/DGC_A230_Normal_Mode.c **** 
1439:../DGC_A230_Functions/DGC_A230_Normal_Mode.c **** 				if (CFG_parameter.Photocell_FT1_Mode_Closing > 0x02)
1440:../DGC_A230_Functions/DGC_A230_Normal_Mode.c **** 				{
1441:../DGC_A230_Functions/DGC_A230_Normal_Mode.c **** 					while(FT1);
1442:../DGC_A230_Functions/DGC_A230_Normal_Mode.c **** 					if (CFG_parameter.Photocell_FT1_Mode_Closing == 0x03)	// Temporary Stop
1443:../DGC_A230_Functions/DGC_A230_Normal_Mode.c **** 					{
1444:../DGC_A230_Functions/DGC_A230_Normal_Mode.c **** 						Pre_flash_Time = 0x00;
1445:../DGC_A230_Functions/DGC_A230_Normal_Mode.c **** 						__Do_Partial_Close_Gate();
1446:../DGC_A230_Functions/DGC_A230_Normal_Mode.c **** 					}
1447:../DGC_A230_Functions/DGC_A230_Normal_Mode.c **** 					else	//Delayed Reverse
1448:../DGC_A230_Functions/DGC_A230_Normal_Mode.c **** 					{
1449:../DGC_A230_Functions/DGC_A230_Normal_Mode.c **** 						Pre_flash_Time = 0x00;
1450:../DGC_A230_Functions/DGC_A230_Normal_Mode.c **** 						__Do_Partial_Open_Gate();
1451:../DGC_A230_Functions/DGC_A230_Normal_Mode.c **** 					}
1452:../DGC_A230_Functions/DGC_A230_Normal_Mode.c **** 				}
1453:../DGC_A230_Functions/DGC_A230_Normal_Mode.c **** 				else if (CFG_parameter.Photocell_FT1_Mode_Closing == 0x02)	// Immediate Reverse
1454:../DGC_A230_Functions/DGC_A230_Normal_Mode.c **** 				{
1455:../DGC_A230_Functions/DGC_A230_Normal_Mode.c **** 					if (CFG_parameter.Photocell_FT1_Mode_Opening != 0x00)
1456:../DGC_A230_Functions/DGC_A230_Normal_Mode.c **** 					{
1457:../DGC_A230_Functions/DGC_A230_Normal_Mode.c **** 						__Do_Partial_Stop_Gate(CLOSE_MOVING_DIRECTION);
1458:../DGC_A230_Functions/DGC_A230_Normal_Mode.c **** 					}
1459:../DGC_A230_Functions/DGC_A230_Normal_Mode.c **** 					else
1460:../DGC_A230_Functions/DGC_A230_Normal_Mode.c **** 					{
1461:../DGC_A230_Functions/DGC_A230_Normal_Mode.c **** 						Pre_flash_Time = 0x00;
1462:../DGC_A230_Functions/DGC_A230_Normal_Mode.c **** 						__Do_Partial_Open_Gate();
1463:../DGC_A230_Functions/DGC_A230_Normal_Mode.c **** 					}
1464:../DGC_A230_Functions/DGC_A230_Normal_Mode.c **** 				}
1465:../DGC_A230_Functions/DGC_A230_Normal_Mode.c **** 			}
1466:../DGC_A230_Functions/DGC_A230_Normal_Mode.c **** 		} break;
1467:../DGC_A230_Functions/DGC_A230_Normal_Mode.c **** 
1468:../DGC_A230_Functions/DGC_A230_Normal_Mode.c **** 		default: break;
 4248                             		.loc 1 1468 0
 4249 0037 EC ED 03 00             		br	!!.L305
 4250                             	.L308:
1273:../DGC_A230_Functions/DGC_A230_Normal_Mode.c **** 	switch(Machine_State)
 4251                             		.loc 1 1273 0
 4252 003b AD F0                   		movw	ax, r8
 4253 003d 44 03 00                		cmpw	ax, #3
 4254 0040 61 F8                   		 sknz
 4255 0042 EC 90 02 00             		 br	!!.L311
 4256 0046 AD F0                   		movw	ax, r8
 4257 0048 44 04 00                		cmpw	ax, #4
 4258 004b 61 F8                   		 sknz
 4259 004d EC 40 03 00             		 br	!!.L312
 4260                             		.loc 1 1468 0
 4261 0051 EC ED 03 00             		br	!!.L305
 4262                             	.L309:
1277:../DGC_A230_Functions/DGC_A230_Normal_Mode.c **** 			{
 4263                             		.loc 1 1277 0
 4264 0055 8F 00 00                		mov	a, !_Leaf_No1_State
 4265 0058 9D F0                   		mov	r8, a
 4266 005a 4A F0 01                		cmp	r8, #1
 4267 005d 61 E8                   		 skz
 4268 005f EC 85 00 00             		 br	!!.L313
1277:../DGC_A230_Functions/DGC_A230_Normal_Mode.c **** 			{
 4269                             		.loc 1 1277 0 is_stmt 0 discriminator 1
 4270 0063 8F 00 00                		mov	a, !_CFG_parameter+82
 4271 0066 9D F0                   		mov	r8, a
 4272 0068 4A F0 02                		cmp	r8, #2
 4273 006b 61 E8                   		 skz
 4274 006d EC 85 00 00             		 br	!!.L313
 4275                             	.LBB108:
1279:../DGC_A230_Functions/DGC_A230_Normal_Mode.c **** 				__Do_Open_Gate_Motor1();
 4276                             		.loc 1 1279 0 is_stmt 1
 4277 0071 8F 00 00                		mov	a, !_CFG_parameter+52
 4278 0074 9D F0                   		mov	r8, a
 4279 0076 9F 00 00                		mov	!_Pre_flash_Time, a
1280:../DGC_A230_Functions/DGC_A230_Normal_Mode.c **** 				__Do_Open_Gate_Motor2();
 4280                             		.loc 1 1280 0
 4281 0079 FC 00 00 00             		call	!!%code(___Do_Open_Gate_Motor1)
1281:../DGC_A230_Functions/DGC_A230_Normal_Mode.c **** 			}
 4282                             		.loc 1 1281 0
 4283 007d FC 00 00 00             		call	!!%code(___Do_Open_Gate_Motor2)
 4284                             	.LBE108:
1278:../DGC_A230_Functions/DGC_A230_Normal_Mode.c **** 				Pre_flash_Time = CFG_parameter.Pre_Flashing;
 4285                             		.loc 1 1278 0
 4286 0081 EC BC 00 00             		br	!!.L314
 4287                             	.L313:
1283:../DGC_A230_Functions/DGC_A230_Normal_Mode.c **** 			{
 4288                             		.loc 1 1283 0
 4289 0085 8F 00 00                		mov	a, !_Leaf_No1_State
 4290 0088 9D F0                   		mov	r8, a
 4291 008a 4A F0 01                		cmp	r8, #1
 4292 008d 61 F8                   		 sknz
 4293 008f EC BC 00 00             		 br	!!.L314
1283:../DGC_A230_Functions/DGC_A230_Normal_Mode.c **** 			{
 4294                             		.loc 1 1283 0 is_stmt 0 discriminator 1
 4295 0093 8F 00 00                		mov	a, !_CFG_parameter+86
 4296 0096 9D F0                   		mov	r8, a
 4297 0098 4A F0 01                		cmp	r8, #1
 4298 009b 61 E8                   		 skz
 4299 009d EC BC 00 00             		 br	!!.L314
1285:../DGC_A230_Functions/DGC_A230_Normal_Mode.c **** 				// When the photocell gate FT1 is crossed, a close command is sent 6 seconds later.
 4300                             		.loc 1 1285 0 is_stmt 1
 4301 00a1 00                      		nop
 4302                             	.L315:
1285:../DGC_A230_Functions/DGC_A230_Normal_Mode.c **** 				// When the photocell gate FT1 is crossed, a close command is sent 6 seconds later.
 4303                             		.loc 1 1285 0 is_stmt 0 discriminator 1
 4304 00a2 C9 F0 07 FF             		movw	r8, #-249
 4305 00a6 AD F0                   		movw	ax, r8
 4306 00a8 BD F2                   		movw	r10, ax
 4307 00aa FA F2                   		movw	hl, r10
 4308 00ac 8B                      		mov	a, [hl]
 4309 00ad 9D F0                   		mov	r8, a
 4310 00af 31 1A                   		shr	a, 1
 4311 00b1 9D F0                   		mov	r8, a
 4312 00b3 5A F0 01                		and	r8, #1
 4313 00b6 61 E8                   		skz
 4314 00b8 EC A2 00 00             		 br	!!.L315
 4315                             		 # zero-comparison eliminated
 4316                             	.L314:
1288:../DGC_A230_Functions/DGC_A230_Normal_Mode.c **** 
 4317                             		.loc 1 1288 0 is_stmt 1
 4318 00bc EC ED 03 00             		br	!!.L305
 4319                             	.L310:
1292:../DGC_A230_Functions/DGC_A230_Normal_Mode.c **** 			{
 4320                             		.loc 1 1292 0
 4321 00c0 8F 00 00                		mov	a, !_CFG_parameter+80
 4322 00c3 9D F0                   		mov	r8, a
 4323 00c5 D4 F0                   		cmp0	r8
 4324 00c7 61 F8                   		 sknz
 4325 00c9 EC A4 01 00             		 br	!!.L317
 4326                             	.LBB109:
1294:../DGC_A230_Functions/DGC_A230_Normal_Mode.c **** 				Leaf_No2_State = GATE_STATE_OPENING_PAUSE;
 4327                             		.loc 1 1294 0
 4328 00cd 51 06                   		mov	a, #6
 4329 00cf 9F 00 00                		mov	!_Leaf_No1_State, a
1295:../DGC_A230_Functions/DGC_A230_Normal_Mode.c **** 				if (CFG_parameter.Photocell_Enable_Braking == 0x01)
 4330                             		.loc 1 1295 0
 4331 00d2 51 06                   		mov	a, #6
 4332 00d4 9F 00 00                		mov	!_Leaf_No2_State, a
1296:../DGC_A230_Functions/DGC_A230_Normal_Mode.c **** 				{
 4333                             		.loc 1 1296 0
 4334 00d7 8F 00 00                		mov	a, !_CFG_parameter+88
 4335 00da 9D F0                   		mov	r8, a
 4336 00dc 4A F0 01                		cmp	r8, #1
 4337 00df 61 E8                   		 skz
 4338 00e1 EC 05 01 00             		 br	!!.L318
 4339                             	.LBB110:
1298:../DGC_A230_Functions/DGC_A230_Normal_Mode.c **** 						__Do_Brake_Motor_Type_2(OPEN_MOVING_DIRECTION);
 4340                             		.loc 1 1298 0
 4341 00e5 8F 00 00                		mov	a, !_CFG_parameter+1
 4342 00e8 9D F0                   		mov	r8, a
 4343 00ea 4A F0 02                		cmp	r8, #2
 4344 00ed 61 E8                   		 skz
 4345 00ef EC FE 00 00             		 br	!!.L319
1299:../DGC_A230_Functions/DGC_A230_Normal_Mode.c **** 					else
 4346                             		.loc 1 1299 0
 4347 00f3 F6                      		clrw	ax
 4348 00f4 B8 00                   		movw	[sp], ax
 4349 00f6 FC 00 00 00             		call	!!%code(___Do_Brake_Motor_Type_2)
 4350 00fa EC 05 01 00             		br	!!.L318
 4351                             	.L319:
1301:../DGC_A230_Functions/DGC_A230_Normal_Mode.c **** 				}
 4352                             		.loc 1 1301 0
 4353 00fe F6                      		clrw	ax
 4354 00ff B8 00                   		movw	[sp], ax
 4355 0101 FC 00 00 00             		call	!!%code(___Do_Brake_Motor_Type_1)
 4356                             	.L318:
 4357                             	.LBE110:
1303:../DGC_A230_Functions/DGC_A230_Normal_Mode.c **** 				__Do_Stop_Gate_Motor2(OPEN_MOVING_DIRECTION);
 4358                             		.loc 1 1303 0
 4359 0105 F6                      		clrw	ax
 4360 0106 B8 00                   		movw	[sp], ax
 4361 0108 FC 00 00 00             		call	!!%code(___Do_Stop_Gate_Motor1)
1304:../DGC_A230_Functions/DGC_A230_Normal_Mode.c **** 
 4362                             		.loc 1 1304 0
 4363 010c F6                      		clrw	ax
 4364 010d B8 00                   		movw	[sp], ax
 4365 010f FC 00 00 00             		call	!!%code(___Do_Stop_Gate_Motor2)
1306:../DGC_A230_Functions/DGC_A230_Normal_Mode.c **** 				{
 4366                             		.loc 1 1306 0
 4367 0113 8F 00 00                		mov	a, !_CFG_parameter+80
 4368 0116 9D F0                   		mov	r8, a
 4369 0118 4A F0 02                		cmp	r8, #2
 4370 011b 61 E3                   		 skh
 4371 011d EC 68 01 00             		 br	!!.L320
1308:../DGC_A230_Functions/DGC_A230_Normal_Mode.c **** 					if (CFG_parameter.Photocell_FT1_Mode_Opening == 0x03)		// Temporary Stop
 4372                             		.loc 1 1308 0
 4373 0121 00                      		nop
 4374                             	.L321:
1308:../DGC_A230_Functions/DGC_A230_Normal_Mode.c **** 					if (CFG_parameter.Photocell_FT1_Mode_Opening == 0x03)		// Temporary Stop
 4375                             		.loc 1 1308 0 is_stmt 0 discriminator 1
 4376 0122 C9 F0 07 FF             		movw	r8, #-249
 4377 0126 AD F0                   		movw	ax, r8
 4378 0128 BD F2                   		movw	r10, ax
 4379 012a FA F2                   		movw	hl, r10
 4380 012c 8B                      		mov	a, [hl]
 4381 012d 9D F0                   		mov	r8, a
 4382 012f 31 1A                   		shr	a, 1
 4383 0131 9D F0                   		mov	r8, a
 4384 0133 5A F0 01                		and	r8, #1
 4385 0136 61 E8                   		skz
 4386 0138 EC 22 01 00             		 br	!!.L321
 4387                             		 # zero-comparison eliminated
1309:../DGC_A230_Functions/DGC_A230_Normal_Mode.c **** 					{
 4388                             		.loc 1 1309 0 is_stmt 1
 4389 013c 8F 00 00                		mov	a, !_CFG_parameter+80
 4390 013f 9D F0                   		mov	r8, a
 4391 0141 4A F0 03                		cmp	r8, #3
 4392 0144 61 E8                   		 skz
 4393 0146 EC 59 01 00             		 br	!!.L322
 4394                             	.LBB111:
1311:../DGC_A230_Functions/DGC_A230_Normal_Mode.c **** 						__Do_Open_Gate_Motor1();
 4395                             		.loc 1 1311 0
 4396 014a F5 00 00                		clrb	!_Pre_flash_Time
1312:../DGC_A230_Functions/DGC_A230_Normal_Mode.c **** 						__Do_Open_Gate_Motor2();
 4397                             		.loc 1 1312 0
 4398 014d FC 00 00 00             		call	!!%code(___Do_Open_Gate_Motor1)
1313:../DGC_A230_Functions/DGC_A230_Normal_Mode.c **** 					}
 4399                             		.loc 1 1313 0
 4400 0151 FC 00 00 00             		call	!!%code(___Do_Open_Gate_Motor2)
 4401                             	.LBE111:
 4402 0155 EC A4 01 00             		br	!!.L317
 4403                             	.L322:
 4404                             	.LBB112:
1317:../DGC_A230_Functions/DGC_A230_Normal_Mode.c **** 						__Do_Close_Gate_Motor1();
 4405                             		.loc 1 1317 0
 4406 0159 F5 00 00                		clrb	!_Pre_flash_Time
1318:../DGC_A230_Functions/DGC_A230_Normal_Mode.c **** 						__Do_Close_Gate_Motor2();
 4407                             		.loc 1 1318 0
 4408 015c FC 00 00 00             		call	!!%code(___Do_Close_Gate_Motor1)
1319:../DGC_A230_Functions/DGC_A230_Normal_Mode.c **** 					}
 4409                             		.loc 1 1319 0
 4410 0160 FC 00 00 00             		call	!!%code(___Do_Close_Gate_Motor2)
 4411                             	.LBE112:
 4412                             	.LBE109:
1337:../DGC_A230_Functions/DGC_A230_Normal_Mode.c **** 
 4413                             		.loc 1 1337 0
 4414 0164 EC ED 03 00             		br	!!.L305
 4415                             	.L320:
 4416                             	.LBB114:
1322:../DGC_A230_Functions/DGC_A230_Normal_Mode.c **** 				{
 4417                             		.loc 1 1322 0
 4418 0168 8F 00 00                		mov	a, !_CFG_parameter+80
 4419 016b 9D F0                   		mov	r8, a
 4420 016d 4A F0 02                		cmp	r8, #2
 4421 0170 61 E8                   		 skz
 4422 0172 EC A4 01 00             		 br	!!.L317
1324:../DGC_A230_Functions/DGC_A230_Normal_Mode.c **** 					{
 4423                             		.loc 1 1324 0
 4424 0176 8F 00 00                		mov	a, !_CFG_parameter+81
 4425 0179 9D F0                   		mov	r8, a
 4426 017b D4 F0                   		cmp0	r8
 4427 017d 61 F8                   		 sknz
 4428 017f EC 95 01 00             		 br	!!.L324
1326:../DGC_A230_Functions/DGC_A230_Normal_Mode.c **** 						__Do_Stop_Gate_Motor2(OPEN_MOVING_DIRECTION);
 4429                             		.loc 1 1326 0
 4430 0183 F6                      		clrw	ax
 4431 0184 B8 00                   		movw	[sp], ax
 4432 0186 FC 00 00 00             		call	!!%code(___Do_Stop_Gate_Motor1)
1327:../DGC_A230_Functions/DGC_A230_Normal_Mode.c **** 					}
 4433                             		.loc 1 1327 0
 4434 018a F6                      		clrw	ax
 4435 018b B8 00                   		movw	[sp], ax
 4436 018d FC 00 00 00             		call	!!%code(___Do_Stop_Gate_Motor2)
 4437 0191 EC A4 01 00             		br	!!.L317
 4438                             	.L324:
 4439                             	.LBB113:
1331:../DGC_A230_Functions/DGC_A230_Normal_Mode.c **** 						__Do_Close_Gate_Motor1();
 4440                             		.loc 1 1331 0
 4441 0195 F5 00 00                		clrb	!_Pre_flash_Time
1332:../DGC_A230_Functions/DGC_A230_Normal_Mode.c **** 						__Do_Close_Gate_Motor2();
 4442                             		.loc 1 1332 0
 4443 0198 FC 00 00 00             		call	!!%code(___Do_Close_Gate_Motor1)
1333:../DGC_A230_Functions/DGC_A230_Normal_Mode.c **** 					}
 4444                             		.loc 1 1333 0
 4445 019c FC 00 00 00             		call	!!%code(___Do_Close_Gate_Motor2)
 4446                             	.LBE113:
 4447                             	.LBE114:
1337:../DGC_A230_Functions/DGC_A230_Normal_Mode.c **** 
 4448                             		.loc 1 1337 0
 4449 01a0 EC ED 03 00             		br	!!.L305
 4450                             	.L317:
1337:../DGC_A230_Functions/DGC_A230_Normal_Mode.c **** 
 4451                             		.loc 1 1337 0 is_stmt 0 discriminator 1
 4452 01a4 EC ED 03 00             		br	!!.L305
 4453                             	.L307:
1341:../DGC_A230_Functions/DGC_A230_Normal_Mode.c **** 			{
 4454                             		.loc 1 1341 0 is_stmt 1
 4455 01a8 8F 00 00                		mov	a, !_CFG_parameter+81
 4456 01ab 9D F0                   		mov	r8, a
 4457 01ad D4 F0                   		cmp0	r8
 4458 01af 61 F8                   		 sknz
 4459 01b1 EC 8C 02 00             		 br	!!.L325
 4460                             	.LBB115:
1343:../DGC_A230_Functions/DGC_A230_Normal_Mode.c **** 				Leaf_No2_State = GATE_STATE_CLOSING_PAUSE;
 4461                             		.loc 1 1343 0
 4462 01b5 51 07                   		mov	a, #7
 4463 01b7 9F 00 00                		mov	!_Leaf_No1_State, a
1344:../DGC_A230_Functions/DGC_A230_Normal_Mode.c **** 				if (CFG_parameter.Photocell_Enable_Braking == 0x01)
 4464                             		.loc 1 1344 0
 4465 01ba 51 07                   		mov	a, #7
 4466 01bc 9F 00 00                		mov	!_Leaf_No2_State, a
1345:../DGC_A230_Functions/DGC_A230_Normal_Mode.c **** 				{
 4467                             		.loc 1 1345 0
 4468 01bf 8F 00 00                		mov	a, !_CFG_parameter+88
 4469 01c2 9D F0                   		mov	r8, a
 4470 01c4 4A F0 01                		cmp	r8, #1
 4471 01c7 61 E8                   		 skz
 4472 01c9 EC ED 01 00             		 br	!!.L326
 4473                             	.LBB116:
1347:../DGC_A230_Functions/DGC_A230_Normal_Mode.c **** 						__Do_Brake_Motor_Type_2(CLOSE_MOVING_DIRECTION);
 4474                             		.loc 1 1347 0
 4475 01cd 8F 00 00                		mov	a, !_CFG_parameter+1
 4476 01d0 9D F0                   		mov	r8, a
 4477 01d2 4A F0 02                		cmp	r8, #2
 4478 01d5 61 E8                   		 skz
 4479 01d7 EC E6 01 00             		 br	!!.L327
1348:../DGC_A230_Functions/DGC_A230_Normal_Mode.c **** 					else
 4480                             		.loc 1 1348 0
 4481 01db E6                      		onew	ax
 4482 01dc B8 00                   		movw	[sp], ax
 4483 01de FC 00 00 00             		call	!!%code(___Do_Brake_Motor_Type_2)
 4484 01e2 EC ED 01 00             		br	!!.L326
 4485                             	.L327:
1350:../DGC_A230_Functions/DGC_A230_Normal_Mode.c **** 				}
 4486                             		.loc 1 1350 0
 4487 01e6 E6                      		onew	ax
 4488 01e7 B8 00                   		movw	[sp], ax
 4489 01e9 FC 00 00 00             		call	!!%code(___Do_Brake_Motor_Type_1)
 4490                             	.L326:
 4491                             	.LBE116:
1352:../DGC_A230_Functions/DGC_A230_Normal_Mode.c **** 				__Do_Stop_Gate_Motor2(CLOSE_MOVING_DIRECTION);
 4492                             		.loc 1 1352 0
 4493 01ed E6                      		onew	ax
 4494 01ee B8 00                   		movw	[sp], ax
 4495 01f0 FC 00 00 00             		call	!!%code(___Do_Stop_Gate_Motor1)
1353:../DGC_A230_Functions/DGC_A230_Normal_Mode.c **** 
 4496                             		.loc 1 1353 0
 4497 01f4 E6                      		onew	ax
 4498 01f5 B8 00                   		movw	[sp], ax
 4499 01f7 FC 00 00 00             		call	!!%code(___Do_Stop_Gate_Motor2)
1355:../DGC_A230_Functions/DGC_A230_Normal_Mode.c **** 				{
 4500                             		.loc 1 1355 0
 4501 01fb 8F 00 00                		mov	a, !_CFG_parameter+81
 4502 01fe 9D F0                   		mov	r8, a
 4503 0200 4A F0 02                		cmp	r8, #2
 4504 0203 61 E3                   		 skh
 4505 0205 EC 50 02 00             		 br	!!.L328
1357:../DGC_A230_Functions/DGC_A230_Normal_Mode.c **** 					if (CFG_parameter.Photocell_FT1_Mode_Closing == 0x03)	// Temporary Stop
 4506                             		.loc 1 1357 0
 4507 0209 00                      		nop
 4508                             	.L329:
1357:../DGC_A230_Functions/DGC_A230_Normal_Mode.c **** 					if (CFG_parameter.Photocell_FT1_Mode_Closing == 0x03)	// Temporary Stop
 4509                             		.loc 1 1357 0 is_stmt 0 discriminator 1
 4510 020a C9 F0 07 FF             		movw	r8, #-249
 4511 020e AD F0                   		movw	ax, r8
 4512 0210 BD F2                   		movw	r10, ax
 4513 0212 FA F2                   		movw	hl, r10
 4514 0214 8B                      		mov	a, [hl]
 4515 0215 9D F0                   		mov	r8, a
 4516 0217 31 1A                   		shr	a, 1
 4517 0219 9D F0                   		mov	r8, a
 4518 021b 5A F0 01                		and	r8, #1
 4519 021e 61 E8                   		skz
 4520 0220 EC 0A 02 00             		 br	!!.L329
 4521                             		 # zero-comparison eliminated
1358:../DGC_A230_Functions/DGC_A230_Normal_Mode.c **** 					{
 4522                             		.loc 1 1358 0 is_stmt 1
 4523 0224 8F 00 00                		mov	a, !_CFG_parameter+81
 4524 0227 9D F0                   		mov	r8, a
 4525 0229 4A F0 03                		cmp	r8, #3
 4526 022c 61 E8                   		 skz
 4527 022e EC 41 02 00             		 br	!!.L330
 4528                             	.LBB117:
1360:../DGC_A230_Functions/DGC_A230_Normal_Mode.c **** 						__Do_Close_Gate_Motor1();
 4529                             		.loc 1 1360 0
 4530 0232 F5 00 00                		clrb	!_Pre_flash_Time
1361:../DGC_A230_Functions/DGC_A230_Normal_Mode.c **** 						__Do_Close_Gate_Motor2();
 4531                             		.loc 1 1361 0
 4532 0235 FC 00 00 00             		call	!!%code(___Do_Close_Gate_Motor1)
1362:../DGC_A230_Functions/DGC_A230_Normal_Mode.c **** 					}
 4533                             		.loc 1 1362 0
 4534 0239 FC 00 00 00             		call	!!%code(___Do_Close_Gate_Motor2)
 4535                             	.LBE117:
 4536 023d EC 8C 02 00             		br	!!.L325
 4537                             	.L330:
 4538                             	.LBB118:
1366:../DGC_A230_Functions/DGC_A230_Normal_Mode.c **** 						__Do_Open_Gate_Motor1();
 4539                             		.loc 1 1366 0
 4540 0241 F5 00 00                		clrb	!_Pre_flash_Time
1367:../DGC_A230_Functions/DGC_A230_Normal_Mode.c **** 						__Do_Open_Gate_Motor2();
 4541                             		.loc 1 1367 0
 4542 0244 FC 00 00 00             		call	!!%code(___Do_Open_Gate_Motor1)
1368:../DGC_A230_Functions/DGC_A230_Normal_Mode.c **** 					}
 4543                             		.loc 1 1368 0
 4544 0248 FC 00 00 00             		call	!!%code(___Do_Open_Gate_Motor2)
 4545                             	.LBE118:
 4546                             	.LBE115:
1386:../DGC_A230_Functions/DGC_A230_Normal_Mode.c **** 
 4547                             		.loc 1 1386 0
 4548 024c EC ED 03 00             		br	!!.L305
 4549                             	.L328:
 4550                             	.LBB120:
1371:../DGC_A230_Functions/DGC_A230_Normal_Mode.c **** 				{
 4551                             		.loc 1 1371 0
 4552 0250 8F 00 00                		mov	a, !_CFG_parameter+81
 4553 0253 9D F0                   		mov	r8, a
 4554 0255 4A F0 02                		cmp	r8, #2
 4555 0258 61 E8                   		 skz
 4556 025a EC 8C 02 00             		 br	!!.L325
1373:../DGC_A230_Functions/DGC_A230_Normal_Mode.c **** 					{
 4557                             		.loc 1 1373 0
 4558 025e 8F 00 00                		mov	a, !_CFG_parameter+80
 4559 0261 9D F0                   		mov	r8, a
 4560 0263 D4 F0                   		cmp0	r8
 4561 0265 61 F8                   		 sknz
 4562 0267 EC 7D 02 00             		 br	!!.L332
1375:../DGC_A230_Functions/DGC_A230_Normal_Mode.c **** 						__Do_Stop_Gate_Motor2(CLOSE_MOVING_DIRECTION);
 4563                             		.loc 1 1375 0
 4564 026b E6                      		onew	ax
 4565 026c B8 00                   		movw	[sp], ax
 4566 026e FC 00 00 00             		call	!!%code(___Do_Stop_Gate_Motor1)
1376:../DGC_A230_Functions/DGC_A230_Normal_Mode.c **** 					}
 4567                             		.loc 1 1376 0
 4568 0272 E6                      		onew	ax
 4569 0273 B8 00                   		movw	[sp], ax
 4570 0275 FC 00 00 00             		call	!!%code(___Do_Stop_Gate_Motor2)
 4571 0279 EC 8C 02 00             		br	!!.L325
 4572                             	.L332:
 4573                             	.LBB119:
1380:../DGC_A230_Functions/DGC_A230_Normal_Mode.c **** 						__Do_Open_Gate_Motor1();
 4574                             		.loc 1 1380 0
 4575 027d F5 00 00                		clrb	!_Pre_flash_Time
1381:../DGC_A230_Functions/DGC_A230_Normal_Mode.c **** 						__Do_Open_Gate_Motor2();
 4576                             		.loc 1 1381 0
 4577 0280 FC 00 00 00             		call	!!%code(___Do_Open_Gate_Motor1)
1382:../DGC_A230_Functions/DGC_A230_Normal_Mode.c **** 					}
 4578                             		.loc 1 1382 0
 4579 0284 FC 00 00 00             		call	!!%code(___Do_Open_Gate_Motor2)
 4580                             	.LBE119:
 4581                             	.LBE120:
1386:../DGC_A230_Functions/DGC_A230_Normal_Mode.c **** 
 4582                             		.loc 1 1386 0
 4583 0288 EC ED 03 00             		br	!!.L305
 4584                             	.L325:
1386:../DGC_A230_Functions/DGC_A230_Normal_Mode.c **** 
 4585                             		.loc 1 1386 0 is_stmt 0 discriminator 2
 4586 028c EC ED 03 00             		br	!!.L305
 4587                             	.L311:
1390:../DGC_A230_Functions/DGC_A230_Normal_Mode.c **** 			{
 4588                             		.loc 1 1390 0 is_stmt 1
 4589 0290 8F 00 00                		mov	a, !_CFG_parameter+80
 4590 0293 9D F0                   		mov	r8, a
 4591 0295 D4 F0                   		cmp0	r8
 4592 0297 61 F8                   		 sknz
 4593 0299 EC 3C 03 00             		 br	!!.L333
 4594                             	.LBB121:
1392:../DGC_A230_Functions/DGC_A230_Normal_Mode.c **** 				if (CFG_parameter.Photocell_Enable_Braking == 0x01)
 4595                             		.loc 1 1392 0
 4596 029d 51 08                   		mov	a, #8
 4597 029f 9F 00 00                		mov	!_Leaf_No1_State, a
1393:../DGC_A230_Functions/DGC_A230_Normal_Mode.c **** 				{
 4598                             		.loc 1 1393 0
 4599 02a2 8F 00 00                		mov	a, !_CFG_parameter+88
 4600 02a5 9D F0                   		mov	r8, a
 4601 02a7 4A F0 01                		cmp	r8, #1
 4602 02aa 61 E8                   		 skz
 4603 02ac EC B7 02 00             		 br	!!.L334
 4604                             	.LBB122:
1395:../DGC_A230_Functions/DGC_A230_Normal_Mode.c **** 				}
 4605                             		.loc 1 1395 0
 4606 02b0 F6                      		clrw	ax
 4607 02b1 B8 00                   		movw	[sp], ax
 4608 02b3 FC 00 00 00             		call	!!%code(___Do_Brake_Motor_Type_1)
 4609                             	.L334:
 4610                             	.LBE122:
1397:../DGC_A230_Functions/DGC_A230_Normal_Mode.c **** 
 4611                             		.loc 1 1397 0
 4612 02b7 F6                      		clrw	ax
 4613 02b8 B8 00                   		movw	[sp], ax
 4614 02ba FC 00 00 00             		call	!!%code(___Do_Partial_Stop_Gate)
1399:../DGC_A230_Functions/DGC_A230_Normal_Mode.c **** 				{
 4615                             		.loc 1 1399 0
 4616 02be 8F 00 00                		mov	a, !_CFG_parameter+80
 4617 02c1 9D F0                   		mov	r8, a
 4618 02c3 4A F0 02                		cmp	r8, #2
 4619 02c6 61 E3                   		 skh
 4620 02c8 EC 0B 03 00             		 br	!!.L335
1401:../DGC_A230_Functions/DGC_A230_Normal_Mode.c **** 					if (CFG_parameter.Photocell_FT1_Mode_Opening == 0x03)		// Temporary Stop
 4621                             		.loc 1 1401 0
 4622 02cc 00                      		nop
 4623                             	.L336:
1401:../DGC_A230_Functions/DGC_A230_Normal_Mode.c **** 					if (CFG_parameter.Photocell_FT1_Mode_Opening == 0x03)		// Temporary Stop
 4624                             		.loc 1 1401 0 is_stmt 0 discriminator 1
 4625 02cd C9 F0 07 FF             		movw	r8, #-249
 4626 02d1 AD F0                   		movw	ax, r8
 4627 02d3 BD F2                   		movw	r10, ax
 4628 02d5 FA F2                   		movw	hl, r10
 4629 02d7 8B                      		mov	a, [hl]
 4630 02d8 9D F0                   		mov	r8, a
 4631 02da 31 1A                   		shr	a, 1
 4632 02dc 9D F0                   		mov	r8, a
 4633 02de 5A F0 01                		and	r8, #1
 4634 02e1 61 E8                   		skz
 4635 02e3 EC CD 02 00             		 br	!!.L336
 4636                             		 # zero-comparison eliminated
1402:../DGC_A230_Functions/DGC_A230_Normal_Mode.c **** 					{
 4637                             		.loc 1 1402 0 is_stmt 1
 4638 02e7 8F 00 00                		mov	a, !_CFG_parameter+80
 4639 02ea 9D F0                   		mov	r8, a
 4640 02ec 4A F0 03                		cmp	r8, #3
 4641 02ef 61 E8                   		 skz
 4642 02f1 EC 00 03 00             		 br	!!.L337
 4643                             	.LBB123:
1404:../DGC_A230_Functions/DGC_A230_Normal_Mode.c **** 						__Do_Partial_Open_Gate();
 4644                             		.loc 1 1404 0
 4645 02f5 F5 00 00                		clrb	!_Pre_flash_Time
1405:../DGC_A230_Functions/DGC_A230_Normal_Mode.c **** 					}
 4646                             		.loc 1 1405 0
 4647 02f8 FC 00 00 00             		call	!!%code(___Do_Partial_Open_Gate)
 4648                             	.LBE123:
 4649 02fc EC 3C 03 00             		br	!!.L333
 4650                             	.L337:
 4651                             	.LBB124:
1409:../DGC_A230_Functions/DGC_A230_Normal_Mode.c **** 						__Do_Partial_Close_Gate();
 4652                             		.loc 1 1409 0
 4653 0300 F5 00 00                		clrb	!_Pre_flash_Time
1410:../DGC_A230_Functions/DGC_A230_Normal_Mode.c **** 					}
 4654                             		.loc 1 1410 0
 4655 0303 FC 00 00 00             		call	!!%code(___Do_Partial_Close_Gate)
 4656                             	.LBE124:
 4657                             	.LBE121:
1426:../DGC_A230_Functions/DGC_A230_Normal_Mode.c **** 
 4658                             		.loc 1 1426 0
 4659 0307 EC ED 03 00             		br	!!.L305
 4660                             	.L335:
 4661                             	.LBB126:
1413:../DGC_A230_Functions/DGC_A230_Normal_Mode.c **** 				{
 4662                             		.loc 1 1413 0
 4663 030b 8F 00 00                		mov	a, !_CFG_parameter+80
 4664 030e 9D F0                   		mov	r8, a
 4665 0310 4A F0 02                		cmp	r8, #2
 4666 0313 61 E8                   		 skz
 4667 0315 EC 3C 03 00             		 br	!!.L333
1415:../DGC_A230_Functions/DGC_A230_Normal_Mode.c **** 					{
 4668                             		.loc 1 1415 0
 4669 0319 8F 00 00                		mov	a, !_CFG_parameter+81
 4670 031c 9D F0                   		mov	r8, a
 4671 031e D4 F0                   		cmp0	r8
 4672 0320 61 F8                   		 sknz
 4673 0322 EC 31 03 00             		 br	!!.L339
1417:../DGC_A230_Functions/DGC_A230_Normal_Mode.c **** 					}
 4674                             		.loc 1 1417 0
 4675 0326 F6                      		clrw	ax
 4676 0327 B8 00                   		movw	[sp], ax
 4677 0329 FC 00 00 00             		call	!!%code(___Do_Partial_Stop_Gate)
 4678 032d EC 3C 03 00             		br	!!.L333
 4679                             	.L339:
 4680                             	.LBB125:
1421:../DGC_A230_Functions/DGC_A230_Normal_Mode.c **** 						__Do_Partial_Close_Gate();
 4681                             		.loc 1 1421 0
 4682 0331 F5 00 00                		clrb	!_Pre_flash_Time
1422:../DGC_A230_Functions/DGC_A230_Normal_Mode.c **** 					}
 4683                             		.loc 1 1422 0
 4684 0334 FC 00 00 00             		call	!!%code(___Do_Partial_Close_Gate)
 4685                             	.LBE125:
 4686                             	.LBE126:
1426:../DGC_A230_Functions/DGC_A230_Normal_Mode.c **** 
 4687                             		.loc 1 1426 0
 4688 0338 EC ED 03 00             		br	!!.L305
 4689                             	.L333:
1426:../DGC_A230_Functions/DGC_A230_Normal_Mode.c **** 
 4690                             		.loc 1 1426 0 is_stmt 0 discriminator 3
 4691 033c EC ED 03 00             		br	!!.L305
 4692                             	.L312:
1430:../DGC_A230_Functions/DGC_A230_Normal_Mode.c **** 			{
 4693                             		.loc 1 1430 0 is_stmt 1
 4694 0340 8F 00 00                		mov	a, !_CFG_parameter+81
 4695 0343 9D F0                   		mov	r8, a
 4696 0345 D4 F0                   		cmp0	r8
 4697 0347 61 F8                   		 sknz
 4698 0349 EC EC 03 00             		 br	!!.L340
 4699                             	.LBB127:
1432:../DGC_A230_Functions/DGC_A230_Normal_Mode.c **** 				if (CFG_parameter.Photocell_Enable_Braking == 0x01)
 4700                             		.loc 1 1432 0
 4701 034d 51 07                   		mov	a, #7
 4702 034f 9F 00 00                		mov	!_Leaf_No1_State, a
1433:../DGC_A230_Functions/DGC_A230_Normal_Mode.c **** 				{
 4703                             		.loc 1 1433 0
 4704 0352 8F 00 00                		mov	a, !_CFG_parameter+88
 4705 0355 9D F0                   		mov	r8, a
 4706 0357 4A F0 01                		cmp	r8, #1
 4707 035a 61 E8                   		 skz
 4708 035c EC 67 03 00             		 br	!!.L341
 4709                             	.LBB128:
1435:../DGC_A230_Functions/DGC_A230_Normal_Mode.c **** 				}
 4710                             		.loc 1 1435 0
 4711 0360 E6                      		onew	ax
 4712 0361 B8 00                   		movw	[sp], ax
 4713 0363 FC 00 00 00             		call	!!%code(___Do_Brake_Motor_Type_1)
 4714                             	.L341:
 4715                             	.LBE128:
1437:../DGC_A230_Functions/DGC_A230_Normal_Mode.c **** 
 4716                             		.loc 1 1437 0
 4717 0367 E6                      		onew	ax
 4718 0368 B8 00                   		movw	[sp], ax
 4719 036a FC 00 00 00             		call	!!%code(___Do_Partial_Stop_Gate)
1439:../DGC_A230_Functions/DGC_A230_Normal_Mode.c **** 				{
 4720                             		.loc 1 1439 0
 4721 036e 8F 00 00                		mov	a, !_CFG_parameter+81
 4722 0371 9D F0                   		mov	r8, a
 4723 0373 4A F0 02                		cmp	r8, #2
 4724 0376 61 E3                   		 skh
 4725 0378 EC BB 03 00             		 br	!!.L342
1441:../DGC_A230_Functions/DGC_A230_Normal_Mode.c **** 					if (CFG_parameter.Photocell_FT1_Mode_Closing == 0x03)	// Temporary Stop
 4726                             		.loc 1 1441 0
 4727 037c 00                      		nop
 4728                             	.L343:
1441:../DGC_A230_Functions/DGC_A230_Normal_Mode.c **** 					if (CFG_parameter.Photocell_FT1_Mode_Closing == 0x03)	// Temporary Stop
 4729                             		.loc 1 1441 0 is_stmt 0 discriminator 1
 4730 037d C9 F0 07 FF             		movw	r8, #-249
 4731 0381 AD F0                   		movw	ax, r8
 4732 0383 BD F2                   		movw	r10, ax
 4733 0385 FA F2                   		movw	hl, r10
 4734 0387 8B                      		mov	a, [hl]
 4735 0388 9D F0                   		mov	r8, a
 4736 038a 31 1A                   		shr	a, 1
 4737 038c 9D F0                   		mov	r8, a
 4738 038e 5A F0 01                		and	r8, #1
 4739 0391 61 E8                   		skz
 4740 0393 EC 7D 03 00             		 br	!!.L343
 4741                             		 # zero-comparison eliminated
1442:../DGC_A230_Functions/DGC_A230_Normal_Mode.c **** 					{
 4742                             		.loc 1 1442 0 is_stmt 1
 4743 0397 8F 00 00                		mov	a, !_CFG_parameter+81
 4744 039a 9D F0                   		mov	r8, a
 4745 039c 4A F0 03                		cmp	r8, #3
 4746 039f 61 E8                   		 skz
 4747 03a1 EC B0 03 00             		 br	!!.L344
 4748                             	.LBB129:
1444:../DGC_A230_Functions/DGC_A230_Normal_Mode.c **** 						__Do_Partial_Close_Gate();
 4749                             		.loc 1 1444 0
 4750 03a5 F5 00 00                		clrb	!_Pre_flash_Time
1445:../DGC_A230_Functions/DGC_A230_Normal_Mode.c **** 					}
 4751                             		.loc 1 1445 0
 4752 03a8 FC 00 00 00             		call	!!%code(___Do_Partial_Close_Gate)
 4753                             	.LBE129:
 4754 03ac EC EC 03 00             		br	!!.L340
 4755                             	.L344:
 4756                             	.LBB130:
1449:../DGC_A230_Functions/DGC_A230_Normal_Mode.c **** 						__Do_Partial_Open_Gate();
 4757                             		.loc 1 1449 0
 4758 03b0 F5 00 00                		clrb	!_Pre_flash_Time
1450:../DGC_A230_Functions/DGC_A230_Normal_Mode.c **** 					}
 4759                             		.loc 1 1450 0
 4760 03b3 FC 00 00 00             		call	!!%code(___Do_Partial_Open_Gate)
 4761                             	.LBE130:
 4762                             	.LBE127:
1466:../DGC_A230_Functions/DGC_A230_Normal_Mode.c **** 
 4763                             		.loc 1 1466 0
 4764 03b7 EC EC 03 00             		br	!!.L347
 4765                             	.L342:
 4766                             	.LBB132:
1453:../DGC_A230_Functions/DGC_A230_Normal_Mode.c **** 				{
 4767                             		.loc 1 1453 0
 4768 03bb 8F 00 00                		mov	a, !_CFG_parameter+81
 4769 03be 9D F0                   		mov	r8, a
 4770 03c0 4A F0 02                		cmp	r8, #2
 4771 03c3 61 E8                   		 skz
 4772 03c5 EC EC 03 00             		 br	!!.L340
1455:../DGC_A230_Functions/DGC_A230_Normal_Mode.c **** 					{
 4773                             		.loc 1 1455 0
 4774 03c9 8F 00 00                		mov	a, !_CFG_parameter+80
 4775 03cc 9D F0                   		mov	r8, a
 4776 03ce D4 F0                   		cmp0	r8
 4777 03d0 61 F8                   		 sknz
 4778 03d2 EC E1 03 00             		 br	!!.L346
1457:../DGC_A230_Functions/DGC_A230_Normal_Mode.c **** 					}
 4779                             		.loc 1 1457 0
 4780 03d6 E6                      		onew	ax
 4781 03d7 B8 00                   		movw	[sp], ax
 4782 03d9 FC 00 00 00             		call	!!%code(___Do_Partial_Stop_Gate)
 4783 03dd EC EC 03 00             		br	!!.L340
 4784                             	.L346:
 4785                             	.LBB131:
1461:../DGC_A230_Functions/DGC_A230_Normal_Mode.c **** 						__Do_Partial_Open_Gate();
 4786                             		.loc 1 1461 0
 4787 03e1 F5 00 00                		clrb	!_Pre_flash_Time
1462:../DGC_A230_Functions/DGC_A230_Normal_Mode.c **** 					}
 4788                             		.loc 1 1462 0
 4789 03e4 FC 00 00 00             		call	!!%code(___Do_Partial_Open_Gate)
 4790                             	.LBE131:
 4791                             	.LBE132:
1466:../DGC_A230_Functions/DGC_A230_Normal_Mode.c **** 
 4792                             		.loc 1 1466 0
 4793 03e8 EC EC 03 00             		br	!!.L347
 4794                             	.L340:
 4795                             	.L347:
 4796 03ec 00                      		nop
 4797                             	.L305:
1469:../DGC_A230_Functions/DGC_A230_Normal_Mode.c **** 	}
1470:../DGC_A230_Functions/DGC_A230_Normal_Mode.c **** 
1471:../DGC_A230_Functions/DGC_A230_Normal_Mode.c **** }
 4798                             		.loc 1 1471 0
 4799 03ed 10 02                   		addw	sp, #2
 4800 03ef D7                      		ret
 4801                             	.LFE16:
 4803                             		.section	.text.Photocell_FT2_Process,"ax",@progbits
 4804                             		.global	_Photocell_FT2_Process
 4806                             	_Photocell_FT2_Process:
 4807                             	.LFB17:
1472:../DGC_A230_Functions/DGC_A230_Normal_Mode.c **** 
1473:../DGC_A230_Functions/DGC_A230_Normal_Mode.c **** void Photocell_FT2_Process (void)
1474:../DGC_A230_Functions/DGC_A230_Normal_Mode.c **** {
 4808                             		.loc 1 1474 0
 4809                             		; start of function
 4810                             		; outgoing: 2 bytes
 4811                             		; uses ES register
 4812 0000 20 02                   		subw	sp, #2
 4813                             	.LCFI13:
1475:../DGC_A230_Functions/DGC_A230_Normal_Mode.c **** 	switch(Machine_State)
 4814                             		.loc 1 1475 0
 4815 0002 8F 00 00                		mov	a, !_Machine_State
 4816 0005 9D F0                   		mov	r8, a
 4817 0007 F4 F1                   		clrb	r9
 4818 0009 AD F0                   		movw	ax, r8
 4819 000b 44 02 00                		cmpw	ax, #2
 4820 000e 61 F8                   		 sknz
 4821 0010 EC A2 01 00             		 br	!!.L350
 4822 0014 AD F0                   		movw	ax, r8
 4823 0016 44 02 00                		cmpw	ax, #2
 4824 0019 71 FF                   		 xor1	CY, a.7
 4825 001b 61 F3                   		 sknh
 4826 001d EC 3B 00 00             		 br	!!.L351
 4827 0021 AD F0                   		movw	ax, r8
 4828 0023 44 00 00                		cmpw	ax, #0
 4829 0026 61 F8                   		 sknz
 4830 0028 EC 55 00 00             		 br	!!.L352
 4831 002c AD F0                   		movw	ax, r8
 4832 002e 44 01 00                		cmpw	ax, #1
 4833 0031 61 F8                   		 sknz
 4834 0033 EC BD 00 00             		 br	!!.L353
1476:../DGC_A230_Functions/DGC_A230_Normal_Mode.c **** 	{
1477:../DGC_A230_Functions/DGC_A230_Normal_Mode.c **** 		case MACHINE_STATE_STOP:
1478:../DGC_A230_Functions/DGC_A230_Normal_Mode.c **** 		{
1479:../DGC_A230_Functions/DGC_A230_Normal_Mode.c **** 			if ((Leaf_No1_State == GATE_STATE_CLOSED) && (CFG_parameter.Photocell_FT2_Mode_Closed == 0x02))
1480:../DGC_A230_Functions/DGC_A230_Normal_Mode.c **** 			{
1481:../DGC_A230_Functions/DGC_A230_Normal_Mode.c **** 				Pre_flash_Time = CFG_parameter.Pre_Flashing;
1482:../DGC_A230_Functions/DGC_A230_Normal_Mode.c **** 				__Do_Open_Gate_Motor1();
1483:../DGC_A230_Functions/DGC_A230_Normal_Mode.c **** 				__Do_Open_Gate_Motor2();
1484:../DGC_A230_Functions/DGC_A230_Normal_Mode.c **** 			}
1485:../DGC_A230_Functions/DGC_A230_Normal_Mode.c **** 			else if ((Leaf_No1_State != GATE_STATE_CLOSED) && (CFG_parameter.Close_Command_Enable_Photocell 
1486:../DGC_A230_Functions/DGC_A230_Normal_Mode.c **** 			{
1487:../DGC_A230_Functions/DGC_A230_Normal_Mode.c **** 				while(FT2);
1488:../DGC_A230_Functions/DGC_A230_Normal_Mode.c **** 				// When the photocell gate FT1 is crossed, a close command is sent 6 seconds later.
1489:../DGC_A230_Functions/DGC_A230_Normal_Mode.c **** 			}
1490:../DGC_A230_Functions/DGC_A230_Normal_Mode.c **** 		} break;
1491:../DGC_A230_Functions/DGC_A230_Normal_Mode.c **** 
1492:../DGC_A230_Functions/DGC_A230_Normal_Mode.c **** 		case MACHINE_STATE_NORMAL_OPENING:
1493:../DGC_A230_Functions/DGC_A230_Normal_Mode.c **** 		{
1494:../DGC_A230_Functions/DGC_A230_Normal_Mode.c **** 			if (CFG_parameter.Photocell_FT2_Mode_Opening != 0x00)
1495:../DGC_A230_Functions/DGC_A230_Normal_Mode.c **** 			{
1496:../DGC_A230_Functions/DGC_A230_Normal_Mode.c **** 				Leaf_No1_State = GATE_STATE_OPENING_PAUSE;
1497:../DGC_A230_Functions/DGC_A230_Normal_Mode.c **** 				Leaf_No2_State = GATE_STATE_OPENING_PAUSE;
1498:../DGC_A230_Functions/DGC_A230_Normal_Mode.c **** 				if (CFG_parameter.Photocell_Enable_Braking == 0x01)
1499:../DGC_A230_Functions/DGC_A230_Normal_Mode.c **** 				{
1500:../DGC_A230_Functions/DGC_A230_Normal_Mode.c **** 					if (CFG_parameter.Number_Of_Motors == 0x02)
1501:../DGC_A230_Functions/DGC_A230_Normal_Mode.c **** 						__Do_Brake_Motor_Type_2(OPEN_MOVING_DIRECTION);
1502:../DGC_A230_Functions/DGC_A230_Normal_Mode.c **** 					else
1503:../DGC_A230_Functions/DGC_A230_Normal_Mode.c **** 						__Do_Brake_Motor_Type_1(OPEN_MOVING_DIRECTION);
1504:../DGC_A230_Functions/DGC_A230_Normal_Mode.c **** 				}
1505:../DGC_A230_Functions/DGC_A230_Normal_Mode.c **** 				__Do_Stop_Gate_Motor1(OPEN_MOVING_DIRECTION);
1506:../DGC_A230_Functions/DGC_A230_Normal_Mode.c **** 				__Do_Stop_Gate_Motor2(OPEN_MOVING_DIRECTION);
1507:../DGC_A230_Functions/DGC_A230_Normal_Mode.c **** 
1508:../DGC_A230_Functions/DGC_A230_Normal_Mode.c **** 				if (CFG_parameter.Photocell_FT2_Mode_Opening > 0x02)
1509:../DGC_A230_Functions/DGC_A230_Normal_Mode.c **** 				{
1510:../DGC_A230_Functions/DGC_A230_Normal_Mode.c **** 					while(FT2);
1511:../DGC_A230_Functions/DGC_A230_Normal_Mode.c **** 					if (CFG_parameter.Photocell_FT2_Mode_Opening == 0x03)		// Temporary Stop
1512:../DGC_A230_Functions/DGC_A230_Normal_Mode.c **** 					{
1513:../DGC_A230_Functions/DGC_A230_Normal_Mode.c **** 						Pre_flash_Time = 0x00;
1514:../DGC_A230_Functions/DGC_A230_Normal_Mode.c **** 						__Do_Open_Gate_Motor1();
1515:../DGC_A230_Functions/DGC_A230_Normal_Mode.c **** 						__Do_Open_Gate_Motor2();
1516:../DGC_A230_Functions/DGC_A230_Normal_Mode.c **** 					}
1517:../DGC_A230_Functions/DGC_A230_Normal_Mode.c **** 					else														//	Delayed Reverse
1518:../DGC_A230_Functions/DGC_A230_Normal_Mode.c **** 					{
1519:../DGC_A230_Functions/DGC_A230_Normal_Mode.c **** 						Pre_flash_Time = 0x00;
1520:../DGC_A230_Functions/DGC_A230_Normal_Mode.c **** 						__Do_Close_Gate_Motor1();
1521:../DGC_A230_Functions/DGC_A230_Normal_Mode.c **** 						__Do_Close_Gate_Motor2();
1522:../DGC_A230_Functions/DGC_A230_Normal_Mode.c **** 					}
1523:../DGC_A230_Functions/DGC_A230_Normal_Mode.c **** 				}
1524:../DGC_A230_Functions/DGC_A230_Normal_Mode.c **** 				else if (CFG_parameter.Photocell_FT2_Mode_Opening == 0x02)		// Immediate Reverse
1525:../DGC_A230_Functions/DGC_A230_Normal_Mode.c **** 				{
1526:../DGC_A230_Functions/DGC_A230_Normal_Mode.c **** 					if (CFG_parameter.Photocell_FT2_Mode_Closing != 0x00)
1527:../DGC_A230_Functions/DGC_A230_Normal_Mode.c **** 					{
1528:../DGC_A230_Functions/DGC_A230_Normal_Mode.c **** 						__Do_Stop_Gate_Motor1(OPEN_MOVING_DIRECTION);
1529:../DGC_A230_Functions/DGC_A230_Normal_Mode.c **** 						__Do_Stop_Gate_Motor2(OPEN_MOVING_DIRECTION);
1530:../DGC_A230_Functions/DGC_A230_Normal_Mode.c **** 					}
1531:../DGC_A230_Functions/DGC_A230_Normal_Mode.c **** 					else
1532:../DGC_A230_Functions/DGC_A230_Normal_Mode.c **** 					{
1533:../DGC_A230_Functions/DGC_A230_Normal_Mode.c **** 						Pre_flash_Time = 0x00;
1534:../DGC_A230_Functions/DGC_A230_Normal_Mode.c **** 						__Do_Close_Gate_Motor1();
1535:../DGC_A230_Functions/DGC_A230_Normal_Mode.c **** 						__Do_Close_Gate_Motor2();
1536:../DGC_A230_Functions/DGC_A230_Normal_Mode.c **** 					}
1537:../DGC_A230_Functions/DGC_A230_Normal_Mode.c **** 				}
1538:../DGC_A230_Functions/DGC_A230_Normal_Mode.c **** 			}
1539:../DGC_A230_Functions/DGC_A230_Normal_Mode.c **** 		} break;
1540:../DGC_A230_Functions/DGC_A230_Normal_Mode.c **** 
1541:../DGC_A230_Functions/DGC_A230_Normal_Mode.c **** 		case MACHINE_STATE_NORMAL_CLOSING:
1542:../DGC_A230_Functions/DGC_A230_Normal_Mode.c **** 		{
1543:../DGC_A230_Functions/DGC_A230_Normal_Mode.c **** 			if (CFG_parameter.Photocell_FT2_Mode_Closing != 0x00)
1544:../DGC_A230_Functions/DGC_A230_Normal_Mode.c **** 			{
1545:../DGC_A230_Functions/DGC_A230_Normal_Mode.c **** 				Leaf_No1_State = GATE_STATE_CLOSING_PAUSE;
1546:../DGC_A230_Functions/DGC_A230_Normal_Mode.c **** 				Leaf_No2_State = GATE_STATE_CLOSING_PAUSE;
1547:../DGC_A230_Functions/DGC_A230_Normal_Mode.c **** 				if (CFG_parameter.Photocell_Enable_Braking == 0x01)
1548:../DGC_A230_Functions/DGC_A230_Normal_Mode.c **** 				{
1549:../DGC_A230_Functions/DGC_A230_Normal_Mode.c **** 					if (CFG_parameter.Number_Of_Motors == 0x02)
1550:../DGC_A230_Functions/DGC_A230_Normal_Mode.c **** 						__Do_Brake_Motor_Type_2(CLOSE_MOVING_DIRECTION);
1551:../DGC_A230_Functions/DGC_A230_Normal_Mode.c **** 					else
1552:../DGC_A230_Functions/DGC_A230_Normal_Mode.c **** 						__Do_Brake_Motor_Type_1(CLOSE_MOVING_DIRECTION);
1553:../DGC_A230_Functions/DGC_A230_Normal_Mode.c **** 				}
1554:../DGC_A230_Functions/DGC_A230_Normal_Mode.c **** 				__Do_Stop_Gate_Motor1(CLOSE_MOVING_DIRECTION);
1555:../DGC_A230_Functions/DGC_A230_Normal_Mode.c **** 				__Do_Stop_Gate_Motor2(CLOSE_MOVING_DIRECTION);
1556:../DGC_A230_Functions/DGC_A230_Normal_Mode.c **** 
1557:../DGC_A230_Functions/DGC_A230_Normal_Mode.c **** 				if (CFG_parameter.Photocell_FT2_Mode_Closing > 0x02)
1558:../DGC_A230_Functions/DGC_A230_Normal_Mode.c **** 				{
1559:../DGC_A230_Functions/DGC_A230_Normal_Mode.c **** 					while(FT2);
1560:../DGC_A230_Functions/DGC_A230_Normal_Mode.c **** 					if (CFG_parameter.Photocell_FT2_Mode_Closing == 0x03)	// Temporary Stop
1561:../DGC_A230_Functions/DGC_A230_Normal_Mode.c **** 					{
1562:../DGC_A230_Functions/DGC_A230_Normal_Mode.c **** 						Pre_flash_Time = 0x00;
1563:../DGC_A230_Functions/DGC_A230_Normal_Mode.c **** 						__Do_Close_Gate_Motor1();
1564:../DGC_A230_Functions/DGC_A230_Normal_Mode.c **** 						__Do_Close_Gate_Motor2();
1565:../DGC_A230_Functions/DGC_A230_Normal_Mode.c **** 					}
1566:../DGC_A230_Functions/DGC_A230_Normal_Mode.c **** 					else	//Delayed Reverse
1567:../DGC_A230_Functions/DGC_A230_Normal_Mode.c **** 					{
1568:../DGC_A230_Functions/DGC_A230_Normal_Mode.c **** 						Pre_flash_Time = 0x00;
1569:../DGC_A230_Functions/DGC_A230_Normal_Mode.c **** 						__Do_Open_Gate_Motor1();
1570:../DGC_A230_Functions/DGC_A230_Normal_Mode.c **** 						__Do_Open_Gate_Motor2();
1571:../DGC_A230_Functions/DGC_A230_Normal_Mode.c **** 					}
1572:../DGC_A230_Functions/DGC_A230_Normal_Mode.c **** 				}
1573:../DGC_A230_Functions/DGC_A230_Normal_Mode.c **** 				else if (CFG_parameter.Photocell_FT2_Mode_Closing == 0x02)	// Immediate Reverse
1574:../DGC_A230_Functions/DGC_A230_Normal_Mode.c **** 				{
1575:../DGC_A230_Functions/DGC_A230_Normal_Mode.c **** 					if (CFG_parameter.Photocell_FT2_Mode_Opening != 0x00)
1576:../DGC_A230_Functions/DGC_A230_Normal_Mode.c **** 					{
1577:../DGC_A230_Functions/DGC_A230_Normal_Mode.c **** 						__Do_Stop_Gate_Motor1(CLOSE_MOVING_DIRECTION);
1578:../DGC_A230_Functions/DGC_A230_Normal_Mode.c **** 						__Do_Stop_Gate_Motor2(CLOSE_MOVING_DIRECTION);
1579:../DGC_A230_Functions/DGC_A230_Normal_Mode.c **** 					}
1580:../DGC_A230_Functions/DGC_A230_Normal_Mode.c **** 					else
1581:../DGC_A230_Functions/DGC_A230_Normal_Mode.c **** 					{
1582:../DGC_A230_Functions/DGC_A230_Normal_Mode.c **** 						Pre_flash_Time = 0x00;
1583:../DGC_A230_Functions/DGC_A230_Normal_Mode.c **** 						__Do_Open_Gate_Motor1();
1584:../DGC_A230_Functions/DGC_A230_Normal_Mode.c **** 						__Do_Open_Gate_Motor2();
1585:../DGC_A230_Functions/DGC_A230_Normal_Mode.c **** 					}
1586:../DGC_A230_Functions/DGC_A230_Normal_Mode.c **** 				}
1587:../DGC_A230_Functions/DGC_A230_Normal_Mode.c **** 			}
1588:../DGC_A230_Functions/DGC_A230_Normal_Mode.c **** 		} break;
1589:../DGC_A230_Functions/DGC_A230_Normal_Mode.c **** 
1590:../DGC_A230_Functions/DGC_A230_Normal_Mode.c **** 		case MACHINE_STATE_PARTIAL_OPENING:
1591:../DGC_A230_Functions/DGC_A230_Normal_Mode.c **** 		{
1592:../DGC_A230_Functions/DGC_A230_Normal_Mode.c **** 			if (CFG_parameter.Photocell_FT2_Mode_Opening != 0x00)
1593:../DGC_A230_Functions/DGC_A230_Normal_Mode.c **** 			{
1594:../DGC_A230_Functions/DGC_A230_Normal_Mode.c **** 				Leaf_No1_State = GATE_STATE_PATIAL_OPENING_PAUSE;
1595:../DGC_A230_Functions/DGC_A230_Normal_Mode.c **** 				if (CFG_parameter.Photocell_Enable_Braking == 0x01)
1596:../DGC_A230_Functions/DGC_A230_Normal_Mode.c **** 				{
1597:../DGC_A230_Functions/DGC_A230_Normal_Mode.c **** 					__Do_Brake_Motor_Type_1(OPEN_MOVING_DIRECTION);
1598:../DGC_A230_Functions/DGC_A230_Normal_Mode.c **** 				}
1599:../DGC_A230_Functions/DGC_A230_Normal_Mode.c **** 				__Do_Partial_Stop_Gate(OPEN_MOVING_DIRECTION);
1600:../DGC_A230_Functions/DGC_A230_Normal_Mode.c **** 
1601:../DGC_A230_Functions/DGC_A230_Normal_Mode.c **** 				if (CFG_parameter.Photocell_FT2_Mode_Opening > 0x02)
1602:../DGC_A230_Functions/DGC_A230_Normal_Mode.c **** 				{
1603:../DGC_A230_Functions/DGC_A230_Normal_Mode.c **** 					while(FT2);
1604:../DGC_A230_Functions/DGC_A230_Normal_Mode.c **** 					if (CFG_parameter.Photocell_FT2_Mode_Opening == 0x03)		// Temporary Stop
1605:../DGC_A230_Functions/DGC_A230_Normal_Mode.c **** 					{
1606:../DGC_A230_Functions/DGC_A230_Normal_Mode.c **** 						Pre_flash_Time = 0x00;
1607:../DGC_A230_Functions/DGC_A230_Normal_Mode.c **** 						__Do_Partial_Open_Gate();
1608:../DGC_A230_Functions/DGC_A230_Normal_Mode.c **** 					}
1609:../DGC_A230_Functions/DGC_A230_Normal_Mode.c **** 					else														//	Delayed Reverse
1610:../DGC_A230_Functions/DGC_A230_Normal_Mode.c **** 					{
1611:../DGC_A230_Functions/DGC_A230_Normal_Mode.c **** 						Pre_flash_Time = 0x00;
1612:../DGC_A230_Functions/DGC_A230_Normal_Mode.c **** 						__Do_Partial_Close_Gate();
1613:../DGC_A230_Functions/DGC_A230_Normal_Mode.c **** 					}
1614:../DGC_A230_Functions/DGC_A230_Normal_Mode.c **** 				}
1615:../DGC_A230_Functions/DGC_A230_Normal_Mode.c **** 				else if (CFG_parameter.Photocell_FT2_Mode_Opening == 0x02)		// Immediate Reverse
1616:../DGC_A230_Functions/DGC_A230_Normal_Mode.c **** 				{
1617:../DGC_A230_Functions/DGC_A230_Normal_Mode.c **** 					if (CFG_parameter.Photocell_FT2_Mode_Closing != 0x00)
1618:../DGC_A230_Functions/DGC_A230_Normal_Mode.c **** 					{
1619:../DGC_A230_Functions/DGC_A230_Normal_Mode.c **** 						__Do_Partial_Stop_Gate(OPEN_MOVING_DIRECTION);
1620:../DGC_A230_Functions/DGC_A230_Normal_Mode.c **** 					}
1621:../DGC_A230_Functions/DGC_A230_Normal_Mode.c **** 					else
1622:../DGC_A230_Functions/DGC_A230_Normal_Mode.c **** 					{
1623:../DGC_A230_Functions/DGC_A230_Normal_Mode.c **** 						Pre_flash_Time = 0x00;
1624:../DGC_A230_Functions/DGC_A230_Normal_Mode.c **** 						__Do_Partial_Close_Gate();
1625:../DGC_A230_Functions/DGC_A230_Normal_Mode.c **** 					}
1626:../DGC_A230_Functions/DGC_A230_Normal_Mode.c **** 				}
1627:../DGC_A230_Functions/DGC_A230_Normal_Mode.c **** 			}
1628:../DGC_A230_Functions/DGC_A230_Normal_Mode.c **** 		} break;
1629:../DGC_A230_Functions/DGC_A230_Normal_Mode.c **** 
1630:../DGC_A230_Functions/DGC_A230_Normal_Mode.c **** 		case MACHINE_STATE_PARTIAL_CLOSING:
1631:../DGC_A230_Functions/DGC_A230_Normal_Mode.c **** 		{
1632:../DGC_A230_Functions/DGC_A230_Normal_Mode.c **** 			if (CFG_parameter.Photocell_FT2_Mode_Closing != 0x00)
1633:../DGC_A230_Functions/DGC_A230_Normal_Mode.c **** 			{
1634:../DGC_A230_Functions/DGC_A230_Normal_Mode.c **** 				Leaf_No1_State = GATE_STATE_CLOSING_PAUSE;
1635:../DGC_A230_Functions/DGC_A230_Normal_Mode.c **** 				if (CFG_parameter.Photocell_Enable_Braking == 0x01)
1636:../DGC_A230_Functions/DGC_A230_Normal_Mode.c **** 				{
1637:../DGC_A230_Functions/DGC_A230_Normal_Mode.c **** 					__Do_Brake_Motor_Type_1(CLOSE_MOVING_DIRECTION);
1638:../DGC_A230_Functions/DGC_A230_Normal_Mode.c **** 				}
1639:../DGC_A230_Functions/DGC_A230_Normal_Mode.c **** 				__Do_Partial_Stop_Gate(CLOSE_MOVING_DIRECTION);
1640:../DGC_A230_Functions/DGC_A230_Normal_Mode.c **** 
1641:../DGC_A230_Functions/DGC_A230_Normal_Mode.c **** 				if (CFG_parameter.Photocell_FT2_Mode_Closing > 0x02)
1642:../DGC_A230_Functions/DGC_A230_Normal_Mode.c **** 				{
1643:../DGC_A230_Functions/DGC_A230_Normal_Mode.c **** 					while(FT2);
1644:../DGC_A230_Functions/DGC_A230_Normal_Mode.c **** 					if (CFG_parameter.Photocell_FT2_Mode_Closing == 0x03)	// Temporary Stop
1645:../DGC_A230_Functions/DGC_A230_Normal_Mode.c **** 					{
1646:../DGC_A230_Functions/DGC_A230_Normal_Mode.c **** 						Pre_flash_Time = 0x00;
1647:../DGC_A230_Functions/DGC_A230_Normal_Mode.c **** 						__Do_Partial_Close_Gate();
1648:../DGC_A230_Functions/DGC_A230_Normal_Mode.c **** 					}
1649:../DGC_A230_Functions/DGC_A230_Normal_Mode.c **** 					else	//Delayed Reverse
1650:../DGC_A230_Functions/DGC_A230_Normal_Mode.c **** 					{
1651:../DGC_A230_Functions/DGC_A230_Normal_Mode.c **** 						Pre_flash_Time = 0x00;
1652:../DGC_A230_Functions/DGC_A230_Normal_Mode.c **** 						__Do_Partial_Open_Gate();
1653:../DGC_A230_Functions/DGC_A230_Normal_Mode.c **** 					}
1654:../DGC_A230_Functions/DGC_A230_Normal_Mode.c **** 				}
1655:../DGC_A230_Functions/DGC_A230_Normal_Mode.c **** 				else if (CFG_parameter.Photocell_FT2_Mode_Closing == 0x02)	// Immediate Reverse
1656:../DGC_A230_Functions/DGC_A230_Normal_Mode.c **** 				{
1657:../DGC_A230_Functions/DGC_A230_Normal_Mode.c **** 					if (CFG_parameter.Photocell_FT2_Mode_Opening != 0x00)
1658:../DGC_A230_Functions/DGC_A230_Normal_Mode.c **** 					{
1659:../DGC_A230_Functions/DGC_A230_Normal_Mode.c **** 						__Do_Partial_Stop_Gate(CLOSE_MOVING_DIRECTION);
1660:../DGC_A230_Functions/DGC_A230_Normal_Mode.c **** 					}
1661:../DGC_A230_Functions/DGC_A230_Normal_Mode.c **** 					else
1662:../DGC_A230_Functions/DGC_A230_Normal_Mode.c **** 					{
1663:../DGC_A230_Functions/DGC_A230_Normal_Mode.c **** 						Pre_flash_Time = 0x00;
1664:../DGC_A230_Functions/DGC_A230_Normal_Mode.c **** 						__Do_Partial_Open_Gate();
1665:../DGC_A230_Functions/DGC_A230_Normal_Mode.c **** 					}
1666:../DGC_A230_Functions/DGC_A230_Normal_Mode.c **** 				}
1667:../DGC_A230_Functions/DGC_A230_Normal_Mode.c **** 			}
1668:../DGC_A230_Functions/DGC_A230_Normal_Mode.c **** 		} break;
1669:../DGC_A230_Functions/DGC_A230_Normal_Mode.c **** 
1670:../DGC_A230_Functions/DGC_A230_Normal_Mode.c **** 		default: break;
 4835                             		.loc 1 1670 0
 4836 0037 EC DE 03 00             		br	!!.L348
 4837                             	.L351:
1475:../DGC_A230_Functions/DGC_A230_Normal_Mode.c **** 	switch(Machine_State)
 4838                             		.loc 1 1475 0
 4839 003b AD F0                   		movw	ax, r8
 4840 003d 44 03 00                		cmpw	ax, #3
 4841 0040 61 F8                   		 sknz
 4842 0042 EC 87 02 00             		 br	!!.L354
 4843 0046 AD F0                   		movw	ax, r8
 4844 0048 44 04 00                		cmpw	ax, #4
 4845 004b 61 F8                   		 sknz
 4846 004d EC 34 03 00             		 br	!!.L355
 4847                             		.loc 1 1670 0
 4848 0051 EC DE 03 00             		br	!!.L348
 4849                             	.L352:
1479:../DGC_A230_Functions/DGC_A230_Normal_Mode.c **** 			{
 4850                             		.loc 1 1479 0
 4851 0055 8F 00 00                		mov	a, !_Leaf_No1_State
 4852 0058 9D F0                   		mov	r8, a
 4853 005a 4A F0 01                		cmp	r8, #1
 4854 005d 61 E8                   		 skz
 4855 005f EC 85 00 00             		 br	!!.L356
1479:../DGC_A230_Functions/DGC_A230_Normal_Mode.c **** 			{
 4856                             		.loc 1 1479 0 is_stmt 0 discriminator 1
 4857 0063 8F 00 00                		mov	a, !_CFG_parameter+85
 4858 0066 9D F0                   		mov	r8, a
 4859 0068 4A F0 02                		cmp	r8, #2
 4860 006b 61 E8                   		 skz
 4861 006d EC 85 00 00             		 br	!!.L356
 4862                             	.LBB133:
1481:../DGC_A230_Functions/DGC_A230_Normal_Mode.c **** 				__Do_Open_Gate_Motor1();
 4863                             		.loc 1 1481 0 is_stmt 1
 4864 0071 8F 00 00                		mov	a, !_CFG_parameter+52
 4865 0074 9D F0                   		mov	r8, a
 4866 0076 9F 00 00                		mov	!_Pre_flash_Time, a
1482:../DGC_A230_Functions/DGC_A230_Normal_Mode.c **** 				__Do_Open_Gate_Motor2();
 4867                             		.loc 1 1482 0
 4868 0079 FC 00 00 00             		call	!!%code(___Do_Open_Gate_Motor1)
1483:../DGC_A230_Functions/DGC_A230_Normal_Mode.c **** 			}
 4869                             		.loc 1 1483 0
 4870 007d FC 00 00 00             		call	!!%code(___Do_Open_Gate_Motor2)
 4871                             	.LBE133:
1480:../DGC_A230_Functions/DGC_A230_Normal_Mode.c **** 				Pre_flash_Time = CFG_parameter.Pre_Flashing;
 4872                             		.loc 1 1480 0
 4873 0081 EC B9 00 00             		br	!!.L357
 4874                             	.L356:
1485:../DGC_A230_Functions/DGC_A230_Normal_Mode.c **** 			{
 4875                             		.loc 1 1485 0
 4876 0085 8F 00 00                		mov	a, !_Leaf_No1_State
 4877 0088 9D F0                   		mov	r8, a
 4878 008a 4A F0 01                		cmp	r8, #1
 4879 008d 61 F8                   		 sknz
 4880 008f EC B9 00 00             		 br	!!.L357
1485:../DGC_A230_Functions/DGC_A230_Normal_Mode.c **** 			{
 4881                             		.loc 1 1485 0 is_stmt 0 discriminator 1
 4882 0093 8F 00 00                		mov	a, !_CFG_parameter+86
 4883 0096 9D F0                   		mov	r8, a
 4884 0098 4A F0 02                		cmp	r8, #2
 4885 009b 61 E8                   		 skz
 4886 009d EC B9 00 00             		 br	!!.L357
1487:../DGC_A230_Functions/DGC_A230_Normal_Mode.c **** 				// When the photocell gate FT1 is crossed, a close command is sent 6 seconds later.
 4887                             		.loc 1 1487 0 is_stmt 1
 4888 00a1 00                      		nop
 4889                             	.L358:
1487:../DGC_A230_Functions/DGC_A230_Normal_Mode.c **** 				// When the photocell gate FT1 is crossed, a close command is sent 6 seconds later.
 4890                             		.loc 1 1487 0 is_stmt 0 discriminator 1
 4891 00a2 C9 F0 07 FF             		movw	r8, #-249
 4892 00a6 AD F0                   		movw	ax, r8
 4893 00a8 BD F2                   		movw	r10, ax
 4894 00aa EA F2                   		movw	de, r10
 4895 00ac 89                      		mov	a, [de]
 4896 00ad 5C 01                   		and	a, #1
 4897 00af 9D F0                   		mov	r8, a
 4898 00b1 D4 F0                   		cmp0	r8
 4899 00b3 61 E8                   		 skz
 4900 00b5 EC A2 00 00             		 br	!!.L358
 4901                             	.L357:
1490:../DGC_A230_Functions/DGC_A230_Normal_Mode.c **** 
 4902                             		.loc 1 1490 0 is_stmt 1
 4903 00b9 EC DE 03 00             		br	!!.L348
 4904                             	.L353:
1494:../DGC_A230_Functions/DGC_A230_Normal_Mode.c **** 			{
 4905                             		.loc 1 1494 0
 4906 00bd 8F 00 00                		mov	a, !_CFG_parameter+83
 4907 00c0 9D F0                   		mov	r8, a
 4908 00c2 D4 F0                   		cmp0	r8
 4909 00c4 61 F8                   		 sknz
 4910 00c6 EC 9E 01 00             		 br	!!.L360
 4911                             	.LBB134:
1496:../DGC_A230_Functions/DGC_A230_Normal_Mode.c **** 				Leaf_No2_State = GATE_STATE_OPENING_PAUSE;
 4912                             		.loc 1 1496 0
 4913 00ca 51 06                   		mov	a, #6
 4914 00cc 9F 00 00                		mov	!_Leaf_No1_State, a
1497:../DGC_A230_Functions/DGC_A230_Normal_Mode.c **** 				if (CFG_parameter.Photocell_Enable_Braking == 0x01)
 4915                             		.loc 1 1497 0
 4916 00cf 51 06                   		mov	a, #6
 4917 00d1 9F 00 00                		mov	!_Leaf_No2_State, a
1498:../DGC_A230_Functions/DGC_A230_Normal_Mode.c **** 				{
 4918                             		.loc 1 1498 0
 4919 00d4 8F 00 00                		mov	a, !_CFG_parameter+88
 4920 00d7 9D F0                   		mov	r8, a
 4921 00d9 4A F0 01                		cmp	r8, #1
 4922 00dc 61 E8                   		 skz
 4923 00de EC 02 01 00             		 br	!!.L361
 4924                             	.LBB135:
1500:../DGC_A230_Functions/DGC_A230_Normal_Mode.c **** 						__Do_Brake_Motor_Type_2(OPEN_MOVING_DIRECTION);
 4925                             		.loc 1 1500 0
 4926 00e2 8F 00 00                		mov	a, !_CFG_parameter+1
 4927 00e5 9D F0                   		mov	r8, a
 4928 00e7 4A F0 02                		cmp	r8, #2
 4929 00ea 61 E8                   		 skz
 4930 00ec EC FB 00 00             		 br	!!.L362
1501:../DGC_A230_Functions/DGC_A230_Normal_Mode.c **** 					else
 4931                             		.loc 1 1501 0
 4932 00f0 F6                      		clrw	ax
 4933 00f1 B8 00                   		movw	[sp], ax
 4934 00f3 FC 00 00 00             		call	!!%code(___Do_Brake_Motor_Type_2)
 4935 00f7 EC 02 01 00             		br	!!.L361
 4936                             	.L362:
1503:../DGC_A230_Functions/DGC_A230_Normal_Mode.c **** 				}
 4937                             		.loc 1 1503 0
 4938 00fb F6                      		clrw	ax
 4939 00fc B8 00                   		movw	[sp], ax
 4940 00fe FC 00 00 00             		call	!!%code(___Do_Brake_Motor_Type_1)
 4941                             	.L361:
 4942                             	.LBE135:
1505:../DGC_A230_Functions/DGC_A230_Normal_Mode.c **** 				__Do_Stop_Gate_Motor2(OPEN_MOVING_DIRECTION);
 4943                             		.loc 1 1505 0
 4944 0102 F6                      		clrw	ax
 4945 0103 B8 00                   		movw	[sp], ax
 4946 0105 FC 00 00 00             		call	!!%code(___Do_Stop_Gate_Motor1)
1506:../DGC_A230_Functions/DGC_A230_Normal_Mode.c **** 
 4947                             		.loc 1 1506 0
 4948 0109 F6                      		clrw	ax
 4949 010a B8 00                   		movw	[sp], ax
 4950 010c FC 00 00 00             		call	!!%code(___Do_Stop_Gate_Motor2)
1508:../DGC_A230_Functions/DGC_A230_Normal_Mode.c **** 				{
 4951                             		.loc 1 1508 0
 4952 0110 8F 00 00                		mov	a, !_CFG_parameter+83
 4953 0113 9D F0                   		mov	r8, a
 4954 0115 4A F0 02                		cmp	r8, #2
 4955 0118 61 E3                   		 skh
 4956 011a EC 62 01 00             		 br	!!.L363
1510:../DGC_A230_Functions/DGC_A230_Normal_Mode.c **** 					if (CFG_parameter.Photocell_FT2_Mode_Opening == 0x03)		// Temporary Stop
 4957                             		.loc 1 1510 0
 4958 011e 00                      		nop
 4959                             	.L364:
1510:../DGC_A230_Functions/DGC_A230_Normal_Mode.c **** 					if (CFG_parameter.Photocell_FT2_Mode_Opening == 0x03)		// Temporary Stop
 4960                             		.loc 1 1510 0 is_stmt 0 discriminator 1
 4961 011f C9 F0 07 FF             		movw	r8, #-249
 4962 0123 AD F0                   		movw	ax, r8
 4963 0125 BD F2                   		movw	r10, ax
 4964 0127 EA F2                   		movw	de, r10
 4965 0129 89                      		mov	a, [de]
 4966 012a 5C 01                   		and	a, #1
 4967 012c 9D F0                   		mov	r8, a
 4968 012e D4 F0                   		cmp0	r8
 4969 0130 61 E8                   		 skz
 4970 0132 EC 1F 01 00             		 br	!!.L364
1511:../DGC_A230_Functions/DGC_A230_Normal_Mode.c **** 					{
 4971                             		.loc 1 1511 0 is_stmt 1
 4972 0136 8F 00 00                		mov	a, !_CFG_parameter+83
 4973 0139 9D F0                   		mov	r8, a
 4974 013b 4A F0 03                		cmp	r8, #3
 4975 013e 61 E8                   		 skz
 4976 0140 EC 53 01 00             		 br	!!.L365
 4977                             	.LBB136:
1513:../DGC_A230_Functions/DGC_A230_Normal_Mode.c **** 						__Do_Open_Gate_Motor1();
 4978                             		.loc 1 1513 0
 4979 0144 F5 00 00                		clrb	!_Pre_flash_Time
1514:../DGC_A230_Functions/DGC_A230_Normal_Mode.c **** 						__Do_Open_Gate_Motor2();
 4980                             		.loc 1 1514 0
 4981 0147 FC 00 00 00             		call	!!%code(___Do_Open_Gate_Motor1)
1515:../DGC_A230_Functions/DGC_A230_Normal_Mode.c **** 					}
 4982                             		.loc 1 1515 0
 4983 014b FC 00 00 00             		call	!!%code(___Do_Open_Gate_Motor2)
 4984                             	.LBE136:
 4985 014f EC 9E 01 00             		br	!!.L360
 4986                             	.L365:
 4987                             	.LBB137:
1519:../DGC_A230_Functions/DGC_A230_Normal_Mode.c **** 						__Do_Close_Gate_Motor1();
 4988                             		.loc 1 1519 0
 4989 0153 F5 00 00                		clrb	!_Pre_flash_Time
1520:../DGC_A230_Functions/DGC_A230_Normal_Mode.c **** 						__Do_Close_Gate_Motor2();
 4990                             		.loc 1 1520 0
 4991 0156 FC 00 00 00             		call	!!%code(___Do_Close_Gate_Motor1)
1521:../DGC_A230_Functions/DGC_A230_Normal_Mode.c **** 					}
 4992                             		.loc 1 1521 0
 4993 015a FC 00 00 00             		call	!!%code(___Do_Close_Gate_Motor2)
 4994                             	.LBE137:
 4995                             	.LBE134:
1539:../DGC_A230_Functions/DGC_A230_Normal_Mode.c **** 
 4996                             		.loc 1 1539 0
 4997 015e EC DE 03 00             		br	!!.L348
 4998                             	.L363:
 4999                             	.LBB139:
1524:../DGC_A230_Functions/DGC_A230_Normal_Mode.c **** 				{
 5000                             		.loc 1 1524 0
 5001 0162 8F 00 00                		mov	a, !_CFG_parameter+83
 5002 0165 9D F0                   		mov	r8, a
 5003 0167 4A F0 02                		cmp	r8, #2
 5004 016a 61 E8                   		 skz
 5005 016c EC 9E 01 00             		 br	!!.L360
1526:../DGC_A230_Functions/DGC_A230_Normal_Mode.c **** 					{
 5006                             		.loc 1 1526 0
 5007 0170 8F 00 00                		mov	a, !_CFG_parameter+84
 5008 0173 9D F0                   		mov	r8, a
 5009 0175 D4 F0                   		cmp0	r8
 5010 0177 61 F8                   		 sknz
 5011 0179 EC 8F 01 00             		 br	!!.L367
1528:../DGC_A230_Functions/DGC_A230_Normal_Mode.c **** 						__Do_Stop_Gate_Motor2(OPEN_MOVING_DIRECTION);
 5012                             		.loc 1 1528 0
 5013 017d F6                      		clrw	ax
 5014 017e B8 00                   		movw	[sp], ax
 5015 0180 FC 00 00 00             		call	!!%code(___Do_Stop_Gate_Motor1)
1529:../DGC_A230_Functions/DGC_A230_Normal_Mode.c **** 					}
 5016                             		.loc 1 1529 0
 5017 0184 F6                      		clrw	ax
 5018 0185 B8 00                   		movw	[sp], ax
 5019 0187 FC 00 00 00             		call	!!%code(___Do_Stop_Gate_Motor2)
 5020 018b EC 9E 01 00             		br	!!.L360
 5021                             	.L367:
 5022                             	.LBB138:
1533:../DGC_A230_Functions/DGC_A230_Normal_Mode.c **** 						__Do_Close_Gate_Motor1();
 5023                             		.loc 1 1533 0
 5024 018f F5 00 00                		clrb	!_Pre_flash_Time
1534:../DGC_A230_Functions/DGC_A230_Normal_Mode.c **** 						__Do_Close_Gate_Motor2();
 5025                             		.loc 1 1534 0
 5026 0192 FC 00 00 00             		call	!!%code(___Do_Close_Gate_Motor1)
1535:../DGC_A230_Functions/DGC_A230_Normal_Mode.c **** 					}
 5027                             		.loc 1 1535 0
 5028 0196 FC 00 00 00             		call	!!%code(___Do_Close_Gate_Motor2)
 5029                             	.LBE138:
 5030                             	.LBE139:
1539:../DGC_A230_Functions/DGC_A230_Normal_Mode.c **** 
 5031                             		.loc 1 1539 0
 5032 019a EC DE 03 00             		br	!!.L348
 5033                             	.L360:
1539:../DGC_A230_Functions/DGC_A230_Normal_Mode.c **** 
 5034                             		.loc 1 1539 0 is_stmt 0 discriminator 1
 5035 019e EC DE 03 00             		br	!!.L348
 5036                             	.L350:
1543:../DGC_A230_Functions/DGC_A230_Normal_Mode.c **** 			{
 5037                             		.loc 1 1543 0 is_stmt 1
 5038 01a2 8F 00 00                		mov	a, !_CFG_parameter+84
 5039 01a5 9D F0                   		mov	r8, a
 5040 01a7 D4 F0                   		cmp0	r8
 5041 01a9 61 F8                   		 sknz
 5042 01ab EC 83 02 00             		 br	!!.L368
 5043                             	.LBB140:
1545:../DGC_A230_Functions/DGC_A230_Normal_Mode.c **** 				Leaf_No2_State = GATE_STATE_CLOSING_PAUSE;
 5044                             		.loc 1 1545 0
 5045 01af 51 07                   		mov	a, #7
 5046 01b1 9F 00 00                		mov	!_Leaf_No1_State, a
1546:../DGC_A230_Functions/DGC_A230_Normal_Mode.c **** 				if (CFG_parameter.Photocell_Enable_Braking == 0x01)
 5047                             		.loc 1 1546 0
 5048 01b4 51 07                   		mov	a, #7
 5049 01b6 9F 00 00                		mov	!_Leaf_No2_State, a
1547:../DGC_A230_Functions/DGC_A230_Normal_Mode.c **** 				{
 5050                             		.loc 1 1547 0
 5051 01b9 8F 00 00                		mov	a, !_CFG_parameter+88
 5052 01bc 9D F0                   		mov	r8, a
 5053 01be 4A F0 01                		cmp	r8, #1
 5054 01c1 61 E8                   		 skz
 5055 01c3 EC E7 01 00             		 br	!!.L369
 5056                             	.LBB141:
1549:../DGC_A230_Functions/DGC_A230_Normal_Mode.c **** 						__Do_Brake_Motor_Type_2(CLOSE_MOVING_DIRECTION);
 5057                             		.loc 1 1549 0
 5058 01c7 8F 00 00                		mov	a, !_CFG_parameter+1
 5059 01ca 9D F0                   		mov	r8, a
 5060 01cc 4A F0 02                		cmp	r8, #2
 5061 01cf 61 E8                   		 skz
 5062 01d1 EC E0 01 00             		 br	!!.L370
1550:../DGC_A230_Functions/DGC_A230_Normal_Mode.c **** 					else
 5063                             		.loc 1 1550 0
 5064 01d5 E6                      		onew	ax
 5065 01d6 B8 00                   		movw	[sp], ax
 5066 01d8 FC 00 00 00             		call	!!%code(___Do_Brake_Motor_Type_2)
 5067 01dc EC E7 01 00             		br	!!.L369
 5068                             	.L370:
1552:../DGC_A230_Functions/DGC_A230_Normal_Mode.c **** 				}
 5069                             		.loc 1 1552 0
 5070 01e0 E6                      		onew	ax
 5071 01e1 B8 00                   		movw	[sp], ax
 5072 01e3 FC 00 00 00             		call	!!%code(___Do_Brake_Motor_Type_1)
 5073                             	.L369:
 5074                             	.LBE141:
1554:../DGC_A230_Functions/DGC_A230_Normal_Mode.c **** 				__Do_Stop_Gate_Motor2(CLOSE_MOVING_DIRECTION);
 5075                             		.loc 1 1554 0
 5076 01e7 E6                      		onew	ax
 5077 01e8 B8 00                   		movw	[sp], ax
 5078 01ea FC 00 00 00             		call	!!%code(___Do_Stop_Gate_Motor1)
1555:../DGC_A230_Functions/DGC_A230_Normal_Mode.c **** 
 5079                             		.loc 1 1555 0
 5080 01ee E6                      		onew	ax
 5081 01ef B8 00                   		movw	[sp], ax
 5082 01f1 FC 00 00 00             		call	!!%code(___Do_Stop_Gate_Motor2)
1557:../DGC_A230_Functions/DGC_A230_Normal_Mode.c **** 				{
 5083                             		.loc 1 1557 0
 5084 01f5 8F 00 00                		mov	a, !_CFG_parameter+84
 5085 01f8 9D F0                   		mov	r8, a
 5086 01fa 4A F0 02                		cmp	r8, #2
 5087 01fd 61 E3                   		 skh
 5088 01ff EC 47 02 00             		 br	!!.L371
1559:../DGC_A230_Functions/DGC_A230_Normal_Mode.c **** 					if (CFG_parameter.Photocell_FT2_Mode_Closing == 0x03)	// Temporary Stop
 5089                             		.loc 1 1559 0
 5090 0203 00                      		nop
 5091                             	.L372:
1559:../DGC_A230_Functions/DGC_A230_Normal_Mode.c **** 					if (CFG_parameter.Photocell_FT2_Mode_Closing == 0x03)	// Temporary Stop
 5092                             		.loc 1 1559 0 is_stmt 0 discriminator 1
 5093 0204 C9 F0 07 FF             		movw	r8, #-249
 5094 0208 AD F0                   		movw	ax, r8
 5095 020a BD F2                   		movw	r10, ax
 5096 020c EA F2                   		movw	de, r10
 5097 020e 89                      		mov	a, [de]
 5098 020f 5C 01                   		and	a, #1
 5099 0211 9D F0                   		mov	r8, a
 5100 0213 D4 F0                   		cmp0	r8
 5101 0215 61 E8                   		 skz
 5102 0217 EC 04 02 00             		 br	!!.L372
1560:../DGC_A230_Functions/DGC_A230_Normal_Mode.c **** 					{
 5103                             		.loc 1 1560 0 is_stmt 1
 5104 021b 8F 00 00                		mov	a, !_CFG_parameter+84
 5105 021e 9D F0                   		mov	r8, a
 5106 0220 4A F0 03                		cmp	r8, #3
 5107 0223 61 E8                   		 skz
 5108 0225 EC 38 02 00             		 br	!!.L373
 5109                             	.LBB142:
1562:../DGC_A230_Functions/DGC_A230_Normal_Mode.c **** 						__Do_Close_Gate_Motor1();
 5110                             		.loc 1 1562 0
 5111 0229 F5 00 00                		clrb	!_Pre_flash_Time
1563:../DGC_A230_Functions/DGC_A230_Normal_Mode.c **** 						__Do_Close_Gate_Motor2();
 5112                             		.loc 1 1563 0
 5113 022c FC 00 00 00             		call	!!%code(___Do_Close_Gate_Motor1)
1564:../DGC_A230_Functions/DGC_A230_Normal_Mode.c **** 					}
 5114                             		.loc 1 1564 0
 5115 0230 FC 00 00 00             		call	!!%code(___Do_Close_Gate_Motor2)
 5116                             	.LBE142:
 5117 0234 EC 83 02 00             		br	!!.L368
 5118                             	.L373:
 5119                             	.LBB143:
1568:../DGC_A230_Functions/DGC_A230_Normal_Mode.c **** 						__Do_Open_Gate_Motor1();
 5120                             		.loc 1 1568 0
 5121 0238 F5 00 00                		clrb	!_Pre_flash_Time
1569:../DGC_A230_Functions/DGC_A230_Normal_Mode.c **** 						__Do_Open_Gate_Motor2();
 5122                             		.loc 1 1569 0
 5123 023b FC 00 00 00             		call	!!%code(___Do_Open_Gate_Motor1)
1570:../DGC_A230_Functions/DGC_A230_Normal_Mode.c **** 					}
 5124                             		.loc 1 1570 0
 5125 023f FC 00 00 00             		call	!!%code(___Do_Open_Gate_Motor2)
 5126                             	.LBE143:
 5127                             	.LBE140:
1588:../DGC_A230_Functions/DGC_A230_Normal_Mode.c **** 
 5128                             		.loc 1 1588 0
 5129 0243 EC DE 03 00             		br	!!.L348
 5130                             	.L371:
 5131                             	.LBB145:
1573:../DGC_A230_Functions/DGC_A230_Normal_Mode.c **** 				{
 5132                             		.loc 1 1573 0
 5133 0247 8F 00 00                		mov	a, !_CFG_parameter+84
 5134 024a 9D F0                   		mov	r8, a
 5135 024c 4A F0 02                		cmp	r8, #2
 5136 024f 61 E8                   		 skz
 5137 0251 EC 83 02 00             		 br	!!.L368
1575:../DGC_A230_Functions/DGC_A230_Normal_Mode.c **** 					{
 5138                             		.loc 1 1575 0
 5139 0255 8F 00 00                		mov	a, !_CFG_parameter+83
 5140 0258 9D F0                   		mov	r8, a
 5141 025a D4 F0                   		cmp0	r8
 5142 025c 61 F8                   		 sknz
 5143 025e EC 74 02 00             		 br	!!.L375
1577:../DGC_A230_Functions/DGC_A230_Normal_Mode.c **** 						__Do_Stop_Gate_Motor2(CLOSE_MOVING_DIRECTION);
 5144                             		.loc 1 1577 0
 5145 0262 E6                      		onew	ax
 5146 0263 B8 00                   		movw	[sp], ax
 5147 0265 FC 00 00 00             		call	!!%code(___Do_Stop_Gate_Motor1)
1578:../DGC_A230_Functions/DGC_A230_Normal_Mode.c **** 					}
 5148                             		.loc 1 1578 0
 5149 0269 E6                      		onew	ax
 5150 026a B8 00                   		movw	[sp], ax
 5151 026c FC 00 00 00             		call	!!%code(___Do_Stop_Gate_Motor2)
 5152 0270 EC 83 02 00             		br	!!.L368
 5153                             	.L375:
 5154                             	.LBB144:
1582:../DGC_A230_Functions/DGC_A230_Normal_Mode.c **** 						__Do_Open_Gate_Motor1();
 5155                             		.loc 1 1582 0
 5156 0274 F5 00 00                		clrb	!_Pre_flash_Time
1583:../DGC_A230_Functions/DGC_A230_Normal_Mode.c **** 						__Do_Open_Gate_Motor2();
 5157                             		.loc 1 1583 0
 5158 0277 FC 00 00 00             		call	!!%code(___Do_Open_Gate_Motor1)
1584:../DGC_A230_Functions/DGC_A230_Normal_Mode.c **** 					}
 5159                             		.loc 1 1584 0
 5160 027b FC 00 00 00             		call	!!%code(___Do_Open_Gate_Motor2)
 5161                             	.LBE144:
 5162                             	.LBE145:
1588:../DGC_A230_Functions/DGC_A230_Normal_Mode.c **** 
 5163                             		.loc 1 1588 0
 5164 027f EC DE 03 00             		br	!!.L348
 5165                             	.L368:
1588:../DGC_A230_Functions/DGC_A230_Normal_Mode.c **** 
 5166                             		.loc 1 1588 0 is_stmt 0 discriminator 2
 5167 0283 EC DE 03 00             		br	!!.L348
 5168                             	.L354:
1592:../DGC_A230_Functions/DGC_A230_Normal_Mode.c **** 			{
 5169                             		.loc 1 1592 0 is_stmt 1
 5170 0287 8F 00 00                		mov	a, !_CFG_parameter+83
 5171 028a 9D F0                   		mov	r8, a
 5172 028c D4 F0                   		cmp0	r8
 5173 028e 61 F8                   		 sknz
 5174 0290 EC 30 03 00             		 br	!!.L376
 5175                             	.LBB146:
1594:../DGC_A230_Functions/DGC_A230_Normal_Mode.c **** 				if (CFG_parameter.Photocell_Enable_Braking == 0x01)
 5176                             		.loc 1 1594 0
 5177 0294 51 08                   		mov	a, #8
 5178 0296 9F 00 00                		mov	!_Leaf_No1_State, a
1595:../DGC_A230_Functions/DGC_A230_Normal_Mode.c **** 				{
 5179                             		.loc 1 1595 0
 5180 0299 8F 00 00                		mov	a, !_CFG_parameter+88
 5181 029c 9D F0                   		mov	r8, a
 5182 029e 4A F0 01                		cmp	r8, #1
 5183 02a1 61 E8                   		 skz
 5184 02a3 EC AE 02 00             		 br	!!.L377
 5185                             	.LBB147:
1597:../DGC_A230_Functions/DGC_A230_Normal_Mode.c **** 				}
 5186                             		.loc 1 1597 0
 5187 02a7 F6                      		clrw	ax
 5188 02a8 B8 00                   		movw	[sp], ax
 5189 02aa FC 00 00 00             		call	!!%code(___Do_Brake_Motor_Type_1)
 5190                             	.L377:
 5191                             	.LBE147:
1599:../DGC_A230_Functions/DGC_A230_Normal_Mode.c **** 
 5192                             		.loc 1 1599 0
 5193 02ae F6                      		clrw	ax
 5194 02af B8 00                   		movw	[sp], ax
 5195 02b1 FC 00 00 00             		call	!!%code(___Do_Partial_Stop_Gate)
1601:../DGC_A230_Functions/DGC_A230_Normal_Mode.c **** 				{
 5196                             		.loc 1 1601 0
 5197 02b5 8F 00 00                		mov	a, !_CFG_parameter+83
 5198 02b8 9D F0                   		mov	r8, a
 5199 02ba 4A F0 02                		cmp	r8, #2
 5200 02bd 61 E3                   		 skh
 5201 02bf EC FF 02 00             		 br	!!.L378
1603:../DGC_A230_Functions/DGC_A230_Normal_Mode.c **** 					if (CFG_parameter.Photocell_FT2_Mode_Opening == 0x03)		// Temporary Stop
 5202                             		.loc 1 1603 0
 5203 02c3 00                      		nop
 5204                             	.L379:
1603:../DGC_A230_Functions/DGC_A230_Normal_Mode.c **** 					if (CFG_parameter.Photocell_FT2_Mode_Opening == 0x03)		// Temporary Stop
 5205                             		.loc 1 1603 0 is_stmt 0 discriminator 1
 5206 02c4 C9 F0 07 FF             		movw	r8, #-249
 5207 02c8 AD F0                   		movw	ax, r8
 5208 02ca BD F2                   		movw	r10, ax
 5209 02cc EA F2                   		movw	de, r10
 5210 02ce 89                      		mov	a, [de]
 5211 02cf 5C 01                   		and	a, #1
 5212 02d1 9D F0                   		mov	r8, a
 5213 02d3 D4 F0                   		cmp0	r8
 5214 02d5 61 E8                   		 skz
 5215 02d7 EC C4 02 00             		 br	!!.L379
1604:../DGC_A230_Functions/DGC_A230_Normal_Mode.c **** 					{
 5216                             		.loc 1 1604 0 is_stmt 1
 5217 02db 8F 00 00                		mov	a, !_CFG_parameter+83
 5218 02de 9D F0                   		mov	r8, a
 5219 02e0 4A F0 03                		cmp	r8, #3
 5220 02e3 61 E8                   		 skz
 5221 02e5 EC F4 02 00             		 br	!!.L380
 5222                             	.LBB148:
1606:../DGC_A230_Functions/DGC_A230_Normal_Mode.c **** 						__Do_Partial_Open_Gate();
 5223                             		.loc 1 1606 0
 5224 02e9 F5 00 00                		clrb	!_Pre_flash_Time
1607:../DGC_A230_Functions/DGC_A230_Normal_Mode.c **** 					}
 5225                             		.loc 1 1607 0
 5226 02ec FC 00 00 00             		call	!!%code(___Do_Partial_Open_Gate)
 5227                             	.LBE148:
 5228 02f0 EC 30 03 00             		br	!!.L376
 5229                             	.L380:
 5230                             	.LBB149:
1611:../DGC_A230_Functions/DGC_A230_Normal_Mode.c **** 						__Do_Partial_Close_Gate();
 5231                             		.loc 1 1611 0
 5232 02f4 F5 00 00                		clrb	!_Pre_flash_Time
1612:../DGC_A230_Functions/DGC_A230_Normal_Mode.c **** 					}
 5233                             		.loc 1 1612 0
 5234 02f7 FC 00 00 00             		call	!!%code(___Do_Partial_Close_Gate)
 5235                             	.LBE149:
 5236                             	.LBE146:
1628:../DGC_A230_Functions/DGC_A230_Normal_Mode.c **** 
 5237                             		.loc 1 1628 0
 5238 02fb EC DE 03 00             		br	!!.L348
 5239                             	.L378:
 5240                             	.LBB151:
1615:../DGC_A230_Functions/DGC_A230_Normal_Mode.c **** 				{
 5241                             		.loc 1 1615 0
 5242 02ff 8F 00 00                		mov	a, !_CFG_parameter+83
 5243 0302 9D F0                   		mov	r8, a
 5244 0304 4A F0 02                		cmp	r8, #2
 5245 0307 61 E8                   		 skz
 5246 0309 EC 30 03 00             		 br	!!.L376
1617:../DGC_A230_Functions/DGC_A230_Normal_Mode.c **** 					{
 5247                             		.loc 1 1617 0
 5248 030d 8F 00 00                		mov	a, !_CFG_parameter+84
 5249 0310 9D F0                   		mov	r8, a
 5250 0312 D4 F0                   		cmp0	r8
 5251 0314 61 F8                   		 sknz
 5252 0316 EC 25 03 00             		 br	!!.L382
1619:../DGC_A230_Functions/DGC_A230_Normal_Mode.c **** 					}
 5253                             		.loc 1 1619 0
 5254 031a F6                      		clrw	ax
 5255 031b B8 00                   		movw	[sp], ax
 5256 031d FC 00 00 00             		call	!!%code(___Do_Partial_Stop_Gate)
 5257 0321 EC 30 03 00             		br	!!.L376
 5258                             	.L382:
 5259                             	.LBB150:
1623:../DGC_A230_Functions/DGC_A230_Normal_Mode.c **** 						__Do_Partial_Close_Gate();
 5260                             		.loc 1 1623 0
 5261 0325 F5 00 00                		clrb	!_Pre_flash_Time
1624:../DGC_A230_Functions/DGC_A230_Normal_Mode.c **** 					}
 5262                             		.loc 1 1624 0
 5263 0328 FC 00 00 00             		call	!!%code(___Do_Partial_Close_Gate)
 5264                             	.LBE150:
 5265                             	.LBE151:
1628:../DGC_A230_Functions/DGC_A230_Normal_Mode.c **** 
 5266                             		.loc 1 1628 0
 5267 032c EC DE 03 00             		br	!!.L348
 5268                             	.L376:
1628:../DGC_A230_Functions/DGC_A230_Normal_Mode.c **** 
 5269                             		.loc 1 1628 0 is_stmt 0 discriminator 3
 5270 0330 EC DE 03 00             		br	!!.L348
 5271                             	.L355:
1632:../DGC_A230_Functions/DGC_A230_Normal_Mode.c **** 			{
 5272                             		.loc 1 1632 0 is_stmt 1
 5273 0334 8F 00 00                		mov	a, !_CFG_parameter+84
 5274 0337 9D F0                   		mov	r8, a
 5275 0339 D4 F0                   		cmp0	r8
 5276 033b 61 F8                   		 sknz
 5277 033d EC DD 03 00             		 br	!!.L383
 5278                             	.LBB152:
1634:../DGC_A230_Functions/DGC_A230_Normal_Mode.c **** 				if (CFG_parameter.Photocell_Enable_Braking == 0x01)
 5279                             		.loc 1 1634 0
 5280 0341 51 07                   		mov	a, #7
 5281 0343 9F 00 00                		mov	!_Leaf_No1_State, a
1635:../DGC_A230_Functions/DGC_A230_Normal_Mode.c **** 				{
 5282                             		.loc 1 1635 0
 5283 0346 8F 00 00                		mov	a, !_CFG_parameter+88
 5284 0349 9D F0                   		mov	r8, a
 5285 034b 4A F0 01                		cmp	r8, #1
 5286 034e 61 E8                   		 skz
 5287 0350 EC 5B 03 00             		 br	!!.L384
 5288                             	.LBB153:
1637:../DGC_A230_Functions/DGC_A230_Normal_Mode.c **** 				}
 5289                             		.loc 1 1637 0
 5290 0354 E6                      		onew	ax
 5291 0355 B8 00                   		movw	[sp], ax
 5292 0357 FC 00 00 00             		call	!!%code(___Do_Brake_Motor_Type_1)
 5293                             	.L384:
 5294                             	.LBE153:
1639:../DGC_A230_Functions/DGC_A230_Normal_Mode.c **** 
 5295                             		.loc 1 1639 0
 5296 035b E6                      		onew	ax
 5297 035c B8 00                   		movw	[sp], ax
 5298 035e FC 00 00 00             		call	!!%code(___Do_Partial_Stop_Gate)
1641:../DGC_A230_Functions/DGC_A230_Normal_Mode.c **** 				{
 5299                             		.loc 1 1641 0
 5300 0362 8F 00 00                		mov	a, !_CFG_parameter+84
 5301 0365 9D F0                   		mov	r8, a
 5302 0367 4A F0 02                		cmp	r8, #2
 5303 036a 61 E3                   		 skh
 5304 036c EC AC 03 00             		 br	!!.L385
1643:../DGC_A230_Functions/DGC_A230_Normal_Mode.c **** 					if (CFG_parameter.Photocell_FT2_Mode_Closing == 0x03)	// Temporary Stop
 5305                             		.loc 1 1643 0
 5306 0370 00                      		nop
 5307                             	.L386:
1643:../DGC_A230_Functions/DGC_A230_Normal_Mode.c **** 					if (CFG_parameter.Photocell_FT2_Mode_Closing == 0x03)	// Temporary Stop
 5308                             		.loc 1 1643 0 is_stmt 0 discriminator 1
 5309 0371 C9 F0 07 FF             		movw	r8, #-249
 5310 0375 AD F0                   		movw	ax, r8
 5311 0377 BD F2                   		movw	r10, ax
 5312 0379 EA F2                   		movw	de, r10
 5313 037b 89                      		mov	a, [de]
 5314 037c 5C 01                   		and	a, #1
 5315 037e 9D F0                   		mov	r8, a
 5316 0380 D4 F0                   		cmp0	r8
 5317 0382 61 E8                   		 skz
 5318 0384 EC 71 03 00             		 br	!!.L386
1644:../DGC_A230_Functions/DGC_A230_Normal_Mode.c **** 					{
 5319                             		.loc 1 1644 0 is_stmt 1
 5320 0388 8F 00 00                		mov	a, !_CFG_parameter+84
 5321 038b 9D F0                   		mov	r8, a
 5322 038d 4A F0 03                		cmp	r8, #3
 5323 0390 61 E8                   		 skz
 5324 0392 EC A1 03 00             		 br	!!.L387
 5325                             	.LBB154:
1646:../DGC_A230_Functions/DGC_A230_Normal_Mode.c **** 						__Do_Partial_Close_Gate();
 5326                             		.loc 1 1646 0
 5327 0396 F5 00 00                		clrb	!_Pre_flash_Time
1647:../DGC_A230_Functions/DGC_A230_Normal_Mode.c **** 					}
 5328                             		.loc 1 1647 0
 5329 0399 FC 00 00 00             		call	!!%code(___Do_Partial_Close_Gate)
 5330                             	.LBE154:
 5331 039d EC DD 03 00             		br	!!.L383
 5332                             	.L387:
 5333                             	.LBB155:
1651:../DGC_A230_Functions/DGC_A230_Normal_Mode.c **** 						__Do_Partial_Open_Gate();
 5334                             		.loc 1 1651 0
 5335 03a1 F5 00 00                		clrb	!_Pre_flash_Time
1652:../DGC_A230_Functions/DGC_A230_Normal_Mode.c **** 					}
 5336                             		.loc 1 1652 0
 5337 03a4 FC 00 00 00             		call	!!%code(___Do_Partial_Open_Gate)
 5338                             	.LBE155:
 5339                             	.LBE152:
1668:../DGC_A230_Functions/DGC_A230_Normal_Mode.c **** 
 5340                             		.loc 1 1668 0
 5341 03a8 EC DD 03 00             		br	!!.L390
 5342                             	.L385:
 5343                             	.LBB157:
1655:../DGC_A230_Functions/DGC_A230_Normal_Mode.c **** 				{
 5344                             		.loc 1 1655 0
 5345 03ac 8F 00 00                		mov	a, !_CFG_parameter+84
 5346 03af 9D F0                   		mov	r8, a
 5347 03b1 4A F0 02                		cmp	r8, #2
 5348 03b4 61 E8                   		 skz
 5349 03b6 EC DD 03 00             		 br	!!.L383
1657:../DGC_A230_Functions/DGC_A230_Normal_Mode.c **** 					{
 5350                             		.loc 1 1657 0
 5351 03ba 8F 00 00                		mov	a, !_CFG_parameter+83
 5352 03bd 9D F0                   		mov	r8, a
 5353 03bf D4 F0                   		cmp0	r8
 5354 03c1 61 F8                   		 sknz
 5355 03c3 EC D2 03 00             		 br	!!.L389
1659:../DGC_A230_Functions/DGC_A230_Normal_Mode.c **** 					}
 5356                             		.loc 1 1659 0
 5357 03c7 E6                      		onew	ax
 5358 03c8 B8 00                   		movw	[sp], ax
 5359 03ca FC 00 00 00             		call	!!%code(___Do_Partial_Stop_Gate)
 5360 03ce EC DD 03 00             		br	!!.L383
 5361                             	.L389:
 5362                             	.LBB156:
1663:../DGC_A230_Functions/DGC_A230_Normal_Mode.c **** 						__Do_Partial_Open_Gate();
 5363                             		.loc 1 1663 0
 5364 03d2 F5 00 00                		clrb	!_Pre_flash_Time
1664:../DGC_A230_Functions/DGC_A230_Normal_Mode.c **** 					}
 5365                             		.loc 1 1664 0
 5366 03d5 FC 00 00 00             		call	!!%code(___Do_Partial_Open_Gate)
 5367                             	.LBE156:
 5368                             	.LBE157:
1668:../DGC_A230_Functions/DGC_A230_Normal_Mode.c **** 
 5369                             		.loc 1 1668 0
 5370 03d9 EC DD 03 00             		br	!!.L390
 5371                             	.L383:
 5372                             	.L390:
 5373 03dd 00                      		nop
 5374                             	.L348:
1671:../DGC_A230_Functions/DGC_A230_Normal_Mode.c **** 	}
1672:../DGC_A230_Functions/DGC_A230_Normal_Mode.c **** }
 5375                             		.loc 1 1672 0
 5376 03de 10 02                   		addw	sp, #2
 5377 03e0 D7                      		ret
 5378                             	.LFE17:
 5380                             		.section	.text.Sensing_Edge_COS1_Process,"ax",@progbits
 5381                             		.global	_Sensing_Edge_COS1_Process
 5383                             	_Sensing_Edge_COS1_Process:
 5384                             	.LFB18:
1673:../DGC_A230_Functions/DGC_A230_Normal_Mode.c **** 
1674:../DGC_A230_Functions/DGC_A230_Normal_Mode.c **** void Sensing_Edge_COS1_Process (void)
1675:../DGC_A230_Functions/DGC_A230_Normal_Mode.c **** {
 5385                             		.loc 1 1675 0
 5386                             		; start of function
 5387                             		; outgoing: 4 bytes
 5388                             		; uses ES register
 5389 0000 20 04                   		subw	sp, #4
 5390                             	.LCFI14:
1676:../DGC_A230_Functions/DGC_A230_Normal_Mode.c **** 	switch(Machine_State)
 5391                             		.loc 1 1676 0
 5392 0002 8F 00 00                		mov	a, !_Machine_State
 5393 0005 9D F0                   		mov	r8, a
 5394 0007 F4 F1                   		clrb	r9
 5395 0009 AD F0                   		movw	ax, r8
 5396 000b 44 02 00                		cmpw	ax, #2
 5397 000e 61 F8                   		 sknz
 5398 0010 EC EF 00 00             		 br	!!.L393
 5399 0014 AD F0                   		movw	ax, r8
 5400 0016 44 02 00                		cmpw	ax, #2
 5401 0019 71 FF                   		 xor1	CY, a.7
 5402 001b 61 F3                   		 sknh
 5403 001d EC 3B 00 00             		 br	!!.L394
 5404 0021 AD F0                   		movw	ax, r8
 5405 0023 44 00 00                		cmpw	ax, #0
 5406 0026 61 F8                   		 sknz
 5407 0028 EC 59 02 00             		 br	!!.L408
 5408 002c AD F0                   		movw	ax, r8
 5409 002e 44 01 00                		cmpw	ax, #1
 5410 0031 61 F8                   		 sknz
 5411 0033 EC 55 00 00             		 br	!!.L396
1677:../DGC_A230_Functions/DGC_A230_Normal_Mode.c **** 	{
1678:../DGC_A230_Functions/DGC_A230_Normal_Mode.c **** 		case MACHINE_STATE_STOP:
1679:../DGC_A230_Functions/DGC_A230_Normal_Mode.c **** 		{
1680:../DGC_A230_Functions/DGC_A230_Normal_Mode.c **** 			// Do nothing
1681:../DGC_A230_Functions/DGC_A230_Normal_Mode.c **** 		} break;
1682:../DGC_A230_Functions/DGC_A230_Normal_Mode.c **** 
1683:../DGC_A230_Functions/DGC_A230_Normal_Mode.c **** 		case MACHINE_STATE_NORMAL_OPENING:
1684:../DGC_A230_Functions/DGC_A230_Normal_Mode.c **** 		{
1685:../DGC_A230_Functions/DGC_A230_Normal_Mode.c **** 			if (CFG_parameter.Sensing_Edge_COS1_Config != 0x00)
1686:../DGC_A230_Functions/DGC_A230_Normal_Mode.c **** 			{
1687:../DGC_A230_Functions/DGC_A230_Normal_Mode.c **** 				Leaf_No1_State = GATE_STATE_OPENING_PAUSE;
1688:../DGC_A230_Functions/DGC_A230_Normal_Mode.c **** 				Leaf_No2_State = GATE_STATE_OPENING_PAUSE;
1689:../DGC_A230_Functions/DGC_A230_Normal_Mode.c **** 				__Do_Stop_Gate_Motor1(OPEN_MOVING_DIRECTION);
1690:../DGC_A230_Functions/DGC_A230_Normal_Mode.c **** 				__Do_Stop_Gate_Motor2(OPEN_MOVING_DIRECTION);
1691:../DGC_A230_Functions/DGC_A230_Normal_Mode.c **** 
1692:../DGC_A230_Functions/DGC_A230_Normal_Mode.c **** 				Pre_flash_Time = 0x00;
1693:../DGC_A230_Functions/DGC_A230_Normal_Mode.c **** 				if(CFG_parameter.Number_Of_Motors == 0x02)
1694:../DGC_A230_Functions/DGC_A230_Normal_Mode.c **** 				{
1695:../DGC_A230_Functions/DGC_A230_Normal_Mode.c **** 					__Do_Moving_Gate_After_COS_Action_Motor1_Start(CLOSE_MOVING_DIRECTION, 0x02);
1696:../DGC_A230_Functions/DGC_A230_Normal_Mode.c **** 					__Do_Moving_Gate_After_COS_Action_Motor2_Start(CLOSE_MOVING_DIRECTION, 0x02);
1697:../DGC_A230_Functions/DGC_A230_Normal_Mode.c **** 					__Do_Moving_Gate_After_COS_Action_Motor1_End(CLOSE_MOVING_DIRECTION, 0x02);
1698:../DGC_A230_Functions/DGC_A230_Normal_Mode.c **** 					__Do_Moving_Gate_After_COS_Action_Motor2_End(CLOSE_MOVING_DIRECTION, 0x02);
1699:../DGC_A230_Functions/DGC_A230_Normal_Mode.c **** 				}
1700:../DGC_A230_Functions/DGC_A230_Normal_Mode.c **** 				else
1701:../DGC_A230_Functions/DGC_A230_Normal_Mode.c **** 				{
1702:../DGC_A230_Functions/DGC_A230_Normal_Mode.c **** 					__Do_Moving_Gate_After_COS_Action_Motor1_Start(CLOSE_MOVING_DIRECTION, 0x01);
1703:../DGC_A230_Functions/DGC_A230_Normal_Mode.c **** 					__Do_Moving_Gate_After_COS_Action_Motor2_Start(CLOSE_MOVING_DIRECTION, 0x01);
1704:../DGC_A230_Functions/DGC_A230_Normal_Mode.c **** 					__Do_Moving_Gate_After_COS_Action_Motor1_End(CLOSE_MOVING_DIRECTION, 0x01);
1705:../DGC_A230_Functions/DGC_A230_Normal_Mode.c **** 					__Do_Moving_Gate_After_COS_Action_Motor2_End(CLOSE_MOVING_DIRECTION, 0x01);
1706:../DGC_A230_Functions/DGC_A230_Normal_Mode.c **** 				}
1707:../DGC_A230_Functions/DGC_A230_Normal_Mode.c **** 
1708:../DGC_A230_Functions/DGC_A230_Normal_Mode.c **** 			}
1709:../DGC_A230_Functions/DGC_A230_Normal_Mode.c **** 		} break;
1710:../DGC_A230_Functions/DGC_A230_Normal_Mode.c **** 
1711:../DGC_A230_Functions/DGC_A230_Normal_Mode.c **** 		case MACHINE_STATE_NORMAL_CLOSING:
1712:../DGC_A230_Functions/DGC_A230_Normal_Mode.c **** 		{
1713:../DGC_A230_Functions/DGC_A230_Normal_Mode.c **** 			if (CFG_parameter.Sensing_Edge_COS1_Config != 0x00)
1714:../DGC_A230_Functions/DGC_A230_Normal_Mode.c **** 			{
1715:../DGC_A230_Functions/DGC_A230_Normal_Mode.c **** 				if ((CFG_parameter.Sensing_Edge_COS1_Config == 0x03) || (CFG_parameter.Sensing_Edge_COS1_Config
1716:../DGC_A230_Functions/DGC_A230_Normal_Mode.c **** 				{
1717:../DGC_A230_Functions/DGC_A230_Normal_Mode.c **** 					Leaf_No1_State = GATE_STATE_CLOSING_PAUSE;
1718:../DGC_A230_Functions/DGC_A230_Normal_Mode.c **** 					Leaf_No2_State = GATE_STATE_CLOSING_PAUSE;
1719:../DGC_A230_Functions/DGC_A230_Normal_Mode.c **** 					__Do_Stop_Gate_Motor1(CLOSE_MOVING_DIRECTION);
1720:../DGC_A230_Functions/DGC_A230_Normal_Mode.c **** 					__Do_Stop_Gate_Motor2(CLOSE_MOVING_DIRECTION);
1721:../DGC_A230_Functions/DGC_A230_Normal_Mode.c **** 
1722:../DGC_A230_Functions/DGC_A230_Normal_Mode.c **** 					Pre_flash_Time = 0x00;
1723:../DGC_A230_Functions/DGC_A230_Normal_Mode.c **** 					if(CFG_parameter.Number_Of_Motors == 0x02)
1724:../DGC_A230_Functions/DGC_A230_Normal_Mode.c **** 					{
1725:../DGC_A230_Functions/DGC_A230_Normal_Mode.c **** 						__Do_Moving_Gate_After_COS_Action_Motor1_Start(OPEN_MOVING_DIRECTION, 0x02);
1726:../DGC_A230_Functions/DGC_A230_Normal_Mode.c **** 						__Do_Moving_Gate_After_COS_Action_Motor2_Start(OPEN_MOVING_DIRECTION, 0x02);
1727:../DGC_A230_Functions/DGC_A230_Normal_Mode.c **** 						__Do_Moving_Gate_After_COS_Action_Motor1_End(OPEN_MOVING_DIRECTION, 0x02);
1728:../DGC_A230_Functions/DGC_A230_Normal_Mode.c **** 						__Do_Moving_Gate_After_COS_Action_Motor2_End(OPEN_MOVING_DIRECTION, 0x02);
1729:../DGC_A230_Functions/DGC_A230_Normal_Mode.c **** 					}
1730:../DGC_A230_Functions/DGC_A230_Normal_Mode.c **** 					else
1731:../DGC_A230_Functions/DGC_A230_Normal_Mode.c **** 					{
1732:../DGC_A230_Functions/DGC_A230_Normal_Mode.c **** 						__Do_Moving_Gate_After_COS_Action_Motor1_Start(OPEN_MOVING_DIRECTION, 0x01);
1733:../DGC_A230_Functions/DGC_A230_Normal_Mode.c **** 						__Do_Moving_Gate_After_COS_Action_Motor2_Start(OPEN_MOVING_DIRECTION, 0x01);
1734:../DGC_A230_Functions/DGC_A230_Normal_Mode.c **** 						__Do_Moving_Gate_After_COS_Action_Motor1_End(OPEN_MOVING_DIRECTION, 0x01);
1735:../DGC_A230_Functions/DGC_A230_Normal_Mode.c **** 						__Do_Moving_Gate_After_COS_Action_Motor2_End(OPEN_MOVING_DIRECTION, 0x01);
1736:../DGC_A230_Functions/DGC_A230_Normal_Mode.c **** 					}
1737:../DGC_A230_Functions/DGC_A230_Normal_Mode.c **** 				}
1738:../DGC_A230_Functions/DGC_A230_Normal_Mode.c **** 			}
1739:../DGC_A230_Functions/DGC_A230_Normal_Mode.c **** 		} break;
1740:../DGC_A230_Functions/DGC_A230_Normal_Mode.c **** 
1741:../DGC_A230_Functions/DGC_A230_Normal_Mode.c **** 		case MACHINE_STATE_PARTIAL_OPENING:
1742:../DGC_A230_Functions/DGC_A230_Normal_Mode.c **** 		{
1743:../DGC_A230_Functions/DGC_A230_Normal_Mode.c **** 			if (CFG_parameter.Sensing_Edge_COS1_Config != 0x00)
1744:../DGC_A230_Functions/DGC_A230_Normal_Mode.c **** 			{
1745:../DGC_A230_Functions/DGC_A230_Normal_Mode.c **** 				Leaf_No1_State = GATE_STATE_PATIAL_OPENING_PAUSE;
1746:../DGC_A230_Functions/DGC_A230_Normal_Mode.c **** 				__Do_Partial_Stop_Gate(OPEN_MOVING_DIRECTION);
1747:../DGC_A230_Functions/DGC_A230_Normal_Mode.c **** 
1748:../DGC_A230_Functions/DGC_A230_Normal_Mode.c **** 				Pre_flash_Time = 0x00;
1749:../DGC_A230_Functions/DGC_A230_Normal_Mode.c **** 				{
1750:../DGC_A230_Functions/DGC_A230_Normal_Mode.c **** 					__Do_Moving_Gate_After_COS_Action_Motor1_Start(CLOSE_MOVING_DIRECTION, 0x01);
1751:../DGC_A230_Functions/DGC_A230_Normal_Mode.c **** 					__Do_Moving_Gate_After_COS_Action_Motor2_Start(CLOSE_MOVING_DIRECTION, 0x01);
1752:../DGC_A230_Functions/DGC_A230_Normal_Mode.c **** 					__Do_Moving_Gate_After_COS_Action_Motor1_End(CLOSE_MOVING_DIRECTION, 0x01);
1753:../DGC_A230_Functions/DGC_A230_Normal_Mode.c **** 					__Do_Moving_Gate_After_COS_Action_Motor2_End(CLOSE_MOVING_DIRECTION, 0x01);
1754:../DGC_A230_Functions/DGC_A230_Normal_Mode.c **** 				}
1755:../DGC_A230_Functions/DGC_A230_Normal_Mode.c **** 			}
1756:../DGC_A230_Functions/DGC_A230_Normal_Mode.c **** 		} break;
1757:../DGC_A230_Functions/DGC_A230_Normal_Mode.c **** 
1758:../DGC_A230_Functions/DGC_A230_Normal_Mode.c **** 		case MACHINE_STATE_PARTIAL_CLOSING:
1759:../DGC_A230_Functions/DGC_A230_Normal_Mode.c **** 		{
1760:../DGC_A230_Functions/DGC_A230_Normal_Mode.c **** 			if (CFG_parameter.Sensing_Edge_COS1_Config != 0x00)
1761:../DGC_A230_Functions/DGC_A230_Normal_Mode.c **** 			{
1762:../DGC_A230_Functions/DGC_A230_Normal_Mode.c **** 				if ((CFG_parameter.Sensing_Edge_COS1_Config == 0x03) || (CFG_parameter.Sensing_Edge_COS1_Config
1763:../DGC_A230_Functions/DGC_A230_Normal_Mode.c **** 				{
1764:../DGC_A230_Functions/DGC_A230_Normal_Mode.c **** 					Leaf_No1_State = GATE_STATE_CLOSING_PAUSE;
1765:../DGC_A230_Functions/DGC_A230_Normal_Mode.c **** 					__Do_Partial_Stop_Gate(CLOSE_MOVING_DIRECTION);
1766:../DGC_A230_Functions/DGC_A230_Normal_Mode.c **** 
1767:../DGC_A230_Functions/DGC_A230_Normal_Mode.c **** 					Pre_flash_Time = 0x00;
1768:../DGC_A230_Functions/DGC_A230_Normal_Mode.c **** 
1769:../DGC_A230_Functions/DGC_A230_Normal_Mode.c **** 					__Do_Moving_Gate_After_COS_Action_Motor1_Start(OPEN_MOVING_DIRECTION, 0x01);
1770:../DGC_A230_Functions/DGC_A230_Normal_Mode.c **** 					__Do_Moving_Gate_After_COS_Action_Motor2_Start(OPEN_MOVING_DIRECTION, 0x01);
1771:../DGC_A230_Functions/DGC_A230_Normal_Mode.c **** 					__Do_Moving_Gate_After_COS_Action_Motor1_End(OPEN_MOVING_DIRECTION, 0x01);
1772:../DGC_A230_Functions/DGC_A230_Normal_Mode.c **** 					__Do_Moving_Gate_After_COS_Action_Motor2_End(OPEN_MOVING_DIRECTION, 0x01);
1773:../DGC_A230_Functions/DGC_A230_Normal_Mode.c **** 				}
1774:../DGC_A230_Functions/DGC_A230_Normal_Mode.c **** 			}
1775:../DGC_A230_Functions/DGC_A230_Normal_Mode.c **** 		} break;
1776:../DGC_A230_Functions/DGC_A230_Normal_Mode.c **** 
1777:../DGC_A230_Functions/DGC_A230_Normal_Mode.c **** 		default:
1778:../DGC_A230_Functions/DGC_A230_Normal_Mode.c **** 		{
1779:../DGC_A230_Functions/DGC_A230_Normal_Mode.c **** 			// Do nothing
1780:../DGC_A230_Functions/DGC_A230_Normal_Mode.c **** 		} break;
 5412                             		.loc 1 1780 0
 5413 0037 EC 5A 02 00             		br	!!.L391
 5414                             	.L394:
1676:../DGC_A230_Functions/DGC_A230_Normal_Mode.c **** 	switch(Machine_State)
 5415                             		.loc 1 1676 0
 5416 003b AD F0                   		movw	ax, r8
 5417 003d 44 03 00                		cmpw	ax, #3
 5418 0040 61 F8                   		 sknz
 5419 0042 EC A5 01 00             		 br	!!.L397
 5420 0046 AD F0                   		movw	ax, r8
 5421 0048 44 04 00                		cmpw	ax, #4
 5422 004b 61 F8                   		 sknz
 5423 004d EC F1 01 00             		 br	!!.L398
 5424                             		.loc 1 1780 0
 5425 0051 EC 5A 02 00             		br	!!.L391
 5426                             	.L396:
1685:../DGC_A230_Functions/DGC_A230_Normal_Mode.c **** 			{
 5427                             		.loc 1 1685 0
 5428 0055 8F 00 00                		mov	a, !_CFG_parameter+59
 5429 0058 9D F0                   		mov	r8, a
 5430 005a D4 F0                   		cmp0	r8
 5431 005c 61 F8                   		 sknz
 5432 005e EC EB 00 00             		 br	!!.L400
 5433                             	.LBB158:
1687:../DGC_A230_Functions/DGC_A230_Normal_Mode.c **** 				Leaf_No2_State = GATE_STATE_OPENING_PAUSE;
 5434                             		.loc 1 1687 0
 5435 0062 51 06                   		mov	a, #6
 5436 0064 9F 00 00                		mov	!_Leaf_No1_State, a
1688:../DGC_A230_Functions/DGC_A230_Normal_Mode.c **** 				__Do_Stop_Gate_Motor1(OPEN_MOVING_DIRECTION);
 5437                             		.loc 1 1688 0
 5438 0067 51 06                   		mov	a, #6
 5439 0069 9F 00 00                		mov	!_Leaf_No2_State, a
1689:../DGC_A230_Functions/DGC_A230_Normal_Mode.c **** 				__Do_Stop_Gate_Motor2(OPEN_MOVING_DIRECTION);
 5440                             		.loc 1 1689 0
 5441 006c F6                      		clrw	ax
 5442 006d B8 00                   		movw	[sp], ax
 5443 006f FC 00 00 00             		call	!!%code(___Do_Stop_Gate_Motor1)
1690:../DGC_A230_Functions/DGC_A230_Normal_Mode.c **** 
 5444                             		.loc 1 1690 0
 5445 0073 F6                      		clrw	ax
 5446 0074 B8 00                   		movw	[sp], ax
 5447 0076 FC 00 00 00             		call	!!%code(___Do_Stop_Gate_Motor2)
1692:../DGC_A230_Functions/DGC_A230_Normal_Mode.c **** 				if(CFG_parameter.Number_Of_Motors == 0x02)
 5448                             		.loc 1 1692 0
 5449 007a F5 00 00                		clrb	!_Pre_flash_Time
1693:../DGC_A230_Functions/DGC_A230_Normal_Mode.c **** 				{
 5450                             		.loc 1 1693 0
 5451 007d 8F 00 00                		mov	a, !_CFG_parameter+1
 5452 0080 9D F0                   		mov	r8, a
 5453 0082 4A F0 02                		cmp	r8, #2
 5454 0085 61 E8                   		 skz
 5455 0087 EC BF 00 00             		 br	!!.L401
 5456                             	.LBB159:
1695:../DGC_A230_Functions/DGC_A230_Normal_Mode.c **** 					__Do_Moving_Gate_After_COS_Action_Motor2_Start(CLOSE_MOVING_DIRECTION, 0x02);
 5457                             		.loc 1 1695 0
 5458 008b E6                      		onew	ax
 5459 008c B8 00                   		movw	[sp], ax
 5460 008e 30 02 00                		movw	ax, #2
 5461 0091 B8 02                   		movw	[sp+2], ax
 5462 0093 FC 00 00 00             		call	!!%code(___Do_Moving_Gate_After_COS_Action_Motor1_Start)
1696:../DGC_A230_Functions/DGC_A230_Normal_Mode.c **** 					__Do_Moving_Gate_After_COS_Action_Motor1_End(CLOSE_MOVING_DIRECTION, 0x02);
 5463                             		.loc 1 1696 0
 5464 0097 E6                      		onew	ax
 5465 0098 B8 00                   		movw	[sp], ax
 5466 009a 30 02 00                		movw	ax, #2
 5467 009d B8 02                   		movw	[sp+2], ax
 5468 009f FC 00 00 00             		call	!!%code(___Do_Moving_Gate_After_COS_Action_Motor2_Start)
1697:../DGC_A230_Functions/DGC_A230_Normal_Mode.c **** 					__Do_Moving_Gate_After_COS_Action_Motor2_End(CLOSE_MOVING_DIRECTION, 0x02);
 5469                             		.loc 1 1697 0
 5470 00a3 E6                      		onew	ax
 5471 00a4 B8 00                   		movw	[sp], ax
 5472 00a6 30 02 00                		movw	ax, #2
 5473 00a9 B8 02                   		movw	[sp+2], ax
 5474 00ab FC 00 00 00             		call	!!%code(___Do_Moving_Gate_After_COS_Action_Motor1_End)
1698:../DGC_A230_Functions/DGC_A230_Normal_Mode.c **** 				}
 5475                             		.loc 1 1698 0
 5476 00af E6                      		onew	ax
 5477 00b0 B8 00                   		movw	[sp], ax
 5478 00b2 30 02 00                		movw	ax, #2
 5479 00b5 B8 02                   		movw	[sp+2], ax
 5480 00b7 FC 00 00 00             		call	!!%code(___Do_Moving_Gate_After_COS_Action_Motor2_End)
 5481                             	.LBE159:
 5482 00bb EC EB 00 00             		br	!!.L400
 5483                             	.L401:
 5484                             	.LBB160:
1702:../DGC_A230_Functions/DGC_A230_Normal_Mode.c **** 					__Do_Moving_Gate_After_COS_Action_Motor2_Start(CLOSE_MOVING_DIRECTION, 0x01);
 5485                             		.loc 1 1702 0
 5486 00bf E6                      		onew	ax
 5487 00c0 B8 00                   		movw	[sp], ax
 5488 00c2 E6                      		onew	ax
 5489 00c3 B8 02                   		movw	[sp+2], ax
 5490 00c5 FC 00 00 00             		call	!!%code(___Do_Moving_Gate_After_COS_Action_Motor1_Start)
1703:../DGC_A230_Functions/DGC_A230_Normal_Mode.c **** 					__Do_Moving_Gate_After_COS_Action_Motor1_End(CLOSE_MOVING_DIRECTION, 0x01);
 5491                             		.loc 1 1703 0
 5492 00c9 E6                      		onew	ax
 5493 00ca B8 00                   		movw	[sp], ax
 5494 00cc E6                      		onew	ax
 5495 00cd B8 02                   		movw	[sp+2], ax
 5496 00cf FC 00 00 00             		call	!!%code(___Do_Moving_Gate_After_COS_Action_Motor2_Start)
1704:../DGC_A230_Functions/DGC_A230_Normal_Mode.c **** 					__Do_Moving_Gate_After_COS_Action_Motor2_End(CLOSE_MOVING_DIRECTION, 0x01);
 5497                             		.loc 1 1704 0
 5498 00d3 E6                      		onew	ax
 5499 00d4 B8 00                   		movw	[sp], ax
 5500 00d6 E6                      		onew	ax
 5501 00d7 B8 02                   		movw	[sp+2], ax
 5502 00d9 FC 00 00 00             		call	!!%code(___Do_Moving_Gate_After_COS_Action_Motor1_End)
1705:../DGC_A230_Functions/DGC_A230_Normal_Mode.c **** 				}
 5503                             		.loc 1 1705 0
 5504 00dd E6                      		onew	ax
 5505 00de B8 00                   		movw	[sp], ax
 5506 00e0 E6                      		onew	ax
 5507 00e1 B8 02                   		movw	[sp+2], ax
 5508 00e3 FC 00 00 00             		call	!!%code(___Do_Moving_Gate_After_COS_Action_Motor2_End)
 5509                             	.LBE160:
 5510                             	.LBE158:
1709:../DGC_A230_Functions/DGC_A230_Normal_Mode.c **** 
 5511                             		.loc 1 1709 0
 5512 00e7 EC 5A 02 00             		br	!!.L391
 5513                             	.L400:
 5514 00eb EC 5A 02 00             		br	!!.L391
 5515                             	.L393:
1713:../DGC_A230_Functions/DGC_A230_Normal_Mode.c **** 			{
 5516                             		.loc 1 1713 0
 5517 00ef 8F 00 00                		mov	a, !_CFG_parameter+59
 5518 00f2 9D F0                   		mov	r8, a
 5519 00f4 D4 F0                   		cmp0	r8
 5520 00f6 61 F8                   		 sknz
 5521 00f8 EC A1 01 00             		 br	!!.L402
1715:../DGC_A230_Functions/DGC_A230_Normal_Mode.c **** 				{
 5522                             		.loc 1 1715 0
 5523 00fc 8F 00 00                		mov	a, !_CFG_parameter+59
 5524 00ff 9D F0                   		mov	r8, a
 5525 0101 4A F0 03                		cmp	r8, #3
 5526 0104 61 F8                   		 sknz
 5527 0106 EC 18 01 00             		 br	!!.L403
1715:../DGC_A230_Functions/DGC_A230_Normal_Mode.c **** 				{
 5528                             		.loc 1 1715 0 is_stmt 0 discriminator 1
 5529 010a 8F 00 00                		mov	a, !_CFG_parameter+59
 5530 010d 9D F0                   		mov	r8, a
 5531 010f 4A F0 04                		cmp	r8, #4
 5532 0112 61 E8                   		 skz
 5533 0114 EC A1 01 00             		 br	!!.L402
 5534                             	.L403:
 5535                             	.LBB161:
1717:../DGC_A230_Functions/DGC_A230_Normal_Mode.c **** 					Leaf_No2_State = GATE_STATE_CLOSING_PAUSE;
 5536                             		.loc 1 1717 0 is_stmt 1
 5537 0118 51 07                   		mov	a, #7
 5538 011a 9F 00 00                		mov	!_Leaf_No1_State, a
1718:../DGC_A230_Functions/DGC_A230_Normal_Mode.c **** 					__Do_Stop_Gate_Motor1(CLOSE_MOVING_DIRECTION);
 5539                             		.loc 1 1718 0
 5540 011d 51 07                   		mov	a, #7
 5541 011f 9F 00 00                		mov	!_Leaf_No2_State, a
1719:../DGC_A230_Functions/DGC_A230_Normal_Mode.c **** 					__Do_Stop_Gate_Motor2(CLOSE_MOVING_DIRECTION);
 5542                             		.loc 1 1719 0
 5543 0122 E6                      		onew	ax
 5544 0123 B8 00                   		movw	[sp], ax
 5545 0125 FC 00 00 00             		call	!!%code(___Do_Stop_Gate_Motor1)
1720:../DGC_A230_Functions/DGC_A230_Normal_Mode.c **** 
 5546                             		.loc 1 1720 0
 5547 0129 E6                      		onew	ax
 5548 012a B8 00                   		movw	[sp], ax
 5549 012c FC 00 00 00             		call	!!%code(___Do_Stop_Gate_Motor2)
1722:../DGC_A230_Functions/DGC_A230_Normal_Mode.c **** 					if(CFG_parameter.Number_Of_Motors == 0x02)
 5550                             		.loc 1 1722 0
 5551 0130 F5 00 00                		clrb	!_Pre_flash_Time
1723:../DGC_A230_Functions/DGC_A230_Normal_Mode.c **** 					{
 5552                             		.loc 1 1723 0
 5553 0133 8F 00 00                		mov	a, !_CFG_parameter+1
 5554 0136 9D F0                   		mov	r8, a
 5555 0138 4A F0 02                		cmp	r8, #2
 5556 013b 61 E8                   		 skz
 5557 013d EC 75 01 00             		 br	!!.L404
 5558                             	.LBB162:
1725:../DGC_A230_Functions/DGC_A230_Normal_Mode.c **** 						__Do_Moving_Gate_After_COS_Action_Motor2_Start(OPEN_MOVING_DIRECTION, 0x02);
 5559                             		.loc 1 1725 0
 5560 0141 F6                      		clrw	ax
 5561 0142 B8 00                   		movw	[sp], ax
 5562 0144 30 02 00                		movw	ax, #2
 5563 0147 B8 02                   		movw	[sp+2], ax
 5564 0149 FC 00 00 00             		call	!!%code(___Do_Moving_Gate_After_COS_Action_Motor1_Start)
1726:../DGC_A230_Functions/DGC_A230_Normal_Mode.c **** 						__Do_Moving_Gate_After_COS_Action_Motor1_End(OPEN_MOVING_DIRECTION, 0x02);
 5565                             		.loc 1 1726 0
 5566 014d F6                      		clrw	ax
 5567 014e B8 00                   		movw	[sp], ax
 5568 0150 30 02 00                		movw	ax, #2
 5569 0153 B8 02                   		movw	[sp+2], ax
 5570 0155 FC 00 00 00             		call	!!%code(___Do_Moving_Gate_After_COS_Action_Motor2_Start)
1727:../DGC_A230_Functions/DGC_A230_Normal_Mode.c **** 						__Do_Moving_Gate_After_COS_Action_Motor2_End(OPEN_MOVING_DIRECTION, 0x02);
 5571                             		.loc 1 1727 0
 5572 0159 F6                      		clrw	ax
 5573 015a B8 00                   		movw	[sp], ax
 5574 015c 30 02 00                		movw	ax, #2
 5575 015f B8 02                   		movw	[sp+2], ax
 5576 0161 FC 00 00 00             		call	!!%code(___Do_Moving_Gate_After_COS_Action_Motor1_End)
1728:../DGC_A230_Functions/DGC_A230_Normal_Mode.c **** 					}
 5577                             		.loc 1 1728 0
 5578 0165 F6                      		clrw	ax
 5579 0166 B8 00                   		movw	[sp], ax
 5580 0168 30 02 00                		movw	ax, #2
 5581 016b B8 02                   		movw	[sp+2], ax
 5582 016d FC 00 00 00             		call	!!%code(___Do_Moving_Gate_After_COS_Action_Motor2_End)
 5583                             	.LBE162:
 5584 0171 EC A1 01 00             		br	!!.L402
 5585                             	.L404:
 5586                             	.LBB163:
1732:../DGC_A230_Functions/DGC_A230_Normal_Mode.c **** 						__Do_Moving_Gate_After_COS_Action_Motor2_Start(OPEN_MOVING_DIRECTION, 0x01);
 5587                             		.loc 1 1732 0
 5588 0175 F6                      		clrw	ax
 5589 0176 B8 00                   		movw	[sp], ax
 5590 0178 E6                      		onew	ax
 5591 0179 B8 02                   		movw	[sp+2], ax
 5592 017b FC 00 00 00             		call	!!%code(___Do_Moving_Gate_After_COS_Action_Motor1_Start)
1733:../DGC_A230_Functions/DGC_A230_Normal_Mode.c **** 						__Do_Moving_Gate_After_COS_Action_Motor1_End(OPEN_MOVING_DIRECTION, 0x01);
 5593                             		.loc 1 1733 0
 5594 017f F6                      		clrw	ax
 5595 0180 B8 00                   		movw	[sp], ax
 5596 0182 E6                      		onew	ax
 5597 0183 B8 02                   		movw	[sp+2], ax
 5598 0185 FC 00 00 00             		call	!!%code(___Do_Moving_Gate_After_COS_Action_Motor2_Start)
1734:../DGC_A230_Functions/DGC_A230_Normal_Mode.c **** 						__Do_Moving_Gate_After_COS_Action_Motor2_End(OPEN_MOVING_DIRECTION, 0x01);
 5599                             		.loc 1 1734 0
 5600 0189 F6                      		clrw	ax
 5601 018a B8 00                   		movw	[sp], ax
 5602 018c E6                      		onew	ax
 5603 018d B8 02                   		movw	[sp+2], ax
 5604 018f FC 00 00 00             		call	!!%code(___Do_Moving_Gate_After_COS_Action_Motor1_End)
1735:../DGC_A230_Functions/DGC_A230_Normal_Mode.c **** 					}
 5605                             		.loc 1 1735 0
 5606 0193 F6                      		clrw	ax
 5607 0194 B8 00                   		movw	[sp], ax
 5608 0196 E6                      		onew	ax
 5609 0197 B8 02                   		movw	[sp+2], ax
 5610 0199 FC 00 00 00             		call	!!%code(___Do_Moving_Gate_After_COS_Action_Motor2_End)
 5611                             	.LBE163:
 5612                             	.LBE161:
1739:../DGC_A230_Functions/DGC_A230_Normal_Mode.c **** 
 5613                             		.loc 1 1739 0
 5614 019d EC 5A 02 00             		br	!!.L391
 5615                             	.L402:
 5616 01a1 EC 5A 02 00             		br	!!.L391
 5617                             	.L397:
1743:../DGC_A230_Functions/DGC_A230_Normal_Mode.c **** 			{
 5618                             		.loc 1 1743 0
 5619 01a5 8F 00 00                		mov	a, !_CFG_parameter+59
 5620 01a8 9D F0                   		mov	r8, a
 5621 01aa D4 F0                   		cmp0	r8
 5622 01ac 61 F8                   		 sknz
 5623 01ae EC ED 01 00             		 br	!!.L405
 5624                             	.LBB164:
1745:../DGC_A230_Functions/DGC_A230_Normal_Mode.c **** 				__Do_Partial_Stop_Gate(OPEN_MOVING_DIRECTION);
 5625                             		.loc 1 1745 0
 5626 01b2 51 08                   		mov	a, #8
 5627 01b4 9F 00 00                		mov	!_Leaf_No1_State, a
1746:../DGC_A230_Functions/DGC_A230_Normal_Mode.c **** 
 5628                             		.loc 1 1746 0
 5629 01b7 F6                      		clrw	ax
 5630 01b8 B8 00                   		movw	[sp], ax
 5631 01ba FC 00 00 00             		call	!!%code(___Do_Partial_Stop_Gate)
1748:../DGC_A230_Functions/DGC_A230_Normal_Mode.c **** 				{
 5632                             		.loc 1 1748 0
 5633 01be F5 00 00                		clrb	!_Pre_flash_Time
 5634                             	.LBB165:
1750:../DGC_A230_Functions/DGC_A230_Normal_Mode.c **** 					__Do_Moving_Gate_After_COS_Action_Motor2_Start(CLOSE_MOVING_DIRECTION, 0x01);
 5635                             		.loc 1 1750 0
 5636 01c1 E6                      		onew	ax
 5637 01c2 B8 00                   		movw	[sp], ax
 5638 01c4 E6                      		onew	ax
 5639 01c5 B8 02                   		movw	[sp+2], ax
 5640 01c7 FC 00 00 00             		call	!!%code(___Do_Moving_Gate_After_COS_Action_Motor1_Start)
1751:../DGC_A230_Functions/DGC_A230_Normal_Mode.c **** 					__Do_Moving_Gate_After_COS_Action_Motor1_End(CLOSE_MOVING_DIRECTION, 0x01);
 5641                             		.loc 1 1751 0
 5642 01cb E6                      		onew	ax
 5643 01cc B8 00                   		movw	[sp], ax
 5644 01ce E6                      		onew	ax
 5645 01cf B8 02                   		movw	[sp+2], ax
 5646 01d1 FC 00 00 00             		call	!!%code(___Do_Moving_Gate_After_COS_Action_Motor2_Start)
1752:../DGC_A230_Functions/DGC_A230_Normal_Mode.c **** 					__Do_Moving_Gate_After_COS_Action_Motor2_End(CLOSE_MOVING_DIRECTION, 0x01);
 5647                             		.loc 1 1752 0
 5648 01d5 E6                      		onew	ax
 5649 01d6 B8 00                   		movw	[sp], ax
 5650 01d8 E6                      		onew	ax
 5651 01d9 B8 02                   		movw	[sp+2], ax
 5652 01db FC 00 00 00             		call	!!%code(___Do_Moving_Gate_After_COS_Action_Motor1_End)
1753:../DGC_A230_Functions/DGC_A230_Normal_Mode.c **** 				}
 5653                             		.loc 1 1753 0
 5654 01df E6                      		onew	ax
 5655 01e0 B8 00                   		movw	[sp], ax
 5656 01e2 E6                      		onew	ax
 5657 01e3 B8 02                   		movw	[sp+2], ax
 5658 01e5 FC 00 00 00             		call	!!%code(___Do_Moving_Gate_After_COS_Action_Motor2_End)
 5659                             	.LBE165:
 5660                             	.LBE164:
1756:../DGC_A230_Functions/DGC_A230_Normal_Mode.c **** 
 5661                             		.loc 1 1756 0
 5662 01e9 EC 5A 02 00             		br	!!.L391
 5663                             	.L405:
 5664 01ed EC 5A 02 00             		br	!!.L391
 5665                             	.L398:
1760:../DGC_A230_Functions/DGC_A230_Normal_Mode.c **** 			{
 5666                             		.loc 1 1760 0
 5667 01f1 8F 00 00                		mov	a, !_CFG_parameter+59
 5668 01f4 9D F0                   		mov	r8, a
 5669 01f6 D4 F0                   		cmp0	r8
 5670 01f8 61 F8                   		 sknz
 5671 01fa EC 55 02 00             		 br	!!.L406
1762:../DGC_A230_Functions/DGC_A230_Normal_Mode.c **** 				{
 5672                             		.loc 1 1762 0
 5673 01fe 8F 00 00                		mov	a, !_CFG_parameter+59
 5674 0201 9D F0                   		mov	r8, a
 5675 0203 4A F0 03                		cmp	r8, #3
 5676 0206 61 F8                   		 sknz
 5677 0208 EC 1A 02 00             		 br	!!.L407
1762:../DGC_A230_Functions/DGC_A230_Normal_Mode.c **** 				{
 5678                             		.loc 1 1762 0 is_stmt 0 discriminator 1
 5679 020c 8F 00 00                		mov	a, !_CFG_parameter+59
 5680 020f 9D F0                   		mov	r8, a
 5681 0211 4A F0 04                		cmp	r8, #4
 5682 0214 61 E8                   		 skz
 5683 0216 EC 55 02 00             		 br	!!.L406
 5684                             	.L407:
 5685                             	.LBB166:
1764:../DGC_A230_Functions/DGC_A230_Normal_Mode.c **** 					__Do_Partial_Stop_Gate(CLOSE_MOVING_DIRECTION);
 5686                             		.loc 1 1764 0 is_stmt 1
 5687 021a 51 07                   		mov	a, #7
 5688 021c 9F 00 00                		mov	!_Leaf_No1_State, a
1765:../DGC_A230_Functions/DGC_A230_Normal_Mode.c **** 
 5689                             		.loc 1 1765 0
 5690 021f E6                      		onew	ax
 5691 0220 B8 00                   		movw	[sp], ax
 5692 0222 FC 00 00 00             		call	!!%code(___Do_Partial_Stop_Gate)
1767:../DGC_A230_Functions/DGC_A230_Normal_Mode.c **** 
 5693                             		.loc 1 1767 0
 5694 0226 F5 00 00                		clrb	!_Pre_flash_Time
1769:../DGC_A230_Functions/DGC_A230_Normal_Mode.c **** 					__Do_Moving_Gate_After_COS_Action_Motor2_Start(OPEN_MOVING_DIRECTION, 0x01);
 5695                             		.loc 1 1769 0
 5696 0229 F6                      		clrw	ax
 5697 022a B8 00                   		movw	[sp], ax
 5698 022c E6                      		onew	ax
 5699 022d B8 02                   		movw	[sp+2], ax
 5700 022f FC 00 00 00             		call	!!%code(___Do_Moving_Gate_After_COS_Action_Motor1_Start)
1770:../DGC_A230_Functions/DGC_A230_Normal_Mode.c **** 					__Do_Moving_Gate_After_COS_Action_Motor1_End(OPEN_MOVING_DIRECTION, 0x01);
 5701                             		.loc 1 1770 0
 5702 0233 F6                      		clrw	ax
 5703 0234 B8 00                   		movw	[sp], ax
 5704 0236 E6                      		onew	ax
 5705 0237 B8 02                   		movw	[sp+2], ax
 5706 0239 FC 00 00 00             		call	!!%code(___Do_Moving_Gate_After_COS_Action_Motor2_Start)
1771:../DGC_A230_Functions/DGC_A230_Normal_Mode.c **** 					__Do_Moving_Gate_After_COS_Action_Motor2_End(OPEN_MOVING_DIRECTION, 0x01);
 5707                             		.loc 1 1771 0
 5708 023d F6                      		clrw	ax
 5709 023e B8 00                   		movw	[sp], ax
 5710 0240 E6                      		onew	ax
 5711 0241 B8 02                   		movw	[sp+2], ax
 5712 0243 FC 00 00 00             		call	!!%code(___Do_Moving_Gate_After_COS_Action_Motor1_End)
1772:../DGC_A230_Functions/DGC_A230_Normal_Mode.c **** 				}
 5713                             		.loc 1 1772 0
 5714 0247 F6                      		clrw	ax
 5715 0248 B8 00                   		movw	[sp], ax
 5716 024a E6                      		onew	ax
 5717 024b B8 02                   		movw	[sp+2], ax
 5718 024d FC 00 00 00             		call	!!%code(___Do_Moving_Gate_After_COS_Action_Motor2_End)
 5719                             	.LBE166:
1775:../DGC_A230_Functions/DGC_A230_Normal_Mode.c **** 
 5720                             		.loc 1 1775 0
 5721 0251 EC 5A 02 00             		br	!!.L391
 5722                             	.L406:
 5723 0255 EC 5A 02 00             		br	!!.L391
 5724                             	.L408:
1681:../DGC_A230_Functions/DGC_A230_Normal_Mode.c **** 
 5725                             		.loc 1 1681 0
 5726 0259 00                      		nop
 5727                             	.L391:
1781:../DGC_A230_Functions/DGC_A230_Normal_Mode.c **** 	}
1782:../DGC_A230_Functions/DGC_A230_Normal_Mode.c **** }
 5728                             		.loc 1 1782 0
 5729 025a 10 04                   		addw	sp, #4
 5730 025c D7                      		ret
 5731                             	.LFE18:
 5733                             		.section	.text.Sensing_Edge_COS2_Process,"ax",@progbits
 5734                             		.global	_Sensing_Edge_COS2_Process
 5736                             	_Sensing_Edge_COS2_Process:
 5737                             	.LFB19:
1783:../DGC_A230_Functions/DGC_A230_Normal_Mode.c **** 
1784:../DGC_A230_Functions/DGC_A230_Normal_Mode.c **** void Sensing_Edge_COS2_Process (void)
1785:../DGC_A230_Functions/DGC_A230_Normal_Mode.c **** {
 5738                             		.loc 1 1785 0
 5739                             		; start of function
 5740                             		; outgoing: 4 bytes
 5741                             		; uses ES register
 5742 0000 20 04                   		subw	sp, #4
 5743                             	.LCFI15:
1786:../DGC_A230_Functions/DGC_A230_Normal_Mode.c **** 	switch(Machine_State)
 5744                             		.loc 1 1786 0
 5745 0002 8F 00 00                		mov	a, !_Machine_State
 5746 0005 9D F0                   		mov	r8, a
 5747 0007 F4 F1                   		clrb	r9
 5748 0009 AD F0                   		movw	ax, r8
 5749 000b 44 02 00                		cmpw	ax, #2
 5750 000e 61 F8                   		 sknz
 5751 0010 EC FD 00 00             		 br	!!.L411
 5752 0014 AD F0                   		movw	ax, r8
 5753 0016 44 02 00                		cmpw	ax, #2
 5754 0019 71 FF                   		 xor1	CY, a.7
 5755 001b 61 F3                   		 sknh
 5756 001d EC 3B 00 00             		 br	!!.L412
 5757 0021 AD F0                   		movw	ax, r8
 5758 0023 44 00 00                		cmpw	ax, #0
 5759 0026 61 F8                   		 sknz
 5760 0028 EC 3D 02 00             		 br	!!.L424
 5761 002c AD F0                   		movw	ax, r8
 5762 002e 44 01 00                		cmpw	ax, #1
 5763 0031 61 F8                   		 sknz
 5764 0033 EC 55 00 00             		 br	!!.L414
1787:../DGC_A230_Functions/DGC_A230_Normal_Mode.c **** 	{
1788:../DGC_A230_Functions/DGC_A230_Normal_Mode.c **** 		case MACHINE_STATE_STOP:
1789:../DGC_A230_Functions/DGC_A230_Normal_Mode.c **** 		{
1790:../DGC_A230_Functions/DGC_A230_Normal_Mode.c **** 			// Do nothing
1791:../DGC_A230_Functions/DGC_A230_Normal_Mode.c **** 		} break;
1792:../DGC_A230_Functions/DGC_A230_Normal_Mode.c **** 
1793:../DGC_A230_Functions/DGC_A230_Normal_Mode.c **** 		case MACHINE_STATE_NORMAL_OPENING:
1794:../DGC_A230_Functions/DGC_A230_Normal_Mode.c **** 		{
1795:../DGC_A230_Functions/DGC_A230_Normal_Mode.c **** 			if (CFG_parameter.Sensing_Edge_COS2_Config != 0x00)
1796:../DGC_A230_Functions/DGC_A230_Normal_Mode.c **** 			{
1797:../DGC_A230_Functions/DGC_A230_Normal_Mode.c **** 				if (CFG_parameter.Sensing_Edge_COS2_Config > 0x02)
1798:../DGC_A230_Functions/DGC_A230_Normal_Mode.c **** 				{
1799:../DGC_A230_Functions/DGC_A230_Normal_Mode.c **** 					Leaf_No1_State = GATE_STATE_OPENING_PAUSE;
1800:../DGC_A230_Functions/DGC_A230_Normal_Mode.c **** 					Leaf_No2_State = GATE_STATE_OPENING_PAUSE;
1801:../DGC_A230_Functions/DGC_A230_Normal_Mode.c **** 					__Do_Stop_Gate_Motor1(OPEN_MOVING_DIRECTION);
1802:../DGC_A230_Functions/DGC_A230_Normal_Mode.c **** 					__Do_Stop_Gate_Motor2(OPEN_MOVING_DIRECTION);
1803:../DGC_A230_Functions/DGC_A230_Normal_Mode.c **** 
1804:../DGC_A230_Functions/DGC_A230_Normal_Mode.c **** 					Pre_flash_Time = 0x00;
1805:../DGC_A230_Functions/DGC_A230_Normal_Mode.c **** 					if(CFG_parameter.Number_Of_Motors == 0x02)
1806:../DGC_A230_Functions/DGC_A230_Normal_Mode.c **** 					{
1807:../DGC_A230_Functions/DGC_A230_Normal_Mode.c **** 						__Do_Moving_Gate_After_COS_Action_Motor1_Start(CLOSE_MOVING_DIRECTION, 0x02);
1808:../DGC_A230_Functions/DGC_A230_Normal_Mode.c **** 						__Do_Moving_Gate_After_COS_Action_Motor2_Start(CLOSE_MOVING_DIRECTION, 0x02);
1809:../DGC_A230_Functions/DGC_A230_Normal_Mode.c **** 						__Do_Moving_Gate_After_COS_Action_Motor1_End(CLOSE_MOVING_DIRECTION, 0x02);
1810:../DGC_A230_Functions/DGC_A230_Normal_Mode.c **** 						__Do_Moving_Gate_After_COS_Action_Motor2_End(CLOSE_MOVING_DIRECTION, 0x02);
1811:../DGC_A230_Functions/DGC_A230_Normal_Mode.c **** 					}
1812:../DGC_A230_Functions/DGC_A230_Normal_Mode.c **** 					else
1813:../DGC_A230_Functions/DGC_A230_Normal_Mode.c **** 					{
1814:../DGC_A230_Functions/DGC_A230_Normal_Mode.c **** 						__Do_Moving_Gate_After_COS_Action_Motor1_Start(CLOSE_MOVING_DIRECTION, 0x01);
1815:../DGC_A230_Functions/DGC_A230_Normal_Mode.c **** 						__Do_Moving_Gate_After_COS_Action_Motor2_Start(CLOSE_MOVING_DIRECTION, 0x01);
1816:../DGC_A230_Functions/DGC_A230_Normal_Mode.c **** 						__Do_Moving_Gate_After_COS_Action_Motor1_End(CLOSE_MOVING_DIRECTION, 0x01);
1817:../DGC_A230_Functions/DGC_A230_Normal_Mode.c **** 						__Do_Moving_Gate_After_COS_Action_Motor2_End(CLOSE_MOVING_DIRECTION, 0x01);
1818:../DGC_A230_Functions/DGC_A230_Normal_Mode.c **** 					}
1819:../DGC_A230_Functions/DGC_A230_Normal_Mode.c **** 
1820:../DGC_A230_Functions/DGC_A230_Normal_Mode.c **** 				}
1821:../DGC_A230_Functions/DGC_A230_Normal_Mode.c **** 			}
1822:../DGC_A230_Functions/DGC_A230_Normal_Mode.c **** 		} break;
1823:../DGC_A230_Functions/DGC_A230_Normal_Mode.c **** 
1824:../DGC_A230_Functions/DGC_A230_Normal_Mode.c **** 		case MACHINE_STATE_NORMAL_CLOSING:
1825:../DGC_A230_Functions/DGC_A230_Normal_Mode.c **** 		{
1826:../DGC_A230_Functions/DGC_A230_Normal_Mode.c **** 			if (CFG_parameter.Sensing_Edge_COS2_Config != 0x00)
1827:../DGC_A230_Functions/DGC_A230_Normal_Mode.c **** 			{
1828:../DGC_A230_Functions/DGC_A230_Normal_Mode.c **** 				Leaf_No1_State = GATE_STATE_CLOSING_PAUSE;
1829:../DGC_A230_Functions/DGC_A230_Normal_Mode.c **** 				Leaf_No2_State = GATE_STATE_CLOSING_PAUSE;
1830:../DGC_A230_Functions/DGC_A230_Normal_Mode.c **** 				__Do_Stop_Gate_Motor1(CLOSE_MOVING_DIRECTION);
1831:../DGC_A230_Functions/DGC_A230_Normal_Mode.c **** 				__Do_Stop_Gate_Motor2(CLOSE_MOVING_DIRECTION);
1832:../DGC_A230_Functions/DGC_A230_Normal_Mode.c **** 
1833:../DGC_A230_Functions/DGC_A230_Normal_Mode.c **** 				Pre_flash_Time = 0x00;
1834:../DGC_A230_Functions/DGC_A230_Normal_Mode.c **** 				if(CFG_parameter.Number_Of_Motors == 0x02)
1835:../DGC_A230_Functions/DGC_A230_Normal_Mode.c **** 				{
1836:../DGC_A230_Functions/DGC_A230_Normal_Mode.c **** 					__Do_Moving_Gate_After_COS_Action_Motor1_Start(OPEN_MOVING_DIRECTION, 0x02);
1837:../DGC_A230_Functions/DGC_A230_Normal_Mode.c **** 					__Do_Moving_Gate_After_COS_Action_Motor2_Start(OPEN_MOVING_DIRECTION, 0x02);
1838:../DGC_A230_Functions/DGC_A230_Normal_Mode.c **** 					__Do_Moving_Gate_After_COS_Action_Motor1_End(OPEN_MOVING_DIRECTION, 0x02);
1839:../DGC_A230_Functions/DGC_A230_Normal_Mode.c **** 					__Do_Moving_Gate_After_COS_Action_Motor2_End(OPEN_MOVING_DIRECTION, 0x02);
1840:../DGC_A230_Functions/DGC_A230_Normal_Mode.c **** 				}
1841:../DGC_A230_Functions/DGC_A230_Normal_Mode.c **** 				else
1842:../DGC_A230_Functions/DGC_A230_Normal_Mode.c **** 				{
1843:../DGC_A230_Functions/DGC_A230_Normal_Mode.c **** 					__Do_Moving_Gate_After_COS_Action_Motor1_Start(OPEN_MOVING_DIRECTION, 0x01);
1844:../DGC_A230_Functions/DGC_A230_Normal_Mode.c **** 					__Do_Moving_Gate_After_COS_Action_Motor2_Start(OPEN_MOVING_DIRECTION, 0x01);
1845:../DGC_A230_Functions/DGC_A230_Normal_Mode.c **** 					__Do_Moving_Gate_After_COS_Action_Motor1_End(OPEN_MOVING_DIRECTION, 0x01);
1846:../DGC_A230_Functions/DGC_A230_Normal_Mode.c **** 					__Do_Moving_Gate_After_COS_Action_Motor2_End(OPEN_MOVING_DIRECTION, 0x01);
1847:../DGC_A230_Functions/DGC_A230_Normal_Mode.c **** 				}
1848:../DGC_A230_Functions/DGC_A230_Normal_Mode.c **** 
1849:../DGC_A230_Functions/DGC_A230_Normal_Mode.c **** 			}
1850:../DGC_A230_Functions/DGC_A230_Normal_Mode.c **** 		} break;
1851:../DGC_A230_Functions/DGC_A230_Normal_Mode.c **** 
1852:../DGC_A230_Functions/DGC_A230_Normal_Mode.c **** 		case MACHINE_STATE_PARTIAL_OPENING:
1853:../DGC_A230_Functions/DGC_A230_Normal_Mode.c **** 		{
1854:../DGC_A230_Functions/DGC_A230_Normal_Mode.c **** 			if (CFG_parameter.Sensing_Edge_COS2_Config != 0x00)
1855:../DGC_A230_Functions/DGC_A230_Normal_Mode.c **** 			{
1856:../DGC_A230_Functions/DGC_A230_Normal_Mode.c **** 				if (CFG_parameter.Sensing_Edge_COS2_Config > 0x02)
1857:../DGC_A230_Functions/DGC_A230_Normal_Mode.c **** 				{
1858:../DGC_A230_Functions/DGC_A230_Normal_Mode.c **** 					Leaf_No1_State = GATE_STATE_PATIAL_OPENING_PAUSE;
1859:../DGC_A230_Functions/DGC_A230_Normal_Mode.c **** 					__Do_Partial_Stop_Gate(OPEN_MOVING_DIRECTION);
1860:../DGC_A230_Functions/DGC_A230_Normal_Mode.c **** 
1861:../DGC_A230_Functions/DGC_A230_Normal_Mode.c **** 					Pre_flash_Time = 0x00;
1862:../DGC_A230_Functions/DGC_A230_Normal_Mode.c **** 
1863:../DGC_A230_Functions/DGC_A230_Normal_Mode.c **** 					__Do_Moving_Gate_After_COS_Action_Motor1_Start(CLOSE_MOVING_DIRECTION, 0x01);
1864:../DGC_A230_Functions/DGC_A230_Normal_Mode.c **** 					__Do_Moving_Gate_After_COS_Action_Motor2_Start(CLOSE_MOVING_DIRECTION, 0x01);
1865:../DGC_A230_Functions/DGC_A230_Normal_Mode.c **** 					__Do_Moving_Gate_After_COS_Action_Motor1_End(CLOSE_MOVING_DIRECTION, 0x01);
1866:../DGC_A230_Functions/DGC_A230_Normal_Mode.c **** 					__Do_Moving_Gate_After_COS_Action_Motor2_End(CLOSE_MOVING_DIRECTION, 0x01);
1867:../DGC_A230_Functions/DGC_A230_Normal_Mode.c **** 				}
1868:../DGC_A230_Functions/DGC_A230_Normal_Mode.c **** 			}
1869:../DGC_A230_Functions/DGC_A230_Normal_Mode.c **** 		} break;
1870:../DGC_A230_Functions/DGC_A230_Normal_Mode.c **** 
1871:../DGC_A230_Functions/DGC_A230_Normal_Mode.c **** 		case MACHINE_STATE_PARTIAL_CLOSING:
1872:../DGC_A230_Functions/DGC_A230_Normal_Mode.c **** 		{
1873:../DGC_A230_Functions/DGC_A230_Normal_Mode.c **** 			if (CFG_parameter.Sensing_Edge_COS2_Config != 0x00)
1874:../DGC_A230_Functions/DGC_A230_Normal_Mode.c **** 			{
1875:../DGC_A230_Functions/DGC_A230_Normal_Mode.c **** 				Leaf_No1_State = GATE_STATE_CLOSING_PAUSE;
1876:../DGC_A230_Functions/DGC_A230_Normal_Mode.c **** 				__Do_Partial_Stop_Gate(CLOSE_MOVING_DIRECTION);
1877:../DGC_A230_Functions/DGC_A230_Normal_Mode.c **** 
1878:../DGC_A230_Functions/DGC_A230_Normal_Mode.c **** 				Pre_flash_Time = 0x00;
1879:../DGC_A230_Functions/DGC_A230_Normal_Mode.c **** 
1880:../DGC_A230_Functions/DGC_A230_Normal_Mode.c **** 				__Do_Moving_Gate_After_COS_Action_Motor1_Start(OPEN_MOVING_DIRECTION, 0x01);
1881:../DGC_A230_Functions/DGC_A230_Normal_Mode.c **** 				__Do_Moving_Gate_After_COS_Action_Motor2_Start(OPEN_MOVING_DIRECTION, 0x01);
1882:../DGC_A230_Functions/DGC_A230_Normal_Mode.c **** 				__Do_Moving_Gate_After_COS_Action_Motor1_End(OPEN_MOVING_DIRECTION, 0x01);
1883:../DGC_A230_Functions/DGC_A230_Normal_Mode.c **** 				__Do_Moving_Gate_After_COS_Action_Motor2_End(OPEN_MOVING_DIRECTION, 0x01);
1884:../DGC_A230_Functions/DGC_A230_Normal_Mode.c **** 			}
1885:../DGC_A230_Functions/DGC_A230_Normal_Mode.c **** 		} break;
1886:../DGC_A230_Functions/DGC_A230_Normal_Mode.c **** 
1887:../DGC_A230_Functions/DGC_A230_Normal_Mode.c **** 		default:
1888:../DGC_A230_Functions/DGC_A230_Normal_Mode.c **** 		{
1889:../DGC_A230_Functions/DGC_A230_Normal_Mode.c **** 			// Do nothing
1890:../DGC_A230_Functions/DGC_A230_Normal_Mode.c **** 		} break;
 5765                             		.loc 1 1890 0
 5766 0037 EC 3E 02 00             		br	!!.L409
 5767                             	.L412:
1786:../DGC_A230_Functions/DGC_A230_Normal_Mode.c **** 	switch(Machine_State)
 5768                             		.loc 1 1786 0
 5769 003b AD F0                   		movw	ax, r8
 5770 003d 44 03 00                		cmpw	ax, #3
 5771 0040 61 F8                   		 sknz
 5772 0042 EC 97 01 00             		 br	!!.L415
 5773 0046 AD F0                   		movw	ax, r8
 5774 0048 44 04 00                		cmpw	ax, #4
 5775 004b 61 F8                   		 sknz
 5776 004d EC F1 01 00             		 br	!!.L416
 5777                             		.loc 1 1890 0
 5778 0051 EC 3E 02 00             		br	!!.L409
 5779                             	.L414:
1795:../DGC_A230_Functions/DGC_A230_Normal_Mode.c **** 			{
 5780                             		.loc 1 1795 0
 5781 0055 8F 00 00                		mov	a, !_CFG_parameter+60
 5782 0058 9D F0                   		mov	r8, a
 5783 005a D4 F0                   		cmp0	r8
 5784 005c 61 F8                   		 sknz
 5785 005e EC F9 00 00             		 br	!!.L418
1797:../DGC_A230_Functions/DGC_A230_Normal_Mode.c **** 				{
 5786                             		.loc 1 1797 0
 5787 0062 8F 00 00                		mov	a, !_CFG_parameter+60
 5788 0065 9D F0                   		mov	r8, a
 5789 0067 4A F0 02                		cmp	r8, #2
 5790 006a 61 E3                   		 skh
 5791 006c EC F9 00 00             		 br	!!.L418
 5792                             	.LBB167:
1799:../DGC_A230_Functions/DGC_A230_Normal_Mode.c **** 					Leaf_No2_State = GATE_STATE_OPENING_PAUSE;
 5793                             		.loc 1 1799 0
 5794 0070 51 06                   		mov	a, #6
 5795 0072 9F 00 00                		mov	!_Leaf_No1_State, a
1800:../DGC_A230_Functions/DGC_A230_Normal_Mode.c **** 					__Do_Stop_Gate_Motor1(OPEN_MOVING_DIRECTION);
 5796                             		.loc 1 1800 0
 5797 0075 51 06                   		mov	a, #6
 5798 0077 9F 00 00                		mov	!_Leaf_No2_State, a
1801:../DGC_A230_Functions/DGC_A230_Normal_Mode.c **** 					__Do_Stop_Gate_Motor2(OPEN_MOVING_DIRECTION);
 5799                             		.loc 1 1801 0
 5800 007a F6                      		clrw	ax
 5801 007b B8 00                   		movw	[sp], ax
 5802 007d FC 00 00 00             		call	!!%code(___Do_Stop_Gate_Motor1)
1802:../DGC_A230_Functions/DGC_A230_Normal_Mode.c **** 
 5803                             		.loc 1 1802 0
 5804 0081 F6                      		clrw	ax
 5805 0082 B8 00                   		movw	[sp], ax
 5806 0084 FC 00 00 00             		call	!!%code(___Do_Stop_Gate_Motor2)
1804:../DGC_A230_Functions/DGC_A230_Normal_Mode.c **** 					if(CFG_parameter.Number_Of_Motors == 0x02)
 5807                             		.loc 1 1804 0
 5808 0088 F5 00 00                		clrb	!_Pre_flash_Time
1805:../DGC_A230_Functions/DGC_A230_Normal_Mode.c **** 					{
 5809                             		.loc 1 1805 0
 5810 008b 8F 00 00                		mov	a, !_CFG_parameter+1
 5811 008e 9D F0                   		mov	r8, a
 5812 0090 4A F0 02                		cmp	r8, #2
 5813 0093 61 E8                   		 skz
 5814 0095 EC CD 00 00             		 br	!!.L419
 5815                             	.LBB168:
1807:../DGC_A230_Functions/DGC_A230_Normal_Mode.c **** 						__Do_Moving_Gate_After_COS_Action_Motor2_Start(CLOSE_MOVING_DIRECTION, 0x02);
 5816                             		.loc 1 1807 0
 5817 0099 E6                      		onew	ax
 5818 009a B8 00                   		movw	[sp], ax
 5819 009c 30 02 00                		movw	ax, #2
 5820 009f B8 02                   		movw	[sp+2], ax
 5821 00a1 FC 00 00 00             		call	!!%code(___Do_Moving_Gate_After_COS_Action_Motor1_Start)
1808:../DGC_A230_Functions/DGC_A230_Normal_Mode.c **** 						__Do_Moving_Gate_After_COS_Action_Motor1_End(CLOSE_MOVING_DIRECTION, 0x02);
 5822                             		.loc 1 1808 0
 5823 00a5 E6                      		onew	ax
 5824 00a6 B8 00                   		movw	[sp], ax
 5825 00a8 30 02 00                		movw	ax, #2
 5826 00ab B8 02                   		movw	[sp+2], ax
 5827 00ad FC 00 00 00             		call	!!%code(___Do_Moving_Gate_After_COS_Action_Motor2_Start)
1809:../DGC_A230_Functions/DGC_A230_Normal_Mode.c **** 						__Do_Moving_Gate_After_COS_Action_Motor2_End(CLOSE_MOVING_DIRECTION, 0x02);
 5828                             		.loc 1 1809 0
 5829 00b1 E6                      		onew	ax
 5830 00b2 B8 00                   		movw	[sp], ax
 5831 00b4 30 02 00                		movw	ax, #2
 5832 00b7 B8 02                   		movw	[sp+2], ax
 5833 00b9 FC 00 00 00             		call	!!%code(___Do_Moving_Gate_After_COS_Action_Motor1_End)
1810:../DGC_A230_Functions/DGC_A230_Normal_Mode.c **** 					}
 5834                             		.loc 1 1810 0
 5835 00bd E6                      		onew	ax
 5836 00be B8 00                   		movw	[sp], ax
 5837 00c0 30 02 00                		movw	ax, #2
 5838 00c3 B8 02                   		movw	[sp+2], ax
 5839 00c5 FC 00 00 00             		call	!!%code(___Do_Moving_Gate_After_COS_Action_Motor2_End)
 5840                             	.LBE168:
 5841 00c9 EC F9 00 00             		br	!!.L418
 5842                             	.L419:
 5843                             	.LBB169:
1814:../DGC_A230_Functions/DGC_A230_Normal_Mode.c **** 						__Do_Moving_Gate_After_COS_Action_Motor2_Start(CLOSE_MOVING_DIRECTION, 0x01);
 5844                             		.loc 1 1814 0
 5845 00cd E6                      		onew	ax
 5846 00ce B8 00                   		movw	[sp], ax
 5847 00d0 E6                      		onew	ax
 5848 00d1 B8 02                   		movw	[sp+2], ax
 5849 00d3 FC 00 00 00             		call	!!%code(___Do_Moving_Gate_After_COS_Action_Motor1_Start)
1815:../DGC_A230_Functions/DGC_A230_Normal_Mode.c **** 						__Do_Moving_Gate_After_COS_Action_Motor1_End(CLOSE_MOVING_DIRECTION, 0x01);
 5850                             		.loc 1 1815 0
 5851 00d7 E6                      		onew	ax
 5852 00d8 B8 00                   		movw	[sp], ax
 5853 00da E6                      		onew	ax
 5854 00db B8 02                   		movw	[sp+2], ax
 5855 00dd FC 00 00 00             		call	!!%code(___Do_Moving_Gate_After_COS_Action_Motor2_Start)
1816:../DGC_A230_Functions/DGC_A230_Normal_Mode.c **** 						__Do_Moving_Gate_After_COS_Action_Motor2_End(CLOSE_MOVING_DIRECTION, 0x01);
 5856                             		.loc 1 1816 0
 5857 00e1 E6                      		onew	ax
 5858 00e2 B8 00                   		movw	[sp], ax
 5859 00e4 E6                      		onew	ax
 5860 00e5 B8 02                   		movw	[sp+2], ax
 5861 00e7 FC 00 00 00             		call	!!%code(___Do_Moving_Gate_After_COS_Action_Motor1_End)
1817:../DGC_A230_Functions/DGC_A230_Normal_Mode.c **** 					}
 5862                             		.loc 1 1817 0
 5863 00eb E6                      		onew	ax
 5864 00ec B8 00                   		movw	[sp], ax
 5865 00ee E6                      		onew	ax
 5866 00ef B8 02                   		movw	[sp+2], ax
 5867 00f1 FC 00 00 00             		call	!!%code(___Do_Moving_Gate_After_COS_Action_Motor2_End)
 5868                             	.LBE169:
 5869                             	.LBE167:
1822:../DGC_A230_Functions/DGC_A230_Normal_Mode.c **** 
 5870                             		.loc 1 1822 0
 5871 00f5 EC 3E 02 00             		br	!!.L409
 5872                             	.L418:
 5873 00f9 EC 3E 02 00             		br	!!.L409
 5874                             	.L411:
1826:../DGC_A230_Functions/DGC_A230_Normal_Mode.c **** 			{
 5875                             		.loc 1 1826 0
 5876 00fd 8F 00 00                		mov	a, !_CFG_parameter+60
 5877 0100 9D F0                   		mov	r8, a
 5878 0102 D4 F0                   		cmp0	r8
 5879 0104 61 F8                   		 sknz
 5880 0106 EC 93 01 00             		 br	!!.L420
 5881                             	.LBB170:
1828:../DGC_A230_Functions/DGC_A230_Normal_Mode.c **** 				Leaf_No2_State = GATE_STATE_CLOSING_PAUSE;
 5882                             		.loc 1 1828 0
 5883 010a 51 07                   		mov	a, #7
 5884 010c 9F 00 00                		mov	!_Leaf_No1_State, a
1829:../DGC_A230_Functions/DGC_A230_Normal_Mode.c **** 				__Do_Stop_Gate_Motor1(CLOSE_MOVING_DIRECTION);
 5885                             		.loc 1 1829 0
 5886 010f 51 07                   		mov	a, #7
 5887 0111 9F 00 00                		mov	!_Leaf_No2_State, a
1830:../DGC_A230_Functions/DGC_A230_Normal_Mode.c **** 				__Do_Stop_Gate_Motor2(CLOSE_MOVING_DIRECTION);
 5888                             		.loc 1 1830 0
 5889 0114 E6                      		onew	ax
 5890 0115 B8 00                   		movw	[sp], ax
 5891 0117 FC 00 00 00             		call	!!%code(___Do_Stop_Gate_Motor1)
1831:../DGC_A230_Functions/DGC_A230_Normal_Mode.c **** 
 5892                             		.loc 1 1831 0
 5893 011b E6                      		onew	ax
 5894 011c B8 00                   		movw	[sp], ax
 5895 011e FC 00 00 00             		call	!!%code(___Do_Stop_Gate_Motor2)
1833:../DGC_A230_Functions/DGC_A230_Normal_Mode.c **** 				if(CFG_parameter.Number_Of_Motors == 0x02)
 5896                             		.loc 1 1833 0
 5897 0122 F5 00 00                		clrb	!_Pre_flash_Time
1834:../DGC_A230_Functions/DGC_A230_Normal_Mode.c **** 				{
 5898                             		.loc 1 1834 0
 5899 0125 8F 00 00                		mov	a, !_CFG_parameter+1
 5900 0128 9D F0                   		mov	r8, a
 5901 012a 4A F0 02                		cmp	r8, #2
 5902 012d 61 E8                   		 skz
 5903 012f EC 67 01 00             		 br	!!.L421
 5904                             	.LBB171:
1836:../DGC_A230_Functions/DGC_A230_Normal_Mode.c **** 					__Do_Moving_Gate_After_COS_Action_Motor2_Start(OPEN_MOVING_DIRECTION, 0x02);
 5905                             		.loc 1 1836 0
 5906 0133 F6                      		clrw	ax
 5907 0134 B8 00                   		movw	[sp], ax
 5908 0136 30 02 00                		movw	ax, #2
 5909 0139 B8 02                   		movw	[sp+2], ax
 5910 013b FC 00 00 00             		call	!!%code(___Do_Moving_Gate_After_COS_Action_Motor1_Start)
1837:../DGC_A230_Functions/DGC_A230_Normal_Mode.c **** 					__Do_Moving_Gate_After_COS_Action_Motor1_End(OPEN_MOVING_DIRECTION, 0x02);
 5911                             		.loc 1 1837 0
 5912 013f F6                      		clrw	ax
 5913 0140 B8 00                   		movw	[sp], ax
 5914 0142 30 02 00                		movw	ax, #2
 5915 0145 B8 02                   		movw	[sp+2], ax
 5916 0147 FC 00 00 00             		call	!!%code(___Do_Moving_Gate_After_COS_Action_Motor2_Start)
1838:../DGC_A230_Functions/DGC_A230_Normal_Mode.c **** 					__Do_Moving_Gate_After_COS_Action_Motor2_End(OPEN_MOVING_DIRECTION, 0x02);
 5917                             		.loc 1 1838 0
 5918 014b F6                      		clrw	ax
 5919 014c B8 00                   		movw	[sp], ax
 5920 014e 30 02 00                		movw	ax, #2
 5921 0151 B8 02                   		movw	[sp+2], ax
 5922 0153 FC 00 00 00             		call	!!%code(___Do_Moving_Gate_After_COS_Action_Motor1_End)
1839:../DGC_A230_Functions/DGC_A230_Normal_Mode.c **** 				}
 5923                             		.loc 1 1839 0
 5924 0157 F6                      		clrw	ax
 5925 0158 B8 00                   		movw	[sp], ax
 5926 015a 30 02 00                		movw	ax, #2
 5927 015d B8 02                   		movw	[sp+2], ax
 5928 015f FC 00 00 00             		call	!!%code(___Do_Moving_Gate_After_COS_Action_Motor2_End)
 5929                             	.LBE171:
 5930 0163 EC 93 01 00             		br	!!.L420
 5931                             	.L421:
 5932                             	.LBB172:
1843:../DGC_A230_Functions/DGC_A230_Normal_Mode.c **** 					__Do_Moving_Gate_After_COS_Action_Motor2_Start(OPEN_MOVING_DIRECTION, 0x01);
 5933                             		.loc 1 1843 0
 5934 0167 F6                      		clrw	ax
 5935 0168 B8 00                   		movw	[sp], ax
 5936 016a E6                      		onew	ax
 5937 016b B8 02                   		movw	[sp+2], ax
 5938 016d FC 00 00 00             		call	!!%code(___Do_Moving_Gate_After_COS_Action_Motor1_Start)
1844:../DGC_A230_Functions/DGC_A230_Normal_Mode.c **** 					__Do_Moving_Gate_After_COS_Action_Motor1_End(OPEN_MOVING_DIRECTION, 0x01);
 5939                             		.loc 1 1844 0
 5940 0171 F6                      		clrw	ax
 5941 0172 B8 00                   		movw	[sp], ax
 5942 0174 E6                      		onew	ax
 5943 0175 B8 02                   		movw	[sp+2], ax
 5944 0177 FC 00 00 00             		call	!!%code(___Do_Moving_Gate_After_COS_Action_Motor2_Start)
1845:../DGC_A230_Functions/DGC_A230_Normal_Mode.c **** 					__Do_Moving_Gate_After_COS_Action_Motor2_End(OPEN_MOVING_DIRECTION, 0x01);
 5945                             		.loc 1 1845 0
 5946 017b F6                      		clrw	ax
 5947 017c B8 00                   		movw	[sp], ax
 5948 017e E6                      		onew	ax
 5949 017f B8 02                   		movw	[sp+2], ax
 5950 0181 FC 00 00 00             		call	!!%code(___Do_Moving_Gate_After_COS_Action_Motor1_End)
1846:../DGC_A230_Functions/DGC_A230_Normal_Mode.c **** 				}
 5951                             		.loc 1 1846 0
 5952 0185 F6                      		clrw	ax
 5953 0186 B8 00                   		movw	[sp], ax
 5954 0188 E6                      		onew	ax
 5955 0189 B8 02                   		movw	[sp+2], ax
 5956 018b FC 00 00 00             		call	!!%code(___Do_Moving_Gate_After_COS_Action_Motor2_End)
 5957                             	.LBE172:
 5958                             	.LBE170:
1850:../DGC_A230_Functions/DGC_A230_Normal_Mode.c **** 
 5959                             		.loc 1 1850 0
 5960 018f EC 3E 02 00             		br	!!.L409
 5961                             	.L420:
 5962 0193 EC 3E 02 00             		br	!!.L409
 5963                             	.L415:
1854:../DGC_A230_Functions/DGC_A230_Normal_Mode.c **** 			{
 5964                             		.loc 1 1854 0
 5965 0197 8F 00 00                		mov	a, !_CFG_parameter+60
 5966 019a 9D F0                   		mov	r8, a
 5967 019c D4 F0                   		cmp0	r8
 5968 019e 61 F8                   		 sknz
 5969 01a0 EC ED 01 00             		 br	!!.L422
1856:../DGC_A230_Functions/DGC_A230_Normal_Mode.c **** 				{
 5970                             		.loc 1 1856 0
 5971 01a4 8F 00 00                		mov	a, !_CFG_parameter+60
 5972 01a7 9D F0                   		mov	r8, a
 5973 01a9 4A F0 02                		cmp	r8, #2
 5974 01ac 61 E3                   		 skh
 5975 01ae EC ED 01 00             		 br	!!.L422
 5976                             	.LBB173:
1858:../DGC_A230_Functions/DGC_A230_Normal_Mode.c **** 					__Do_Partial_Stop_Gate(OPEN_MOVING_DIRECTION);
 5977                             		.loc 1 1858 0
 5978 01b2 51 08                   		mov	a, #8
 5979 01b4 9F 00 00                		mov	!_Leaf_No1_State, a
1859:../DGC_A230_Functions/DGC_A230_Normal_Mode.c **** 
 5980                             		.loc 1 1859 0
 5981 01b7 F6                      		clrw	ax
 5982 01b8 B8 00                   		movw	[sp], ax
 5983 01ba FC 00 00 00             		call	!!%code(___Do_Partial_Stop_Gate)
1861:../DGC_A230_Functions/DGC_A230_Normal_Mode.c **** 
 5984                             		.loc 1 1861 0
 5985 01be F5 00 00                		clrb	!_Pre_flash_Time
1863:../DGC_A230_Functions/DGC_A230_Normal_Mode.c **** 					__Do_Moving_Gate_After_COS_Action_Motor2_Start(CLOSE_MOVING_DIRECTION, 0x01);
 5986                             		.loc 1 1863 0
 5987 01c1 E6                      		onew	ax
 5988 01c2 B8 00                   		movw	[sp], ax
 5989 01c4 E6                      		onew	ax
 5990 01c5 B8 02                   		movw	[sp+2], ax
 5991 01c7 FC 00 00 00             		call	!!%code(___Do_Moving_Gate_After_COS_Action_Motor1_Start)
1864:../DGC_A230_Functions/DGC_A230_Normal_Mode.c **** 					__Do_Moving_Gate_After_COS_Action_Motor1_End(CLOSE_MOVING_DIRECTION, 0x01);
 5992                             		.loc 1 1864 0
 5993 01cb E6                      		onew	ax
 5994 01cc B8 00                   		movw	[sp], ax
 5995 01ce E6                      		onew	ax
 5996 01cf B8 02                   		movw	[sp+2], ax
 5997 01d1 FC 00 00 00             		call	!!%code(___Do_Moving_Gate_After_COS_Action_Motor2_Start)
1865:../DGC_A230_Functions/DGC_A230_Normal_Mode.c **** 					__Do_Moving_Gate_After_COS_Action_Motor2_End(CLOSE_MOVING_DIRECTION, 0x01);
 5998                             		.loc 1 1865 0
 5999 01d5 E6                      		onew	ax
 6000 01d6 B8 00                   		movw	[sp], ax
 6001 01d8 E6                      		onew	ax
 6002 01d9 B8 02                   		movw	[sp+2], ax
 6003 01db FC 00 00 00             		call	!!%code(___Do_Moving_Gate_After_COS_Action_Motor1_End)
1866:../DGC_A230_Functions/DGC_A230_Normal_Mode.c **** 				}
 6004                             		.loc 1 1866 0
 6005 01df E6                      		onew	ax
 6006 01e0 B8 00                   		movw	[sp], ax
 6007 01e2 E6                      		onew	ax
 6008 01e3 B8 02                   		movw	[sp+2], ax
 6009 01e5 FC 00 00 00             		call	!!%code(___Do_Moving_Gate_After_COS_Action_Motor2_End)
 6010                             	.LBE173:
1869:../DGC_A230_Functions/DGC_A230_Normal_Mode.c **** 
 6011                             		.loc 1 1869 0
 6012 01e9 EC 3E 02 00             		br	!!.L409
 6013                             	.L422:
 6014 01ed EC 3E 02 00             		br	!!.L409
 6015                             	.L416:
1873:../DGC_A230_Functions/DGC_A230_Normal_Mode.c **** 			{
 6016                             		.loc 1 1873 0
 6017 01f1 8F 00 00                		mov	a, !_CFG_parameter+60
 6018 01f4 9D F0                   		mov	r8, a
 6019 01f6 D4 F0                   		cmp0	r8
 6020 01f8 61 F8                   		 sknz
 6021 01fa EC 39 02 00             		 br	!!.L423
 6022                             	.LBB174:
1875:../DGC_A230_Functions/DGC_A230_Normal_Mode.c **** 				__Do_Partial_Stop_Gate(CLOSE_MOVING_DIRECTION);
 6023                             		.loc 1 1875 0
 6024 01fe 51 07                   		mov	a, #7
 6025 0200 9F 00 00                		mov	!_Leaf_No1_State, a
1876:../DGC_A230_Functions/DGC_A230_Normal_Mode.c **** 
 6026                             		.loc 1 1876 0
 6027 0203 E6                      		onew	ax
 6028 0204 B8 00                   		movw	[sp], ax
 6029 0206 FC 00 00 00             		call	!!%code(___Do_Partial_Stop_Gate)
1878:../DGC_A230_Functions/DGC_A230_Normal_Mode.c **** 
 6030                             		.loc 1 1878 0
 6031 020a F5 00 00                		clrb	!_Pre_flash_Time
1880:../DGC_A230_Functions/DGC_A230_Normal_Mode.c **** 				__Do_Moving_Gate_After_COS_Action_Motor2_Start(OPEN_MOVING_DIRECTION, 0x01);
 6032                             		.loc 1 1880 0
 6033 020d F6                      		clrw	ax
 6034 020e B8 00                   		movw	[sp], ax
 6035 0210 E6                      		onew	ax
 6036 0211 B8 02                   		movw	[sp+2], ax
 6037 0213 FC 00 00 00             		call	!!%code(___Do_Moving_Gate_After_COS_Action_Motor1_Start)
1881:../DGC_A230_Functions/DGC_A230_Normal_Mode.c **** 				__Do_Moving_Gate_After_COS_Action_Motor1_End(OPEN_MOVING_DIRECTION, 0x01);
 6038                             		.loc 1 1881 0
 6039 0217 F6                      		clrw	ax
 6040 0218 B8 00                   		movw	[sp], ax
 6041 021a E6                      		onew	ax
 6042 021b B8 02                   		movw	[sp+2], ax
 6043 021d FC 00 00 00             		call	!!%code(___Do_Moving_Gate_After_COS_Action_Motor2_Start)
1882:../DGC_A230_Functions/DGC_A230_Normal_Mode.c **** 				__Do_Moving_Gate_After_COS_Action_Motor2_End(OPEN_MOVING_DIRECTION, 0x01);
 6044                             		.loc 1 1882 0
 6045 0221 F6                      		clrw	ax
 6046 0222 B8 00                   		movw	[sp], ax
 6047 0224 E6                      		onew	ax
 6048 0225 B8 02                   		movw	[sp+2], ax
 6049 0227 FC 00 00 00             		call	!!%code(___Do_Moving_Gate_After_COS_Action_Motor1_End)
1883:../DGC_A230_Functions/DGC_A230_Normal_Mode.c **** 			}
 6050                             		.loc 1 1883 0
 6051 022b F6                      		clrw	ax
 6052 022c B8 00                   		movw	[sp], ax
 6053 022e E6                      		onew	ax
 6054 022f B8 02                   		movw	[sp+2], ax
 6055 0231 FC 00 00 00             		call	!!%code(___Do_Moving_Gate_After_COS_Action_Motor2_End)
 6056                             	.LBE174:
1885:../DGC_A230_Functions/DGC_A230_Normal_Mode.c **** 
 6057                             		.loc 1 1885 0
 6058 0235 EC 3E 02 00             		br	!!.L409
 6059                             	.L423:
 6060 0239 EC 3E 02 00             		br	!!.L409
 6061                             	.L424:
1791:../DGC_A230_Functions/DGC_A230_Normal_Mode.c **** 
 6062                             		.loc 1 1791 0
 6063 023d 00                      		nop
 6064                             	.L409:
1891:../DGC_A230_Functions/DGC_A230_Normal_Mode.c **** 	}
1892:../DGC_A230_Functions/DGC_A230_Normal_Mode.c **** }
 6065                             		.loc 1 1892 0
 6066 023e 10 04                   		addw	sp, #4
 6067 0240 D7                      		ret
 6068                             	.LFE19:
 6070                             		.section	.text.Emergency_Stop_Process,"ax",@progbits
 6071                             		.global	_Emergency_Stop_Process
 6073                             	_Emergency_Stop_Process:
 6074                             	.LFB20:
1893:../DGC_A230_Functions/DGC_A230_Normal_Mode.c **** 
1894:../DGC_A230_Functions/DGC_A230_Normal_Mode.c **** void Emergency_Stop_Process (void)
1895:../DGC_A230_Functions/DGC_A230_Normal_Mode.c **** {
 6075                             		.loc 1 1895 0
 6076                             		; start of function
 6077                             		; outgoing: 2 bytes
 6078                             		; uses ES register
 6079 0000 20 02                   		subw	sp, #2
 6080                             	.LCFI16:
1896:../DGC_A230_Functions/DGC_A230_Normal_Mode.c **** 	if (CFG_parameter.Stop_Command_Enable_Braking == 0x01)
 6081                             		.loc 1 1896 0
 6082 0002 8F 00 00                		mov	a, !_CFG_parameter+89
 6083 0005 9D F0                   		mov	r8, a
 6084 0007 4A F0 01                		cmp	r8, #1
 6085 000a 61 E8                   		 skz
 6086 000c EC B3 00 00             		 br	!!.L426
1897:../DGC_A230_Functions/DGC_A230_Normal_Mode.c **** 	{
1898:../DGC_A230_Functions/DGC_A230_Normal_Mode.c **** 		switch (Machine_State)
 6087                             		.loc 1 1898 0
 6088 0010 8F 00 00                		mov	a, !_Machine_State
 6089 0013 9D F0                   		mov	r8, a
 6090 0015 F4 F1                   		clrb	r9
 6091 0017 AD F0                   		movw	ax, r8
 6092 0019 44 02 00                		cmpw	ax, #2
 6093 001c 61 F8                   		 sknz
 6094 001e EC 7C 00 00             		 br	!!.L428
 6095 0022 AD F0                   		movw	ax, r8
 6096 0024 44 02 00                		cmpw	ax, #2
 6097 0027 71 FF                   		 xor1	CY, a.7
 6098 0029 61 F3                   		 sknh
 6099 002b EC 3E 00 00             		 br	!!.L429
 6100 002f AD F0                   		movw	ax, r8
 6101 0031 44 01 00                		cmpw	ax, #1
 6102 0034 61 F8                   		 sknz
 6103 0036 EC 58 00 00             		 br	!!.L430
1899:../DGC_A230_Functions/DGC_A230_Normal_Mode.c **** 		{
1900:../DGC_A230_Functions/DGC_A230_Normal_Mode.c **** 			case MACHINE_STATE_NORMAL_OPENING:
1901:../DGC_A230_Functions/DGC_A230_Normal_Mode.c **** 			{
1902:../DGC_A230_Functions/DGC_A230_Normal_Mode.c **** 				if (CFG_parameter.Number_Of_Motors == 0x02)
1903:../DGC_A230_Functions/DGC_A230_Normal_Mode.c **** 					__Do_Brake_Motor_Type_2(OPEN_MOVING_DIRECTION);
1904:../DGC_A230_Functions/DGC_A230_Normal_Mode.c **** 				else
1905:../DGC_A230_Functions/DGC_A230_Normal_Mode.c **** 					__Do_Brake_Motor_Type_1(OPEN_MOVING_DIRECTION);
1906:../DGC_A230_Functions/DGC_A230_Normal_Mode.c **** 			} break;
1907:../DGC_A230_Functions/DGC_A230_Normal_Mode.c **** 			case MACHINE_STATE_NORMAL_CLOSING:
1908:../DGC_A230_Functions/DGC_A230_Normal_Mode.c **** 			{
1909:../DGC_A230_Functions/DGC_A230_Normal_Mode.c **** 				if (CFG_parameter.Number_Of_Motors == 0x02)
1910:../DGC_A230_Functions/DGC_A230_Normal_Mode.c **** 					__Do_Brake_Motor_Type_2(CLOSE_MOVING_DIRECTION);
1911:../DGC_A230_Functions/DGC_A230_Normal_Mode.c **** 				else
1912:../DGC_A230_Functions/DGC_A230_Normal_Mode.c **** 					__Do_Brake_Motor_Type_1(CLOSE_MOVING_DIRECTION);
1913:../DGC_A230_Functions/DGC_A230_Normal_Mode.c **** 			} break;
1914:../DGC_A230_Functions/DGC_A230_Normal_Mode.c **** 			case MACHINE_STATE_PARTIAL_OPENING:
1915:../DGC_A230_Functions/DGC_A230_Normal_Mode.c **** 			{
1916:../DGC_A230_Functions/DGC_A230_Normal_Mode.c **** 				__Do_Brake_Motor_Type_1(OPEN_MOVING_DIRECTION);
1917:../DGC_A230_Functions/DGC_A230_Normal_Mode.c **** 			} break;
1918:../DGC_A230_Functions/DGC_A230_Normal_Mode.c **** 			case MACHINE_STATE_PARTIAL_CLOSING:
1919:../DGC_A230_Functions/DGC_A230_Normal_Mode.c **** 			{
1920:../DGC_A230_Functions/DGC_A230_Normal_Mode.c **** 				__Do_Brake_Motor_Type_1(CLOSE_MOVING_DIRECTION);
1921:../DGC_A230_Functions/DGC_A230_Normal_Mode.c **** 			} break;
1922:../DGC_A230_Functions/DGC_A230_Normal_Mode.c **** 			default: break;
 6104                             		.loc 1 1922 0
 6105 003a EC B3 00 00             		br	!!.L426
 6106                             	.L429:
1898:../DGC_A230_Functions/DGC_A230_Normal_Mode.c **** 		{
 6107                             		.loc 1 1898 0
 6108 003e AD F0                   		movw	ax, r8
 6109 0040 44 03 00                		cmpw	ax, #3
 6110 0043 61 F8                   		 sknz
 6111 0045 EC A0 00 00             		 br	!!.L431
 6112 0049 AD F0                   		movw	ax, r8
 6113 004b 44 04 00                		cmpw	ax, #4
 6114 004e 61 F8                   		 sknz
 6115 0050 EC AB 00 00             		 br	!!.L432
 6116                             		.loc 1 1922 0
 6117 0054 EC B3 00 00             		br	!!.L426
 6118                             	.L430:
 6119                             	.LBB175:
1902:../DGC_A230_Functions/DGC_A230_Normal_Mode.c **** 					__Do_Brake_Motor_Type_2(OPEN_MOVING_DIRECTION);
 6120                             		.loc 1 1902 0
 6121 0058 8F 00 00                		mov	a, !_CFG_parameter+1
 6122 005b 9D F0                   		mov	r8, a
 6123 005d 4A F0 02                		cmp	r8, #2
 6124 0060 61 E8                   		 skz
 6125 0062 EC 71 00 00             		 br	!!.L433
1903:../DGC_A230_Functions/DGC_A230_Normal_Mode.c **** 				else
 6126                             		.loc 1 1903 0
 6127 0066 F6                      		clrw	ax
 6128 0067 B8 00                   		movw	[sp], ax
 6129 0069 FC 00 00 00             		call	!!%code(___Do_Brake_Motor_Type_2)
 6130                             	.LBE175:
1906:../DGC_A230_Functions/DGC_A230_Normal_Mode.c **** 			case MACHINE_STATE_NORMAL_CLOSING:
 6131                             		.loc 1 1906 0
 6132 006d EC B3 00 00             		br	!!.L426
 6133                             	.L433:
 6134                             	.LBB176:
1905:../DGC_A230_Functions/DGC_A230_Normal_Mode.c **** 			} break;
 6135                             		.loc 1 1905 0
 6136 0071 F6                      		clrw	ax
 6137 0072 B8 00                   		movw	[sp], ax
 6138 0074 FC 00 00 00             		call	!!%code(___Do_Brake_Motor_Type_1)
 6139                             	.LBE176:
1906:../DGC_A230_Functions/DGC_A230_Normal_Mode.c **** 			case MACHINE_STATE_NORMAL_CLOSING:
 6140                             		.loc 1 1906 0
 6141 0078 EC B3 00 00             		br	!!.L426
 6142                             	.L428:
 6143                             	.LBB177:
1909:../DGC_A230_Functions/DGC_A230_Normal_Mode.c **** 					__Do_Brake_Motor_Type_2(CLOSE_MOVING_DIRECTION);
 6144                             		.loc 1 1909 0
 6145 007c 8F 00 00                		mov	a, !_CFG_parameter+1
 6146 007f 9D F0                   		mov	r8, a
 6147 0081 4A F0 02                		cmp	r8, #2
 6148 0084 61 E8                   		 skz
 6149 0086 EC 95 00 00             		 br	!!.L435
1910:../DGC_A230_Functions/DGC_A230_Normal_Mode.c **** 				else
 6150                             		.loc 1 1910 0
 6151 008a E6                      		onew	ax
 6152 008b B8 00                   		movw	[sp], ax
 6153 008d FC 00 00 00             		call	!!%code(___Do_Brake_Motor_Type_2)
 6154                             	.LBE177:
1913:../DGC_A230_Functions/DGC_A230_Normal_Mode.c **** 			case MACHINE_STATE_PARTIAL_OPENING:
 6155                             		.loc 1 1913 0
 6156 0091 EC B3 00 00             		br	!!.L426
 6157                             	.L435:
 6158                             	.LBB178:
1912:../DGC_A230_Functions/DGC_A230_Normal_Mode.c **** 			} break;
 6159                             		.loc 1 1912 0
 6160 0095 E6                      		onew	ax
 6161 0096 B8 00                   		movw	[sp], ax
 6162 0098 FC 00 00 00             		call	!!%code(___Do_Brake_Motor_Type_1)
 6163                             	.LBE178:
1913:../DGC_A230_Functions/DGC_A230_Normal_Mode.c **** 			case MACHINE_STATE_PARTIAL_OPENING:
 6164                             		.loc 1 1913 0
 6165 009c EC B3 00 00             		br	!!.L426
 6166                             	.L431:
 6167                             	.LBB179:
1916:../DGC_A230_Functions/DGC_A230_Normal_Mode.c **** 			} break;
 6168                             		.loc 1 1916 0
 6169 00a0 F6                      		clrw	ax
 6170 00a1 B8 00                   		movw	[sp], ax
 6171 00a3 FC 00 00 00             		call	!!%code(___Do_Brake_Motor_Type_1)
 6172                             	.LBE179:
1917:../DGC_A230_Functions/DGC_A230_Normal_Mode.c **** 			case MACHINE_STATE_PARTIAL_CLOSING:
 6173                             		.loc 1 1917 0
 6174 00a7 EC B3 00 00             		br	!!.L426
 6175                             	.L432:
 6176                             	.LBB180:
1920:../DGC_A230_Functions/DGC_A230_Normal_Mode.c **** 			} break;
 6177                             		.loc 1 1920 0
 6178 00ab E6                      		onew	ax
 6179 00ac B8 00                   		movw	[sp], ax
 6180 00ae FC 00 00 00             		call	!!%code(___Do_Brake_Motor_Type_1)
 6181                             	.LBE180:
1921:../DGC_A230_Functions/DGC_A230_Normal_Mode.c **** 			default: break;
 6182                             		.loc 1 1921 0
 6183 00b2 00                      		nop
 6184                             	.L426:
1923:../DGC_A230_Functions/DGC_A230_Normal_Mode.c **** 		}
1924:../DGC_A230_Functions/DGC_A230_Normal_Mode.c **** 	}
1925:../DGC_A230_Functions/DGC_A230_Normal_Mode.c **** 
1926:../DGC_A230_Functions/DGC_A230_Normal_Mode.c **** 	switch (Machine_State)
 6185                             		.loc 1 1926 0
 6186 00b3 8F 00 00                		mov	a, !_Machine_State
 6187 00b6 9D F0                   		mov	r8, a
 6188 00b8 F4 F1                   		clrb	r9
 6189 00ba AD F0                   		movw	ax, r8
 6190 00bc 44 02 00                		cmpw	ax, #2
 6191 00bf 61 F8                   		 sknz
 6192 00c1 EC 17 01 00             		 br	!!.L438
 6193 00c5 AD F0                   		movw	ax, r8
 6194 00c7 44 02 00                		cmpw	ax, #2
 6195 00ca 71 FF                   		 xor1	CY, a.7
 6196 00cc 61 F3                   		 sknh
 6197 00ce EC E1 00 00             		 br	!!.L439
 6198 00d2 AD F0                   		movw	ax, r8
 6199 00d4 44 01 00                		cmpw	ax, #1
 6200 00d7 61 F8                   		 sknz
 6201 00d9 EC FB 00 00             		 br	!!.L440
1927:../DGC_A230_Functions/DGC_A230_Normal_Mode.c **** 	{
1928:../DGC_A230_Functions/DGC_A230_Normal_Mode.c **** 		case MACHINE_STATE_NORMAL_OPENING:
1929:../DGC_A230_Functions/DGC_A230_Normal_Mode.c **** 		{
1930:../DGC_A230_Functions/DGC_A230_Normal_Mode.c **** 			Leaf_No1_State = GATE_STATE_OPENING_PAUSE;
1931:../DGC_A230_Functions/DGC_A230_Normal_Mode.c **** 			Leaf_No2_State = GATE_STATE_OPENING_PAUSE;
1932:../DGC_A230_Functions/DGC_A230_Normal_Mode.c **** 			__Do_Stop_Gate_Motor1(OPEN_MOVING_DIRECTION);
1933:../DGC_A230_Functions/DGC_A230_Normal_Mode.c **** 			__Do_Stop_Gate_Motor2(OPEN_MOVING_DIRECTION);
1934:../DGC_A230_Functions/DGC_A230_Normal_Mode.c **** 		} break;
1935:../DGC_A230_Functions/DGC_A230_Normal_Mode.c **** 		case MACHINE_STATE_NORMAL_CLOSING:
1936:../DGC_A230_Functions/DGC_A230_Normal_Mode.c **** 		{
1937:../DGC_A230_Functions/DGC_A230_Normal_Mode.c **** 			Leaf_No1_State = GATE_STATE_CLOSING_PAUSE;
1938:../DGC_A230_Functions/DGC_A230_Normal_Mode.c **** 			Leaf_No2_State = GATE_STATE_CLOSING_PAUSE;
1939:../DGC_A230_Functions/DGC_A230_Normal_Mode.c **** 			__Do_Stop_Gate_Motor1(CLOSE_MOVING_DIRECTION);
1940:../DGC_A230_Functions/DGC_A230_Normal_Mode.c **** 			__Do_Stop_Gate_Motor2(CLOSE_MOVING_DIRECTION);
1941:../DGC_A230_Functions/DGC_A230_Normal_Mode.c **** 		} break;
1942:../DGC_A230_Functions/DGC_A230_Normal_Mode.c **** 		case MACHINE_STATE_PARTIAL_OPENING:
1943:../DGC_A230_Functions/DGC_A230_Normal_Mode.c **** 		{
1944:../DGC_A230_Functions/DGC_A230_Normal_Mode.c **** 			Leaf_No1_State = GATE_STATE_OPENING_PAUSE;
1945:../DGC_A230_Functions/DGC_A230_Normal_Mode.c **** 			__Do_Partial_Stop_Gate(OPEN_MOVING_DIRECTION);
1946:../DGC_A230_Functions/DGC_A230_Normal_Mode.c **** 		} break;
1947:../DGC_A230_Functions/DGC_A230_Normal_Mode.c **** 		case MACHINE_STATE_PARTIAL_CLOSING:
1948:../DGC_A230_Functions/DGC_A230_Normal_Mode.c **** 		{
1949:../DGC_A230_Functions/DGC_A230_Normal_Mode.c **** 			Leaf_No1_State = GATE_STATE_CLOSING_PAUSE;
1950:../DGC_A230_Functions/DGC_A230_Normal_Mode.c **** 			__Do_Partial_Stop_Gate(CLOSE_MOVING_DIRECTION);
1951:../DGC_A230_Functions/DGC_A230_Normal_Mode.c **** 		} break;
1952:../DGC_A230_Functions/DGC_A230_Normal_Mode.c **** 		default: break;
 6202                             		.loc 1 1952 0
 6203 00dd EC 50 01 00             		br	!!.L425
 6204                             	.L439:
1926:../DGC_A230_Functions/DGC_A230_Normal_Mode.c **** 	{
 6205                             		.loc 1 1926 0
 6206 00e1 AD F0                   		movw	ax, r8
 6207 00e3 44 03 00                		cmpw	ax, #3
 6208 00e6 61 F8                   		 sknz
 6209 00e8 EC 33 01 00             		 br	!!.L441
 6210 00ec AD F0                   		movw	ax, r8
 6211 00ee 44 04 00                		cmpw	ax, #4
 6212 00f1 61 F8                   		 sknz
 6213 00f3 EC 43 01 00             		 br	!!.L442
 6214                             		.loc 1 1952 0
 6215 00f7 EC 50 01 00             		br	!!.L425
 6216                             	.L440:
 6217                             	.LBB181:
1930:../DGC_A230_Functions/DGC_A230_Normal_Mode.c **** 			Leaf_No2_State = GATE_STATE_OPENING_PAUSE;
 6218                             		.loc 1 1930 0
 6219 00fb 51 06                   		mov	a, #6
 6220 00fd 9F 00 00                		mov	!_Leaf_No1_State, a
1931:../DGC_A230_Functions/DGC_A230_Normal_Mode.c **** 			__Do_Stop_Gate_Motor1(OPEN_MOVING_DIRECTION);
 6221                             		.loc 1 1931 0
 6222 0100 51 06                   		mov	a, #6
 6223 0102 9F 00 00                		mov	!_Leaf_No2_State, a
1932:../DGC_A230_Functions/DGC_A230_Normal_Mode.c **** 			__Do_Stop_Gate_Motor2(OPEN_MOVING_DIRECTION);
 6224                             		.loc 1 1932 0
 6225 0105 F6                      		clrw	ax
 6226 0106 B8 00                   		movw	[sp], ax
 6227 0108 FC 00 00 00             		call	!!%code(___Do_Stop_Gate_Motor1)
1933:../DGC_A230_Functions/DGC_A230_Normal_Mode.c **** 		} break;
 6228                             		.loc 1 1933 0
 6229 010c F6                      		clrw	ax
 6230 010d B8 00                   		movw	[sp], ax
 6231 010f FC 00 00 00             		call	!!%code(___Do_Stop_Gate_Motor2)
 6232                             	.LBE181:
1934:../DGC_A230_Functions/DGC_A230_Normal_Mode.c **** 		case MACHINE_STATE_NORMAL_CLOSING:
 6233                             		.loc 1 1934 0
 6234 0113 EC 50 01 00             		br	!!.L425
 6235                             	.L438:
 6236                             	.LBB182:
1937:../DGC_A230_Functions/DGC_A230_Normal_Mode.c **** 			Leaf_No2_State = GATE_STATE_CLOSING_PAUSE;
 6237                             		.loc 1 1937 0
 6238 0117 51 07                   		mov	a, #7
 6239 0119 9F 00 00                		mov	!_Leaf_No1_State, a
1938:../DGC_A230_Functions/DGC_A230_Normal_Mode.c **** 			__Do_Stop_Gate_Motor1(CLOSE_MOVING_DIRECTION);
 6240                             		.loc 1 1938 0
 6241 011c 51 07                   		mov	a, #7
 6242 011e 9F 00 00                		mov	!_Leaf_No2_State, a
1939:../DGC_A230_Functions/DGC_A230_Normal_Mode.c **** 			__Do_Stop_Gate_Motor2(CLOSE_MOVING_DIRECTION);
 6243                             		.loc 1 1939 0
 6244 0121 E6                      		onew	ax
 6245 0122 B8 00                   		movw	[sp], ax
 6246 0124 FC 00 00 00             		call	!!%code(___Do_Stop_Gate_Motor1)
1940:../DGC_A230_Functions/DGC_A230_Normal_Mode.c **** 		} break;
 6247                             		.loc 1 1940 0
 6248 0128 E6                      		onew	ax
 6249 0129 B8 00                   		movw	[sp], ax
 6250 012b FC 00 00 00             		call	!!%code(___Do_Stop_Gate_Motor2)
 6251                             	.LBE182:
1941:../DGC_A230_Functions/DGC_A230_Normal_Mode.c **** 		case MACHINE_STATE_PARTIAL_OPENING:
 6252                             		.loc 1 1941 0
 6253 012f EC 50 01 00             		br	!!.L425
 6254                             	.L441:
 6255                             	.LBB183:
1944:../DGC_A230_Functions/DGC_A230_Normal_Mode.c **** 			__Do_Partial_Stop_Gate(OPEN_MOVING_DIRECTION);
 6256                             		.loc 1 1944 0
 6257 0133 51 06                   		mov	a, #6
 6258 0135 9F 00 00                		mov	!_Leaf_No1_State, a
1945:../DGC_A230_Functions/DGC_A230_Normal_Mode.c **** 		} break;
 6259                             		.loc 1 1945 0
 6260 0138 F6                      		clrw	ax
 6261 0139 B8 00                   		movw	[sp], ax
 6262 013b FC 00 00 00             		call	!!%code(___Do_Partial_Stop_Gate)
 6263                             	.LBE183:
1946:../DGC_A230_Functions/DGC_A230_Normal_Mode.c **** 		case MACHINE_STATE_PARTIAL_CLOSING:
 6264                             		.loc 1 1946 0
 6265 013f EC 50 01 00             		br	!!.L425
 6266                             	.L442:
 6267                             	.LBB184:
1949:../DGC_A230_Functions/DGC_A230_Normal_Mode.c **** 			__Do_Partial_Stop_Gate(CLOSE_MOVING_DIRECTION);
 6268                             		.loc 1 1949 0
 6269 0143 51 07                   		mov	a, #7
 6270 0145 9F 00 00                		mov	!_Leaf_No1_State, a
1950:../DGC_A230_Functions/DGC_A230_Normal_Mode.c **** 		} break;
 6271                             		.loc 1 1950 0
 6272 0148 E6                      		onew	ax
 6273 0149 B8 00                   		movw	[sp], ax
 6274 014b FC 00 00 00             		call	!!%code(___Do_Partial_Stop_Gate)
 6275                             	.LBE184:
1951:../DGC_A230_Functions/DGC_A230_Normal_Mode.c **** 		default: break;
 6276                             		.loc 1 1951 0
 6277 014f 00                      		nop
 6278                             	.L425:
1953:../DGC_A230_Functions/DGC_A230_Normal_Mode.c **** 	}
1954:../DGC_A230_Functions/DGC_A230_Normal_Mode.c **** }
 6279                             		.loc 1 1954 0
 6280 0150 10 02                   		addw	sp, #2
 6281 0152 D7                      		ret
 6282                             	.LFE20:
 6284                             		.section	.text.Open_Limit_Switch_No1_Process,"ax",@progbits
 6285                             		.global	_Open_Limit_Switch_No1_Process
 6287                             	_Open_Limit_Switch_No1_Process:
 6288                             	.LFB21:
1955:../DGC_A230_Functions/DGC_A230_Normal_Mode.c **** 
1956:../DGC_A230_Functions/DGC_A230_Normal_Mode.c **** void Open_Limit_Switch_No1_Process (void)
1957:../DGC_A230_Functions/DGC_A230_Normal_Mode.c **** {
 6289                             		.loc 1 1957 0
 6290                             		; start of function
 6291                             		; outgoing: 2 bytes
 6292                             		; uses ES register
 6293 0000 20 02                   		subw	sp, #2
 6294                             	.LCFI17:
1958:../DGC_A230_Functions/DGC_A230_Normal_Mode.c **** 	switch (Machine_State)
 6295                             		.loc 1 1958 0
 6296 0002 8F 00 00                		mov	a, !_Machine_State
 6297 0005 9D F0                   		mov	r8, a
 6298 0007 F4 F1                   		clrb	r9
 6299 0009 AD F0                   		movw	ax, r8
 6300 000b 44 02 00                		cmpw	ax, #2
 6301 000e 61 F8                   		 sknz
 6302 0010 EC 9C 00 00             		 br	!!.L454
 6303 0014 AD F0                   		movw	ax, r8
 6304 0016 44 02 00                		cmpw	ax, #2
 6305 0019 71 FF                   		 xor1	CY, a.7
 6306 001b 61 F3                   		 sknh
 6307 001d EC 30 00 00             		 br	!!.L447
 6308 0021 AD F0                   		movw	ax, r8
 6309 0023 44 01 00                		cmpw	ax, #1
 6310 0026 61 F8                   		 sknz
 6311 0028 EC 4A 00 00             		 br	!!.L448
1959:../DGC_A230_Functions/DGC_A230_Normal_Mode.c **** 	{
1960:../DGC_A230_Functions/DGC_A230_Normal_Mode.c **** 		case MACHINE_STATE_NORMAL_OPENING:
1961:../DGC_A230_Functions/DGC_A230_Normal_Mode.c **** 		{
1962:../DGC_A230_Functions/DGC_A230_Normal_Mode.c **** 			M1_Timestamp = UNDEFINE_TIMESTAMP;
1963:../DGC_A230_Functions/DGC_A230_Normal_Mode.c **** 			Motor1_Disable();
1964:../DGC_A230_Functions/DGC_A230_Normal_Mode.c **** 			Leaf_No1_State = GATE_STATE_OPENED;
1965:../DGC_A230_Functions/DGC_A230_Normal_Mode.c **** 
1966:../DGC_A230_Functions/DGC_A230_Normal_Mode.c **** 			if (CFG_parameter.Limit_Switch_Enable_Braking == 0x01)
1967:../DGC_A230_Functions/DGC_A230_Normal_Mode.c **** 			{
1968:../DGC_A230_Functions/DGC_A230_Normal_Mode.c **** 				__Do_Brake_Motor_Type_1(OPEN_MOVING_DIRECTION);
1969:../DGC_A230_Functions/DGC_A230_Normal_Mode.c **** 			}
1970:../DGC_A230_Functions/DGC_A230_Normal_Mode.c **** 		} break;
1971:../DGC_A230_Functions/DGC_A230_Normal_Mode.c **** 
1972:../DGC_A230_Functions/DGC_A230_Normal_Mode.c **** 		case MACHINE_STATE_NORMAL_CLOSING:
1973:../DGC_A230_Functions/DGC_A230_Normal_Mode.c **** 		{
1974:../DGC_A230_Functions/DGC_A230_Normal_Mode.c **** 			// Do Nothing
1975:../DGC_A230_Functions/DGC_A230_Normal_Mode.c **** 		} break;
1976:../DGC_A230_Functions/DGC_A230_Normal_Mode.c **** 
1977:../DGC_A230_Functions/DGC_A230_Normal_Mode.c **** 		case MACHINE_STATE_PARTIAL_OPENING:
1978:../DGC_A230_Functions/DGC_A230_Normal_Mode.c **** 		{
1979:../DGC_A230_Functions/DGC_A230_Normal_Mode.c **** 			M1_Timestamp = UNDEFINE_TIMESTAMP;
1980:../DGC_A230_Functions/DGC_A230_Normal_Mode.c **** 			Motor1_Disable();
1981:../DGC_A230_Functions/DGC_A230_Normal_Mode.c **** 			Leaf_No1_State = GATE_STATE_PARTIAL;
1982:../DGC_A230_Functions/DGC_A230_Normal_Mode.c **** 
1983:../DGC_A230_Functions/DGC_A230_Normal_Mode.c **** 			if (CFG_parameter.Limit_Switch_Enable_Braking == 0x01)
1984:../DGC_A230_Functions/DGC_A230_Normal_Mode.c **** 			{
1985:../DGC_A230_Functions/DGC_A230_Normal_Mode.c **** 				__Do_Brake_Motor_Type_1(OPEN_MOVING_DIRECTION);
1986:../DGC_A230_Functions/DGC_A230_Normal_Mode.c **** 			}
1987:../DGC_A230_Functions/DGC_A230_Normal_Mode.c **** 		} break;
1988:../DGC_A230_Functions/DGC_A230_Normal_Mode.c **** 
1989:../DGC_A230_Functions/DGC_A230_Normal_Mode.c **** 		case MACHINE_STATE_PARTIAL_CLOSING:
1990:../DGC_A230_Functions/DGC_A230_Normal_Mode.c **** 		{
1991:../DGC_A230_Functions/DGC_A230_Normal_Mode.c **** 			// Do Nothing
1992:../DGC_A230_Functions/DGC_A230_Normal_Mode.c **** 		} break;
1993:../DGC_A230_Functions/DGC_A230_Normal_Mode.c **** 		default: break;
 6312                             		.loc 1 1993 0
 6313 002c EC A2 00 00             		br	!!.L444
 6314                             	.L447:
1958:../DGC_A230_Functions/DGC_A230_Normal_Mode.c **** 	switch (Machine_State)
 6315                             		.loc 1 1958 0
 6316 0030 AD F0                   		movw	ax, r8
 6317 0032 44 03 00                		cmpw	ax, #3
 6318 0035 61 F8                   		 sknz
 6319 0037 EC 73 00 00             		 br	!!.L449
 6320 003b AD F0                   		movw	ax, r8
 6321 003d 44 04 00                		cmpw	ax, #4
 6322 0040 61 F8                   		 sknz
 6323 0042 EC A1 00 00             		 br	!!.L455
 6324                             		.loc 1 1993 0
 6325 0046 EC A2 00 00             		br	!!.L444
 6326                             	.L448:
 6327                             	.LBB185:
1962:../DGC_A230_Functions/DGC_A230_Normal_Mode.c **** 			Motor1_Disable();
 6328                             		.loc 1 1962 0
 6329 004a F5 00 00                		clrb	!_M1_Timestamp
1963:../DGC_A230_Functions/DGC_A230_Normal_Mode.c **** 			Leaf_No1_State = GATE_STATE_OPENED;
 6330                             		.loc 1 1963 0
 6331 004d FC 00 00 00             		call	!!%code(_Motor1_Disable)
1964:../DGC_A230_Functions/DGC_A230_Normal_Mode.c **** 
 6332                             		.loc 1 1964 0
 6333 0051 51 03                   		mov	a, #3
 6334 0053 9F 00 00                		mov	!_Leaf_No1_State, a
1966:../DGC_A230_Functions/DGC_A230_Normal_Mode.c **** 			{
 6335                             		.loc 1 1966 0
 6336 0056 8F 00 00                		mov	a, !_CFG_parameter+87
 6337 0059 9D F0                   		mov	r8, a
 6338 005b 4A F0 01                		cmp	r8, #1
 6339 005e 61 E8                   		 skz
 6340 0060 EC 6F 00 00             		 br	!!.L451
 6341                             	.LBB186:
1968:../DGC_A230_Functions/DGC_A230_Normal_Mode.c **** 			}
 6342                             		.loc 1 1968 0
 6343 0064 F6                      		clrw	ax
 6344 0065 B8 00                   		movw	[sp], ax
 6345 0067 FC 00 00 00             		call	!!%code(___Do_Brake_Motor_Type_1)
 6346                             	.LBE186:
 6347                             	.LBE185:
1970:../DGC_A230_Functions/DGC_A230_Normal_Mode.c **** 
 6348                             		.loc 1 1970 0
 6349 006b EC A2 00 00             		br	!!.L444
 6350                             	.L451:
 6351 006f EC A2 00 00             		br	!!.L444
 6352                             	.L449:
 6353                             	.LBB187:
1979:../DGC_A230_Functions/DGC_A230_Normal_Mode.c **** 			Motor1_Disable();
 6354                             		.loc 1 1979 0
 6355 0073 F5 00 00                		clrb	!_M1_Timestamp
1980:../DGC_A230_Functions/DGC_A230_Normal_Mode.c **** 			Leaf_No1_State = GATE_STATE_PARTIAL;
 6356                             		.loc 1 1980 0
 6357 0076 FC 00 00 00             		call	!!%code(_Motor1_Disable)
1981:../DGC_A230_Functions/DGC_A230_Normal_Mode.c **** 
 6358                             		.loc 1 1981 0
 6359 007a 51 05                   		mov	a, #5
 6360 007c 9F 00 00                		mov	!_Leaf_No1_State, a
1983:../DGC_A230_Functions/DGC_A230_Normal_Mode.c **** 			{
 6361                             		.loc 1 1983 0
 6362 007f 8F 00 00                		mov	a, !_CFG_parameter+87
 6363 0082 9D F0                   		mov	r8, a
 6364 0084 4A F0 01                		cmp	r8, #1
 6365 0087 61 E8                   		 skz
 6366 0089 EC 98 00 00             		 br	!!.L453
 6367                             	.LBB188:
1985:../DGC_A230_Functions/DGC_A230_Normal_Mode.c **** 			}
 6368                             		.loc 1 1985 0
 6369 008d F6                      		clrw	ax
 6370 008e B8 00                   		movw	[sp], ax
 6371 0090 FC 00 00 00             		call	!!%code(___Do_Brake_Motor_Type_1)
 6372                             	.LBE188:
 6373                             	.LBE187:
1987:../DGC_A230_Functions/DGC_A230_Normal_Mode.c **** 
 6374                             		.loc 1 1987 0
 6375 0094 EC A2 00 00             		br	!!.L444
 6376                             	.L453:
 6377 0098 EC A2 00 00             		br	!!.L444
 6378                             	.L454:
1975:../DGC_A230_Functions/DGC_A230_Normal_Mode.c **** 
 6379                             		.loc 1 1975 0
 6380 009c 00                      		nop
 6381 009d EC A2 00 00             		br	!!.L444
 6382                             	.L455:
1992:../DGC_A230_Functions/DGC_A230_Normal_Mode.c **** 		default: break;
 6383                             		.loc 1 1992 0
 6384 00a1 00                      		nop
 6385                             	.L444:
1994:../DGC_A230_Functions/DGC_A230_Normal_Mode.c **** 	}
1995:../DGC_A230_Functions/DGC_A230_Normal_Mode.c **** }
 6386                             		.loc 1 1995 0
 6387 00a2 10 02                   		addw	sp, #2
 6388 00a4 D7                      		ret
 6389                             	.LFE21:
 6391                             		.section	.text.Open_Limit_Switch_No2_Process,"ax",@progbits
 6392                             		.global	_Open_Limit_Switch_No2_Process
 6394                             	_Open_Limit_Switch_No2_Process:
 6395                             	.LFB22:
1996:../DGC_A230_Functions/DGC_A230_Normal_Mode.c **** 
1997:../DGC_A230_Functions/DGC_A230_Normal_Mode.c **** void Open_Limit_Switch_No2_Process (void)
1998:../DGC_A230_Functions/DGC_A230_Normal_Mode.c **** {
 6396                             		.loc 1 1998 0
 6397                             		; start of function
 6398                             		; outgoing: 2 bytes
 6399                             		; uses ES register
 6400 0000 20 02                   		subw	sp, #2
 6401                             	.LCFI18:
1999:../DGC_A230_Functions/DGC_A230_Normal_Mode.c **** 	switch (Machine_State)
 6402                             		.loc 1 1999 0
 6403 0002 8F 00 00                		mov	a, !_Machine_State
 6404 0005 9D F0                   		mov	r8, a
 6405 0007 F4 F1                   		clrb	r9
 6406 0009 AD F0                   		movw	ax, r8
 6407 000b 44 01 00                		cmpw	ax, #1
 6408 000e 61 F8                   		 sknz
 6409 0010 EC 18 00 00             		 br	!!.L458
2000:../DGC_A230_Functions/DGC_A230_Normal_Mode.c **** 	{
2001:../DGC_A230_Functions/DGC_A230_Normal_Mode.c **** 		case MACHINE_STATE_NORMAL_OPENING:
2002:../DGC_A230_Functions/DGC_A230_Normal_Mode.c **** 		{
2003:../DGC_A230_Functions/DGC_A230_Normal_Mode.c **** 			M2_Timestamp = UNDEFINE_TIMESTAMP;
2004:../DGC_A230_Functions/DGC_A230_Normal_Mode.c **** 			Motor2_Disable();
2005:../DGC_A230_Functions/DGC_A230_Normal_Mode.c **** 			Leaf_No2_State = GATE_STATE_OPENED;
2006:../DGC_A230_Functions/DGC_A230_Normal_Mode.c **** 
2007:../DGC_A230_Functions/DGC_A230_Normal_Mode.c **** 			if (CFG_parameter.Limit_Switch_Enable_Braking == 0x01)
2008:../DGC_A230_Functions/DGC_A230_Normal_Mode.c **** 			{
2009:../DGC_A230_Functions/DGC_A230_Normal_Mode.c **** 				__Do_Brake_Motor_Type_3(OPEN_MOVING_DIRECTION);
2010:../DGC_A230_Functions/DGC_A230_Normal_Mode.c **** 			}
2011:../DGC_A230_Functions/DGC_A230_Normal_Mode.c **** 		} break;
2012:../DGC_A230_Functions/DGC_A230_Normal_Mode.c **** 
2013:../DGC_A230_Functions/DGC_A230_Normal_Mode.c **** 		case MACHINE_STATE_NORMAL_CLOSING:
2014:../DGC_A230_Functions/DGC_A230_Normal_Mode.c **** 		case MACHINE_STATE_PARTIAL_OPENING:
2015:../DGC_A230_Functions/DGC_A230_Normal_Mode.c **** 		case MACHINE_STATE_PARTIAL_CLOSING:
2016:../DGC_A230_Functions/DGC_A230_Normal_Mode.c **** 		default: break;
 6410                             		.loc 1 2016 0
 6411 0014 EC 3E 00 00             		br	!!.L456
 6412                             	.L458:
 6413                             	.LBB189:
2003:../DGC_A230_Functions/DGC_A230_Normal_Mode.c **** 			Motor2_Disable();
 6414                             		.loc 1 2003 0
 6415 0018 F5 00 00                		clrb	!_M2_Timestamp
2004:../DGC_A230_Functions/DGC_A230_Normal_Mode.c **** 			Leaf_No2_State = GATE_STATE_OPENED;
 6416                             		.loc 1 2004 0
 6417 001b FC 00 00 00             		call	!!%code(_Motor2_Disable)
2005:../DGC_A230_Functions/DGC_A230_Normal_Mode.c **** 
 6418                             		.loc 1 2005 0
 6419 001f 51 03                   		mov	a, #3
 6420 0021 9F 00 00                		mov	!_Leaf_No2_State, a
2007:../DGC_A230_Functions/DGC_A230_Normal_Mode.c **** 			{
 6421                             		.loc 1 2007 0
 6422 0024 8F 00 00                		mov	a, !_CFG_parameter+87
 6423 0027 9D F0                   		mov	r8, a
 6424 0029 4A F0 01                		cmp	r8, #1
 6425 002c 61 E8                   		 skz
 6426 002e EC 3D 00 00             		 br	!!.L459
 6427                             	.LBB190:
2009:../DGC_A230_Functions/DGC_A230_Normal_Mode.c **** 			}
 6428                             		.loc 1 2009 0
 6429 0032 F6                      		clrw	ax
 6430 0033 B8 00                   		movw	[sp], ax
 6431 0035 FC 00 00 00             		call	!!%code(___Do_Brake_Motor_Type_3)
 6432                             	.LBE190:
 6433                             	.LBE189:
2011:../DGC_A230_Functions/DGC_A230_Normal_Mode.c **** 
 6434                             		.loc 1 2011 0
 6435 0039 EC 3D 00 00             		br	!!.L461
 6436                             	.L459:
 6437                             	.L461:
 6438 003d 00                      		nop
 6439                             	.L456:
2017:../DGC_A230_Functions/DGC_A230_Normal_Mode.c **** 	}
2018:../DGC_A230_Functions/DGC_A230_Normal_Mode.c **** 
2019:../DGC_A230_Functions/DGC_A230_Normal_Mode.c **** }
 6440                             		.loc 1 2019 0
 6441 003e 10 02                   		addw	sp, #2
 6442 0040 D7                      		ret
 6443                             	.LFE22:
 6445                             		.section	.text.Close_Limit_Switch_No1_Process,"ax",@progbits
 6446                             		.global	_Close_Limit_Switch_No1_Process
 6448                             	_Close_Limit_Switch_No1_Process:
 6449                             	.LFB23:
2020:../DGC_A230_Functions/DGC_A230_Normal_Mode.c **** 
2021:../DGC_A230_Functions/DGC_A230_Normal_Mode.c **** void Close_Limit_Switch_No1_Process (void)
2022:../DGC_A230_Functions/DGC_A230_Normal_Mode.c **** {
 6450                             		.loc 1 2022 0
 6451                             		; start of function
 6452                             		; outgoing: 2 bytes
 6453                             		; uses ES register
 6454 0000 20 02                   		subw	sp, #2
 6455                             	.LCFI19:
2023:../DGC_A230_Functions/DGC_A230_Normal_Mode.c **** 	switch (Machine_State)
 6456                             		.loc 1 2023 0
 6457 0002 8F 00 00                		mov	a, !_Machine_State
 6458 0005 9D F0                   		mov	r8, a
 6459 0007 F4 F1                   		clrb	r9
 6460 0009 AD F0                   		movw	ax, r8
 6461 000b 44 02 00                		cmpw	ax, #2
 6462 000e 61 F8                   		 sknz
 6463 0010 EC 41 00 00             		 br	!!.L464
 6464 0014 AD F0                   		movw	ax, r8
 6465 0016 44 02 00                		cmpw	ax, #2
 6466 0019 71 FF                   		 xor1	CY, a.7
 6467 001b 61 F3                   		 sknh
 6468 001d EC 30 00 00             		 br	!!.L465
 6469 0021 AD F0                   		movw	ax, r8
 6470 0023 44 01 00                		cmpw	ax, #1
 6471 0026 61 F8                   		 sknz
 6472 0028 EC 8F 00 00             		 br	!!.L472
2024:../DGC_A230_Functions/DGC_A230_Normal_Mode.c **** 	{
2025:../DGC_A230_Functions/DGC_A230_Normal_Mode.c **** 		case MACHINE_STATE_NORMAL_OPENING:
2026:../DGC_A230_Functions/DGC_A230_Normal_Mode.c **** 		{
2027:../DGC_A230_Functions/DGC_A230_Normal_Mode.c **** 		} break;
2028:../DGC_A230_Functions/DGC_A230_Normal_Mode.c **** 
2029:../DGC_A230_Functions/DGC_A230_Normal_Mode.c **** 		case MACHINE_STATE_NORMAL_CLOSING:
2030:../DGC_A230_Functions/DGC_A230_Normal_Mode.c **** 		{
2031:../DGC_A230_Functions/DGC_A230_Normal_Mode.c **** 			M1_Timestamp = UNDEFINE_TIMESTAMP;
2032:../DGC_A230_Functions/DGC_A230_Normal_Mode.c **** 			Motor1_Disable();
2033:../DGC_A230_Functions/DGC_A230_Normal_Mode.c **** 			Leaf_No1_State = GATE_STATE_CLOSED;
2034:../DGC_A230_Functions/DGC_A230_Normal_Mode.c **** 
2035:../DGC_A230_Functions/DGC_A230_Normal_Mode.c **** 			if (CFG_parameter.Limit_Switch_Enable_Braking == 0x01)
2036:../DGC_A230_Functions/DGC_A230_Normal_Mode.c **** 			{
2037:../DGC_A230_Functions/DGC_A230_Normal_Mode.c **** 				__Do_Brake_Motor_Type_1(CLOSE_MOVING_DIRECTION);
2038:../DGC_A230_Functions/DGC_A230_Normal_Mode.c **** 			}
2039:../DGC_A230_Functions/DGC_A230_Normal_Mode.c **** 		} break;
2040:../DGC_A230_Functions/DGC_A230_Normal_Mode.c **** 
2041:../DGC_A230_Functions/DGC_A230_Normal_Mode.c **** 		case MACHINE_STATE_PARTIAL_OPENING:
2042:../DGC_A230_Functions/DGC_A230_Normal_Mode.c **** 
2043:../DGC_A230_Functions/DGC_A230_Normal_Mode.c **** 		case MACHINE_STATE_PARTIAL_CLOSING:
2044:../DGC_A230_Functions/DGC_A230_Normal_Mode.c **** 		{
2045:../DGC_A230_Functions/DGC_A230_Normal_Mode.c **** 			M1_Timestamp = UNDEFINE_TIMESTAMP;
2046:../DGC_A230_Functions/DGC_A230_Normal_Mode.c **** 			Motor1_Disable();
2047:../DGC_A230_Functions/DGC_A230_Normal_Mode.c **** 			Leaf_No1_State = GATE_STATE_CLOSED;
2048:../DGC_A230_Functions/DGC_A230_Normal_Mode.c **** 
2049:../DGC_A230_Functions/DGC_A230_Normal_Mode.c **** 			if (CFG_parameter.Limit_Switch_Enable_Braking == 0x01)
2050:../DGC_A230_Functions/DGC_A230_Normal_Mode.c **** 			{
2051:../DGC_A230_Functions/DGC_A230_Normal_Mode.c **** 				__Do_Brake_Motor_Type_1(CLOSE_MOVING_DIRECTION);
2052:../DGC_A230_Functions/DGC_A230_Normal_Mode.c **** 			}
2053:../DGC_A230_Functions/DGC_A230_Normal_Mode.c **** 		} break;
2054:../DGC_A230_Functions/DGC_A230_Normal_Mode.c **** 
2055:../DGC_A230_Functions/DGC_A230_Normal_Mode.c **** 		default: break;
 6473                             		.loc 1 2055 0
 6474 002c EC 94 00 00             		br	!!.L473
 6475                             	.L465:
2023:../DGC_A230_Functions/DGC_A230_Normal_Mode.c **** 	switch (Machine_State)
 6476                             		.loc 1 2023 0
 6477 0030 AD F0                   		movw	ax, r8
 6478 0032 44 04 00                		cmpw	ax, #4
 6479 0035 71 FF                   		 xor1	CY, a.7
 6480 0037 61 F3                   		 sknh
 6481 0039 EC 94 00 00             		 br	!!.L473
 6482 003d EC 68 00 00             		br	!!.L471
 6483                             	.L464:
 6484                             	.LBB191:
2031:../DGC_A230_Functions/DGC_A230_Normal_Mode.c **** 			Motor1_Disable();
 6485                             		.loc 1 2031 0
 6486 0041 F5 00 00                		clrb	!_M1_Timestamp
2032:../DGC_A230_Functions/DGC_A230_Normal_Mode.c **** 			Leaf_No1_State = GATE_STATE_CLOSED;
 6487                             		.loc 1 2032 0
 6488 0044 FC 00 00 00             		call	!!%code(_Motor1_Disable)
2033:../DGC_A230_Functions/DGC_A230_Normal_Mode.c **** 
 6489                             		.loc 1 2033 0
 6490 0048 E5 00 00                		oneb	!_Leaf_No1_State
2035:../DGC_A230_Functions/DGC_A230_Normal_Mode.c **** 			{
 6491                             		.loc 1 2035 0
 6492 004b 8F 00 00                		mov	a, !_CFG_parameter+87
 6493 004e 9D F0                   		mov	r8, a
 6494 0050 4A F0 01                		cmp	r8, #1
 6495 0053 61 E8                   		 skz
 6496 0055 EC 64 00 00             		 br	!!.L469
 6497                             	.LBB192:
2037:../DGC_A230_Functions/DGC_A230_Normal_Mode.c **** 			}
 6498                             		.loc 1 2037 0
 6499 0059 E6                      		onew	ax
 6500 005a B8 00                   		movw	[sp], ax
 6501 005c FC 00 00 00             		call	!!%code(___Do_Brake_Motor_Type_1)
 6502                             	.LBE192:
 6503                             	.LBE191:
2039:../DGC_A230_Functions/DGC_A230_Normal_Mode.c **** 
 6504                             		.loc 1 2039 0
 6505 0060 EC 95 00 00             		br	!!.L462
 6506                             	.L469:
 6507 0064 EC 95 00 00             		br	!!.L462
 6508                             	.L471:
 6509                             	.LBB193:
2045:../DGC_A230_Functions/DGC_A230_Normal_Mode.c **** 			Motor1_Disable();
 6510                             		.loc 1 2045 0
 6511 0068 F5 00 00                		clrb	!_M1_Timestamp
2046:../DGC_A230_Functions/DGC_A230_Normal_Mode.c **** 			Leaf_No1_State = GATE_STATE_CLOSED;
 6512                             		.loc 1 2046 0
 6513 006b FC 00 00 00             		call	!!%code(_Motor1_Disable)
2047:../DGC_A230_Functions/DGC_A230_Normal_Mode.c **** 
 6514                             		.loc 1 2047 0
 6515 006f E5 00 00                		oneb	!_Leaf_No1_State
2049:../DGC_A230_Functions/DGC_A230_Normal_Mode.c **** 			{
 6516                             		.loc 1 2049 0
 6517 0072 8F 00 00                		mov	a, !_CFG_parameter+87
 6518 0075 9D F0                   		mov	r8, a
 6519 0077 4A F0 01                		cmp	r8, #1
 6520 007a 61 E8                   		 skz
 6521 007c EC 8B 00 00             		 br	!!.L470
 6522                             	.LBB194:
2051:../DGC_A230_Functions/DGC_A230_Normal_Mode.c **** 			}
 6523                             		.loc 1 2051 0
 6524 0080 E6                      		onew	ax
 6525 0081 B8 00                   		movw	[sp], ax
 6526 0083 FC 00 00 00             		call	!!%code(___Do_Brake_Motor_Type_1)
 6527                             	.LBE194:
 6528                             	.LBE193:
2053:../DGC_A230_Functions/DGC_A230_Normal_Mode.c **** 
 6529                             		.loc 1 2053 0
 6530 0087 EC 95 00 00             		br	!!.L462
 6531                             	.L470:
 6532 008b EC 95 00 00             		br	!!.L462
 6533                             	.L472:
2027:../DGC_A230_Functions/DGC_A230_Normal_Mode.c **** 
 6534                             		.loc 1 2027 0
 6535 008f 00                      		nop
 6536 0090 EC 95 00 00             		br	!!.L462
 6537                             	.L473:
 6538                             		.loc 1 2055 0
 6539 0094 00                      		nop
 6540                             	.L462:
2056:../DGC_A230_Functions/DGC_A230_Normal_Mode.c **** 	}
2057:../DGC_A230_Functions/DGC_A230_Normal_Mode.c **** }
 6541                             		.loc 1 2057 0
 6542 0095 10 02                   		addw	sp, #2
 6543 0097 D7                      		ret
 6544                             	.LFE23:
 6546                             		.section	.text.Close_Limit_Switch_No2_Process,"ax",@progbits
 6547                             		.global	_Close_Limit_Switch_No2_Process
 6549                             	_Close_Limit_Switch_No2_Process:
 6550                             	.LFB24:
2058:../DGC_A230_Functions/DGC_A230_Normal_Mode.c **** 
2059:../DGC_A230_Functions/DGC_A230_Normal_Mode.c **** void Close_Limit_Switch_No2_Process (void)
2060:../DGC_A230_Functions/DGC_A230_Normal_Mode.c **** {
 6551                             		.loc 1 2060 0
 6552                             		; start of function
 6553                             		; outgoing: 2 bytes
 6554                             		; uses ES register
 6555 0000 20 02                   		subw	sp, #2
 6556                             	.LCFI20:
2061:../DGC_A230_Functions/DGC_A230_Normal_Mode.c **** 	switch (Machine_State)
 6557                             		.loc 1 2061 0
 6558 0002 8F 00 00                		mov	a, !_Machine_State
 6559 0005 9D F0                   		mov	r8, a
 6560 0007 F4 F1                   		clrb	r9
 6561 0009 AD F0                   		movw	ax, r8
 6562 000b 44 01 00                		cmpw	ax, #1
 6563 000e 61 F8                   		 sknz
 6564 0010 EC 4A 00 00             		 br	!!.L480
 6565 0014 AD F0                   		movw	ax, r8
 6566 0016 44 02 00                		cmpw	ax, #2
 6567 0019 61 F8                   		 sknz
 6568 001b EC 23 00 00             		 br	!!.L477
2062:../DGC_A230_Functions/DGC_A230_Normal_Mode.c **** 	{
2063:../DGC_A230_Functions/DGC_A230_Normal_Mode.c **** 		case MACHINE_STATE_NORMAL_OPENING:
2064:../DGC_A230_Functions/DGC_A230_Normal_Mode.c **** 		{
2065:../DGC_A230_Functions/DGC_A230_Normal_Mode.c **** 
2066:../DGC_A230_Functions/DGC_A230_Normal_Mode.c **** 		} break;
2067:../DGC_A230_Functions/DGC_A230_Normal_Mode.c **** 
2068:../DGC_A230_Functions/DGC_A230_Normal_Mode.c **** 		case MACHINE_STATE_NORMAL_CLOSING:
2069:../DGC_A230_Functions/DGC_A230_Normal_Mode.c **** 		{
2070:../DGC_A230_Functions/DGC_A230_Normal_Mode.c **** 			M2_Timestamp = UNDEFINE_TIMESTAMP;
2071:../DGC_A230_Functions/DGC_A230_Normal_Mode.c **** 			Motor2_Disable();
2072:../DGC_A230_Functions/DGC_A230_Normal_Mode.c **** 			Leaf_No2_State = GATE_STATE_CLOSED;
2073:../DGC_A230_Functions/DGC_A230_Normal_Mode.c **** 
2074:../DGC_A230_Functions/DGC_A230_Normal_Mode.c **** 			if (CFG_parameter.Limit_Switch_Enable_Braking == 0x01)
2075:../DGC_A230_Functions/DGC_A230_Normal_Mode.c **** 			{
2076:../DGC_A230_Functions/DGC_A230_Normal_Mode.c **** 				__Do_Brake_Motor_Type_3(CLOSE_MOVING_DIRECTION);
2077:../DGC_A230_Functions/DGC_A230_Normal_Mode.c **** 			}
2078:../DGC_A230_Functions/DGC_A230_Normal_Mode.c **** 		} break;
2079:../DGC_A230_Functions/DGC_A230_Normal_Mode.c **** 
2080:../DGC_A230_Functions/DGC_A230_Normal_Mode.c **** 		case MACHINE_STATE_PARTIAL_OPENING:
2081:../DGC_A230_Functions/DGC_A230_Normal_Mode.c **** 		case MACHINE_STATE_PARTIAL_CLOSING:
2082:../DGC_A230_Functions/DGC_A230_Normal_Mode.c **** 		default: break;
 6569                             		.loc 1 2082 0
 6570 001f EC 4B 00 00             		br	!!.L474
 6571                             	.L477:
 6572                             	.LBB195:
2070:../DGC_A230_Functions/DGC_A230_Normal_Mode.c **** 			Motor2_Disable();
 6573                             		.loc 1 2070 0
 6574 0023 F5 00 00                		clrb	!_M2_Timestamp
2071:../DGC_A230_Functions/DGC_A230_Normal_Mode.c **** 			Leaf_No2_State = GATE_STATE_CLOSED;
 6575                             		.loc 1 2071 0
 6576 0026 FC 00 00 00             		call	!!%code(_Motor2_Disable)
2072:../DGC_A230_Functions/DGC_A230_Normal_Mode.c **** 
 6577                             		.loc 1 2072 0
 6578 002a E5 00 00                		oneb	!_Leaf_No2_State
2074:../DGC_A230_Functions/DGC_A230_Normal_Mode.c **** 			{
 6579                             		.loc 1 2074 0
 6580 002d 8F 00 00                		mov	a, !_CFG_parameter+87
 6581 0030 9D F0                   		mov	r8, a
 6582 0032 4A F0 01                		cmp	r8, #1
 6583 0035 61 E8                   		 skz
 6584 0037 EC 46 00 00             		 br	!!.L479
 6585                             	.LBB196:
2076:../DGC_A230_Functions/DGC_A230_Normal_Mode.c **** 			}
 6586                             		.loc 1 2076 0
 6587 003b E6                      		onew	ax
 6588 003c B8 00                   		movw	[sp], ax
 6589 003e FC 00 00 00             		call	!!%code(___Do_Brake_Motor_Type_3)
 6590                             	.LBE196:
 6591                             	.LBE195:
2078:../DGC_A230_Functions/DGC_A230_Normal_Mode.c **** 
 6592                             		.loc 1 2078 0
 6593 0042 EC 4B 00 00             		br	!!.L474
 6594                             	.L479:
 6595 0046 EC 4B 00 00             		br	!!.L474
 6596                             	.L480:
2066:../DGC_A230_Functions/DGC_A230_Normal_Mode.c **** 
 6597                             		.loc 1 2066 0
 6598 004a 00                      		nop
 6599                             	.L474:
2083:../DGC_A230_Functions/DGC_A230_Normal_Mode.c **** 	}
2084:../DGC_A230_Functions/DGC_A230_Normal_Mode.c **** }
 6600                             		.loc 1 2084 0
 6601 004b 10 02                   		addw	sp, #2
 6602 004d D7                      		ret
 6603                             	.LFE24:
 6605                             		.section	.text.Gate_Open_Indicator_Process,"ax",@progbits
 6606                             		.global	_Gate_Open_Indicator_Process
 6608                             	_Gate_Open_Indicator_Process:
 6609                             	.LFB25:
2085:../DGC_A230_Functions/DGC_A230_Normal_Mode.c **** 
2086:../DGC_A230_Functions/DGC_A230_Normal_Mode.c **** void Gate_Open_Indicator_Process(void)
2087:../DGC_A230_Functions/DGC_A230_Normal_Mode.c **** {
 6610                             		.loc 1 2087 0
2088:../DGC_A230_Functions/DGC_A230_Normal_Mode.c **** 	switch(CFG_parameter.Gate_Open_Indicator)
 6611                             		.loc 1 2088 0
 6612 0000 8F 00 00                		mov	a, !_CFG_parameter+55
 6613 0003 9D F0                   		mov	r8, a
 6614 0005 F4 F1                   		clrb	r9
 6615 0007 AD F0                   		movw	ax, r8
 6616 0009 44 01 00                		cmpw	ax, #1
 6617 000c 61 F8                   		 sknz
 6618 000e EC 21 00 00             		 br	!!.L483
 6619 0012 AD F0                   		movw	ax, r8
 6620 0014 44 02 00                		cmpw	ax, #2
 6621 0017 61 F8                   		 sknz
 6622 0019 EC 94 01 00             		 br	!!.L484
 6623 001d EC B2 01 00             		br	!!.L500
 6624                             	.L483:
2089:../DGC_A230_Functions/DGC_A230_Normal_Mode.c **** 	{
2090:../DGC_A230_Functions/DGC_A230_Normal_Mode.c **** 		case 0x01:
2091:../DGC_A230_Functions/DGC_A230_Normal_Mode.c **** 		{
2092:../DGC_A230_Functions/DGC_A230_Normal_Mode.c **** 			switch(Machine_State)
 6625                             		.loc 1 2092 0
 6626 0021 8F 00 00                		mov	a, !_Machine_State
 6627 0024 9D F0                   		mov	r8, a
 6628 0026 F4 F1                   		clrb	r9
 6629 0028 AD F0                   		movw	ax, r8
 6630 002a 44 02 00                		cmpw	ax, #2
 6631 002d 61 F8                   		 sknz
 6632 002f EC 5E 01 00             		 br	!!.L486
 6633 0033 AD F0                   		movw	ax, r8
 6634 0035 44 02 00                		cmpw	ax, #2
 6635 0038 71 FF                   		 xor1	CY, a.7
 6636 003a 61 F3                   		 sknh
 6637 003c EC 5A 00 00             		 br	!!.L487
 6638 0040 AD F0                   		movw	ax, r8
 6639 0042 44 00 00                		cmpw	ax, #0
 6640 0045 61 F8                   		 sknz
 6641 0047 EC 74 00 00             		 br	!!.L488
 6642 004b AD F0                   		movw	ax, r8
 6643 004d 44 01 00                		cmpw	ax, #1
 6644 0050 61 F8                   		 sknz
 6645 0052 EC 2B 01 00             		 br	!!.L489
2093:../DGC_A230_Functions/DGC_A230_Normal_Mode.c **** 			{
2094:../DGC_A230_Functions/DGC_A230_Normal_Mode.c **** 				case MACHINE_STATE_STOP:
2095:../DGC_A230_Functions/DGC_A230_Normal_Mode.c **** 				{
2096:../DGC_A230_Functions/DGC_A230_Normal_Mode.c **** 					if (Leaf_No1_State == GATE_STATE_CLOSED)			// Gate completely Closed
2097:../DGC_A230_Functions/DGC_A230_Normal_Mode.c **** 					{
2098:../DGC_A230_Functions/DGC_A230_Normal_Mode.c **** 						SC_EN = 0;
2099:../DGC_A230_Functions/DGC_A230_Normal_Mode.c **** 						Gate_Open_Indicator_Mode = GATE_OPEN_INDICATOR_MODE_0;
2100:../DGC_A230_Functions/DGC_A230_Normal_Mode.c **** 					}
2101:../DGC_A230_Functions/DGC_A230_Normal_Mode.c **** 					else if (
2102:../DGC_A230_Functions/DGC_A230_Normal_Mode.c **** 							(Leaf_No2_State == GATE_STATE_OPENED)		// Gate completely opened
2103:../DGC_A230_Functions/DGC_A230_Normal_Mode.c **** 						    || (Leaf_No1_State == GATE_STATE_PARTIAL)
2104:../DGC_A230_Functions/DGC_A230_Normal_Mode.c **** 							|| ((Leaf_No1_State == GATE_STATE_OPENED) && (CFG_parameter.Number_Of_Motors == 0x01))
2105:../DGC_A230_Functions/DGC_A230_Normal_Mode.c **** 							)
2106:../DGC_A230_Functions/DGC_A230_Normal_Mode.c **** 					{
2107:../DGC_A230_Functions/DGC_A230_Normal_Mode.c **** 						SC_EN = 1;
2108:../DGC_A230_Functions/DGC_A230_Normal_Mode.c **** 						Gate_Open_Indicator_Mode = GATE_OPEN_INDICATOR_MODE_0;
2109:../DGC_A230_Functions/DGC_A230_Normal_Mode.c **** 					}
2110:../DGC_A230_Functions/DGC_A230_Normal_Mode.c **** 					else												// the gate is stopped in an intermediate position
2111:../DGC_A230_Functions/DGC_A230_Normal_Mode.c **** 					{
2112:../DGC_A230_Functions/DGC_A230_Normal_Mode.c **** 						if (Gate_Open_Indicator_Mode != GATE_OPEN_INDICATOR_MODE_3)
2113:../DGC_A230_Functions/DGC_A230_Normal_Mode.c **** 						{
2114:../DGC_A230_Functions/DGC_A230_Normal_Mode.c **** 							Gate_Open_Indicator_Mode = GATE_OPEN_INDICATOR_MODE_3;
2115:../DGC_A230_Functions/DGC_A230_Normal_Mode.c **** 							Gate_Open_Indicator_Flash_Count = 0;
2116:../DGC_A230_Functions/DGC_A230_Normal_Mode.c **** 							SC_EN = 1;
2117:../DGC_A230_Functions/DGC_A230_Normal_Mode.c **** 						}
2118:../DGC_A230_Functions/DGC_A230_Normal_Mode.c **** 					}
2119:../DGC_A230_Functions/DGC_A230_Normal_Mode.c **** 				} break;
2120:../DGC_A230_Functions/DGC_A230_Normal_Mode.c **** 
2121:../DGC_A230_Functions/DGC_A230_Normal_Mode.c **** 				case MACHINE_STATE_NORMAL_OPENING:
2122:../DGC_A230_Functions/DGC_A230_Normal_Mode.c **** 				case MACHINE_STATE_PARTIAL_OPENING:						// the gate during opening maneuver
2123:../DGC_A230_Functions/DGC_A230_Normal_Mode.c **** 				{
2124:../DGC_A230_Functions/DGC_A230_Normal_Mode.c **** 					if (Gate_Open_Indicator_Mode != GATE_OPEN_INDICATOR_MODE_1)
2125:../DGC_A230_Functions/DGC_A230_Normal_Mode.c **** 					{
2126:../DGC_A230_Functions/DGC_A230_Normal_Mode.c **** 						Gate_Open_Indicator_Mode = GATE_OPEN_INDICATOR_MODE_1;
2127:../DGC_A230_Functions/DGC_A230_Normal_Mode.c **** 						Gate_Open_Indicator_Flash_Count = 0;
2128:../DGC_A230_Functions/DGC_A230_Normal_Mode.c **** 						SC_EN = 1;
2129:../DGC_A230_Functions/DGC_A230_Normal_Mode.c **** 					}
2130:../DGC_A230_Functions/DGC_A230_Normal_Mode.c **** 				} break;
2131:../DGC_A230_Functions/DGC_A230_Normal_Mode.c **** 
2132:../DGC_A230_Functions/DGC_A230_Normal_Mode.c **** 				case MACHINE_STATE_NORMAL_CLOSING:
2133:../DGC_A230_Functions/DGC_A230_Normal_Mode.c **** 				case MACHINE_STATE_PARTIAL_CLOSING:						// the gate during closing maneuver
2134:../DGC_A230_Functions/DGC_A230_Normal_Mode.c **** 				{
2135:../DGC_A230_Functions/DGC_A230_Normal_Mode.c **** 					if (Gate_Open_Indicator_Mode != GATE_OPEN_INDICATOR_MODE_2)
2136:../DGC_A230_Functions/DGC_A230_Normal_Mode.c **** 					{
2137:../DGC_A230_Functions/DGC_A230_Normal_Mode.c **** 						Gate_Open_Indicator_Mode = GATE_OPEN_INDICATOR_MODE_2;
2138:../DGC_A230_Functions/DGC_A230_Normal_Mode.c **** 						Gate_Open_Indicator_Flash_Count = 0;
2139:../DGC_A230_Functions/DGC_A230_Normal_Mode.c **** 						SC_EN = 1;
2140:../DGC_A230_Functions/DGC_A230_Normal_Mode.c **** 					}
2141:../DGC_A230_Functions/DGC_A230_Normal_Mode.c **** 				} break;
2142:../DGC_A230_Functions/DGC_A230_Normal_Mode.c **** 
2143:../DGC_A230_Functions/DGC_A230_Normal_Mode.c **** 				default:
2144:../DGC_A230_Functions/DGC_A230_Normal_Mode.c **** 				{
2145:../DGC_A230_Functions/DGC_A230_Normal_Mode.c **** 					// Do nothing
2146:../DGC_A230_Functions/DGC_A230_Normal_Mode.c **** 				} break;
 6646                             		.loc 1 2146 0
 6647 0056 EC 90 01 00             		br	!!.L494
 6648                             	.L487:
2092:../DGC_A230_Functions/DGC_A230_Normal_Mode.c **** 			{
 6649                             		.loc 1 2092 0
 6650 005a AD F0                   		movw	ax, r8
 6651 005c 44 03 00                		cmpw	ax, #3
 6652 005f 61 F8                   		 sknz
 6653 0061 EC 2B 01 00             		 br	!!.L489
 6654 0065 AD F0                   		movw	ax, r8
 6655 0067 44 04 00                		cmpw	ax, #4
 6656 006a 61 F8                   		 sknz
 6657 006c EC 5E 01 00             		 br	!!.L486
 6658                             		.loc 1 2146 0
 6659 0070 EC 90 01 00             		br	!!.L494
 6660                             	.L488:
2096:../DGC_A230_Functions/DGC_A230_Normal_Mode.c **** 					{
 6661                             		.loc 1 2096 0
 6662 0074 8F 00 00                		mov	a, !_Leaf_No1_State
 6663 0077 9D F0                   		mov	r8, a
 6664 0079 4A F0 01                		cmp	r8, #1
 6665 007c 61 E8                   		 skz
 6666 007e EC A0 00 00             		 br	!!.L490
2098:../DGC_A230_Functions/DGC_A230_Normal_Mode.c **** 						Gate_Open_Indicator_Mode = GATE_OPEN_INDICATOR_MODE_0;
 6667                             		.loc 1 2098 0
 6668 0082 C9 F0 02 FF             		movw	r8, #-254
 6669 0086 AD F0                   		movw	ax, r8
 6670 0088 BD F4                   		movw	r12, ax
 6671 008a FA F4                   		movw	hl, r12
 6672 008c 8B                      		mov	a, [hl]
 6673 008d 9D F2                   		mov	r10, a
 6674 008f 5A F2 7F                		and	r10, #127
 6675 0092 AD F0                   		movw	ax, r8
 6676 0094 EA F4                   		movw	de, r12
 6677 0096 8D F2                   		mov	a, r10
 6678 0098 99                      		mov	[de], a
2099:../DGC_A230_Functions/DGC_A230_Normal_Mode.c **** 					}
 6679                             		.loc 1 2099 0
 6680 0099 F5 00 00                		clrb	!_Gate_Open_Indicator_Mode
 6681 009c EC 27 01 00             		br	!!.L491
 6682                             	.L490:
2102:../DGC_A230_Functions/DGC_A230_Normal_Mode.c **** 						    || (Leaf_No1_State == GATE_STATE_PARTIAL)
 6683                             		.loc 1 2102 0
 6684 00a0 8F 00 00                		mov	a, !_Leaf_No2_State
 6685 00a3 9D F0                   		mov	r8, a
2101:../DGC_A230_Functions/DGC_A230_Normal_Mode.c **** 							(Leaf_No2_State == GATE_STATE_OPENED)		// Gate completely opened
 6686                             		.loc 1 2101 0
 6687 00a5 4A F0 03                		cmp	r8, #3
 6688 00a8 61 F8                   		 sknz
 6689 00aa EC D8 00 00             		 br	!!.L492
2103:../DGC_A230_Functions/DGC_A230_Normal_Mode.c **** 							|| ((Leaf_No1_State == GATE_STATE_OPENED) && (CFG_parameter.Number_Of_Motors == 0x01))
 6690                             		.loc 1 2103 0
 6691 00ae 8F 00 00                		mov	a, !_Leaf_No1_State
 6692 00b1 9D F0                   		mov	r8, a
 6693 00b3 4A F0 05                		cmp	r8, #5
 6694 00b6 61 F8                   		 sknz
 6695 00b8 EC D8 00 00             		 br	!!.L492
2104:../DGC_A230_Functions/DGC_A230_Normal_Mode.c **** 							)
 6696                             		.loc 1 2104 0
 6697 00bc 8F 00 00                		mov	a, !_Leaf_No1_State
 6698 00bf 9D F0                   		mov	r8, a
 6699 00c1 4A F0 03                		cmp	r8, #3
 6700 00c4 61 E8                   		 skz
 6701 00c6 EC F6 00 00             		 br	!!.L493
2104:../DGC_A230_Functions/DGC_A230_Normal_Mode.c **** 							)
 6702                             		.loc 1 2104 0 is_stmt 0 discriminator 1
 6703 00ca 8F 00 00                		mov	a, !_CFG_parameter+1
 6704 00cd 9D F0                   		mov	r8, a
 6705 00cf 4A F0 01                		cmp	r8, #1
 6706 00d2 61 E8                   		 skz
 6707 00d4 EC F6 00 00             		 br	!!.L493
 6708                             	.L492:
2107:../DGC_A230_Functions/DGC_A230_Normal_Mode.c **** 						Gate_Open_Indicator_Mode = GATE_OPEN_INDICATOR_MODE_0;
 6709                             		.loc 1 2107 0 is_stmt 1
 6710 00d8 C9 F0 02 FF             		movw	r8, #-254
 6711 00dc AD F0                   		movw	ax, r8
 6712 00de BD F4                   		movw	r12, ax
 6713 00e0 FA F4                   		movw	hl, r12
 6714 00e2 8B                      		mov	a, [hl]
 6715 00e3 9D F2                   		mov	r10, a
 6716 00e5 6A F2 80                		or	r10, #-128
 6717 00e8 AD F0                   		movw	ax, r8
 6718 00ea EA F4                   		movw	de, r12
 6719 00ec 8D F2                   		mov	a, r10
 6720 00ee 99                      		mov	[de], a
2108:../DGC_A230_Functions/DGC_A230_Normal_Mode.c **** 					}
 6721                             		.loc 1 2108 0
 6722 00ef F5 00 00                		clrb	!_Gate_Open_Indicator_Mode
 6723 00f2 EC 27 01 00             		br	!!.L491
 6724                             	.L493:
2112:../DGC_A230_Functions/DGC_A230_Normal_Mode.c **** 						{
 6725                             		.loc 1 2112 0
 6726 00f6 8F 00 00                		mov	a, !_Gate_Open_Indicator_Mode
 6727 00f9 9D F0                   		mov	r8, a
 6728 00fb 4A F0 03                		cmp	r8, #3
 6729 00fe 61 F8                   		 sknz
 6730 0100 EC 27 01 00             		 br	!!.L491
2114:../DGC_A230_Functions/DGC_A230_Normal_Mode.c **** 							Gate_Open_Indicator_Flash_Count = 0;
 6731                             		.loc 1 2114 0
 6732 0104 51 03                   		mov	a, #3
 6733 0106 9F 00 00                		mov	!_Gate_Open_Indicator_Mode, a
2115:../DGC_A230_Functions/DGC_A230_Normal_Mode.c **** 							SC_EN = 1;
 6734                             		.loc 1 2115 0
 6735 0109 F5 00 00                		clrb	!_Gate_Open_Indicator_Flash_Count
2116:../DGC_A230_Functions/DGC_A230_Normal_Mode.c **** 						}
 6736                             		.loc 1 2116 0
 6737 010c C9 F0 02 FF             		movw	r8, #-254
 6738 0110 AD F0                   		movw	ax, r8
 6739 0112 BD F4                   		movw	r12, ax
 6740 0114 FA F4                   		movw	hl, r12
 6741 0116 8B                      		mov	a, [hl]
 6742 0117 9D F2                   		mov	r10, a
 6743 0119 6A F2 80                		or	r10, #-128
 6744 011c AD F0                   		movw	ax, r8
 6745 011e EA F4                   		movw	de, r12
 6746 0120 8D F2                   		mov	a, r10
 6747 0122 99                      		mov	[de], a
2119:../DGC_A230_Functions/DGC_A230_Normal_Mode.c **** 
 6748                             		.loc 1 2119 0
 6749 0123 EC 90 01 00             		br	!!.L494
 6750                             	.L491:
 6751 0127 EC 90 01 00             		br	!!.L494
 6752                             	.L489:
2124:../DGC_A230_Functions/DGC_A230_Normal_Mode.c **** 					{
 6753                             		.loc 1 2124 0
 6754 012b 8F 00 00                		mov	a, !_Gate_Open_Indicator_Mode
 6755 012e 9D F0                   		mov	r8, a
 6756 0130 4A F0 01                		cmp	r8, #1
 6757 0133 61 F8                   		 sknz
 6758 0135 EC 5A 01 00             		 br	!!.L495
2126:../DGC_A230_Functions/DGC_A230_Normal_Mode.c **** 						Gate_Open_Indicator_Flash_Count = 0;
 6759                             		.loc 1 2126 0
 6760 0139 E5 00 00                		oneb	!_Gate_Open_Indicator_Mode
2127:../DGC_A230_Functions/DGC_A230_Normal_Mode.c **** 						SC_EN = 1;
 6761                             		.loc 1 2127 0
 6762 013c F5 00 00                		clrb	!_Gate_Open_Indicator_Flash_Count
2128:../DGC_A230_Functions/DGC_A230_Normal_Mode.c **** 					}
 6763                             		.loc 1 2128 0
 6764 013f C9 F0 02 FF             		movw	r8, #-254
 6765 0143 AD F0                   		movw	ax, r8
 6766 0145 BD F4                   		movw	r12, ax
 6767 0147 FA F4                   		movw	hl, r12
 6768 0149 8B                      		mov	a, [hl]
 6769 014a 9D F2                   		mov	r10, a
 6770 014c 6A F2 80                		or	r10, #-128
 6771 014f AD F0                   		movw	ax, r8
 6772 0151 EA F4                   		movw	de, r12
 6773 0153 8D F2                   		mov	a, r10
 6774 0155 99                      		mov	[de], a
2130:../DGC_A230_Functions/DGC_A230_Normal_Mode.c **** 
 6775                             		.loc 1 2130 0
 6776 0156 EC 90 01 00             		br	!!.L494
 6777                             	.L495:
2130:../DGC_A230_Functions/DGC_A230_Normal_Mode.c **** 
 6778                             		.loc 1 2130 0 is_stmt 0 discriminator 2
 6779 015a EC 90 01 00             		br	!!.L494
 6780                             	.L486:
2135:../DGC_A230_Functions/DGC_A230_Normal_Mode.c **** 					{
 6781                             		.loc 1 2135 0 is_stmt 1
 6782 015e 8F 00 00                		mov	a, !_Gate_Open_Indicator_Mode
 6783 0161 9D F0                   		mov	r8, a
 6784 0163 4A F0 02                		cmp	r8, #2
 6785 0166 61 F8                   		 sknz
 6786 0168 EC 8F 01 00             		 br	!!.L496
2137:../DGC_A230_Functions/DGC_A230_Normal_Mode.c **** 						Gate_Open_Indicator_Flash_Count = 0;
 6787                             		.loc 1 2137 0
 6788 016c 51 02                   		mov	a, #2
 6789 016e 9F 00 00                		mov	!_Gate_Open_Indicator_Mode, a
2138:../DGC_A230_Functions/DGC_A230_Normal_Mode.c **** 						SC_EN = 1;
 6790                             		.loc 1 2138 0
 6791 0171 F5 00 00                		clrb	!_Gate_Open_Indicator_Flash_Count
2139:../DGC_A230_Functions/DGC_A230_Normal_Mode.c **** 					}
 6792                             		.loc 1 2139 0
 6793 0174 C9 F0 02 FF             		movw	r8, #-254
 6794 0178 AD F0                   		movw	ax, r8
 6795 017a BD F4                   		movw	r12, ax
 6796 017c FA F4                   		movw	hl, r12
 6797 017e 8B                      		mov	a, [hl]
 6798 017f 9D F2                   		mov	r10, a
 6799 0181 6A F2 80                		or	r10, #-128
 6800 0184 AD F0                   		movw	ax, r8
 6801 0186 EA F4                   		movw	de, r12
 6802 0188 8D F2                   		mov	a, r10
 6803 018a 99                      		mov	[de], a
2141:../DGC_A230_Functions/DGC_A230_Normal_Mode.c **** 
 6804                             		.loc 1 2141 0
 6805 018b EC 8F 01 00             		br	!!.L501
 6806                             	.L496:
 6807                             	.L501:
 6808 018f 00                      		nop
 6809                             	.L494:
2147:../DGC_A230_Functions/DGC_A230_Normal_Mode.c **** 			}
2148:../DGC_A230_Functions/DGC_A230_Normal_Mode.c **** 		} break;
 6810                             		.loc 1 2148 0 discriminator 1
 6811 0190 EC F6 01 00             		br	!!.L481
 6812                             	.L484:
2149:../DGC_A230_Functions/DGC_A230_Normal_Mode.c **** 
2150:../DGC_A230_Functions/DGC_A230_Normal_Mode.c **** 		case 0x02:
2151:../DGC_A230_Functions/DGC_A230_Normal_Mode.c **** 		{
2152:../DGC_A230_Functions/DGC_A230_Normal_Mode.c **** 			SC_EN = 1;
 6813                             		.loc 1 2152 0
 6814 0194 C9 F0 02 FF             		movw	r8, #-254
 6815 0198 AD F0                   		movw	ax, r8
 6816 019a BD F4                   		movw	r12, ax
 6817 019c FA F4                   		movw	hl, r12
 6818 019e 8B                      		mov	a, [hl]
 6819 019f 9D F2                   		mov	r10, a
 6820 01a1 6A F2 80                		or	r10, #-128
 6821 01a4 AD F0                   		movw	ax, r8
 6822 01a6 EA F4                   		movw	de, r12
 6823 01a8 8D F2                   		mov	a, r10
 6824 01aa 99                      		mov	[de], a
2153:../DGC_A230_Functions/DGC_A230_Normal_Mode.c **** 			Gate_Open_Indicator_Mode = GATE_OPEN_INDICATOR_MODE_0;
 6825                             		.loc 1 2153 0
 6826 01ab F5 00 00                		clrb	!_Gate_Open_Indicator_Mode
2154:../DGC_A230_Functions/DGC_A230_Normal_Mode.c **** 		} break;
 6827                             		.loc 1 2154 0
 6828 01ae EC F6 01 00             		br	!!.L481
 6829                             	.L500:
2155:../DGC_A230_Functions/DGC_A230_Normal_Mode.c **** 
2156:../DGC_A230_Functions/DGC_A230_Normal_Mode.c **** 		case 0x00:
2157:../DGC_A230_Functions/DGC_A230_Normal_Mode.c **** 		default:
2158:../DGC_A230_Functions/DGC_A230_Normal_Mode.c **** 		{
2159:../DGC_A230_Functions/DGC_A230_Normal_Mode.c **** 			Gate_Open_Indicator_Mode = GATE_OPEN_INDICATOR_MODE_0;
 6830                             		.loc 1 2159 0
 6831 01b2 F5 00 00                		clrb	!_Gate_Open_Indicator_Mode
2160:../DGC_A230_Functions/DGC_A230_Normal_Mode.c **** 			if (Leaf_No1_State == GATE_STATE_CLOSED)
 6832                             		.loc 1 2160 0
 6833 01b5 8F 00 00                		mov	a, !_Leaf_No1_State
 6834 01b8 9D F0                   		mov	r8, a
 6835 01ba 4A F0 01                		cmp	r8, #1
 6836 01bd 61 E8                   		 skz
 6837 01bf EC DE 01 00             		 br	!!.L498
2161:../DGC_A230_Functions/DGC_A230_Normal_Mode.c **** 			{
2162:../DGC_A230_Functions/DGC_A230_Normal_Mode.c **** 				SC_EN = 0;
 6838                             		.loc 1 2162 0
 6839 01c3 C9 F0 02 FF             		movw	r8, #-254
 6840 01c7 AD F0                   		movw	ax, r8
 6841 01c9 BD F4                   		movw	r12, ax
 6842 01cb FA F4                   		movw	hl, r12
 6843 01cd 8B                      		mov	a, [hl]
 6844 01ce 9D F2                   		mov	r10, a
 6845 01d0 5A F2 7F                		and	r10, #127
 6846 01d3 AD F0                   		movw	ax, r8
 6847 01d5 EA F4                   		movw	de, r12
 6848 01d7 8D F2                   		mov	a, r10
 6849 01d9 99                      		mov	[de], a
 6850 01da EC F5 01 00             		br	!!.L499
 6851                             	.L498:
2163:../DGC_A230_Functions/DGC_A230_Normal_Mode.c **** 			}
2164:../DGC_A230_Functions/DGC_A230_Normal_Mode.c **** 			else
2165:../DGC_A230_Functions/DGC_A230_Normal_Mode.c **** 			{
2166:../DGC_A230_Functions/DGC_A230_Normal_Mode.c **** 				SC_EN = 1;
 6852                             		.loc 1 2166 0
 6853 01de C9 F0 02 FF             		movw	r8, #-254
 6854 01e2 AD F0                   		movw	ax, r8
 6855 01e4 BD F4                   		movw	r12, ax
 6856 01e6 FA F4                   		movw	hl, r12
 6857 01e8 8B                      		mov	a, [hl]
 6858 01e9 9D F2                   		mov	r10, a
 6859 01eb 6A F2 80                		or	r10, #-128
 6860 01ee AD F0                   		movw	ax, r8
 6861 01f0 EA F4                   		movw	de, r12
 6862 01f2 8D F2                   		mov	a, r10
 6863 01f4 99                      		mov	[de], a
 6864                             	.L499:
2167:../DGC_A230_Functions/DGC_A230_Normal_Mode.c **** 			}
2168:../DGC_A230_Functions/DGC_A230_Normal_Mode.c **** 		} break;
 6865                             		.loc 1 2168 0
 6866 01f5 00                      		nop
 6867                             	.L481:
2169:../DGC_A230_Functions/DGC_A230_Normal_Mode.c **** 	}
2170:../DGC_A230_Functions/DGC_A230_Normal_Mode.c **** }
 6868                             		.loc 1 2170 0
 6869 01f6 D7                      		ret
 6870                             	.LFE25:
 6872                             		.section	.text.Normal_Mode,"ax",@progbits
 6873                             		.global	_Normal_Mode
 6875                             	_Normal_Mode:
 6876                             	.LFB26:
2171:../DGC_A230_Functions/DGC_A230_Normal_Mode.c **** 
2172:../DGC_A230_Functions/DGC_A230_Normal_Mode.c **** void Normal_Mode(void)
2173:../DGC_A230_Functions/DGC_A230_Normal_Mode.c **** {
 6877                             		.loc 1 2173 0
 6878                             		; start of function
 6879                             		; outgoing: 2 bytes
 6880                             		; uses ES register
 6881 0000 20 02                   		subw	sp, #2
 6882                             	.LCFI21:
 6883                             	.L556:
2174:../DGC_A230_Functions/DGC_A230_Normal_Mode.c **** 	while (1U)
2175:../DGC_A230_Functions/DGC_A230_Normal_Mode.c **** 	{
2176:../DGC_A230_Functions/DGC_A230_Normal_Mode.c **** 
2177:../DGC_A230_Functions/DGC_A230_Normal_Mode.c **** 		//code
2178:../DGC_A230_Functions/DGC_A230_Normal_Mode.c **** 		if ((CFG_parameter.Auto_Close_After_Power == 0x01) && (Power_failure_gate_2 == POWER_FAILURE_STAT
 6884                             		.loc 1 2178 0
 6885 0002 8F 00 00                		mov	a, !_CFG_parameter+50
 6886 0005 9D F0                   		mov	r8, a
 6887 0007 4A F0 01                		cmp	r8, #1
 6888 000a 61 E8                   		 skz
 6889 000c EC 30 00 00             		 br	!!.L503
 6890                             		.loc 1 2178 0 is_stmt 0 discriminator 1
 6891 0010 8F 00 00                		mov	a, !_Power_failure_gate_2
 6892 0013 9D F0                   		mov	r8, a
 6893 0015 4A F0 01                		cmp	r8, #1
 6894 0018 61 E8                   		 skz
 6895 001a EC 30 00 00             		 br	!!.L503
 6896                             	.LBB197:
2179:../DGC_A230_Functions/DGC_A230_Normal_Mode.c **** 		{
2180:../DGC_A230_Functions/DGC_A230_Normal_Mode.c **** 			Power_failure_gate_1 = POWER_RUN_STATE;
 6897                             		.loc 1 2180 0 is_stmt 1
 6898 001e 51 02                   		mov	a, #2
 6899 0020 9F 00 00                		mov	!_Power_failure_gate_1, a
2181:../DGC_A230_Functions/DGC_A230_Normal_Mode.c **** 			Power_failure_gate_2 = POWER_RUN_STATE;
 6900                             		.loc 1 2181 0
 6901 0023 51 02                   		mov	a, #2
 6902 0025 9F 00 00                		mov	!_Power_failure_gate_2, a
2182:../DGC_A230_Functions/DGC_A230_Normal_Mode.c **** 			Start_auto_recovery();
 6903                             		.loc 1 2182 0
 6904 0028 FC 00 00 00             		call	!!%code(_Start_auto_recovery)
2183:../DGC_A230_Functions/DGC_A230_Normal_Mode.c **** 			Step_Command_Process();			// Step Command Procedure
 6905                             		.loc 1 2183 0
 6906 002c FC 00 00 00             		call	!!%code(_Step_Command_Process)
 6907                             	.L503:
 6908                             	.LBE197:
2184:../DGC_A230_Functions/DGC_A230_Normal_Mode.c **** 		}
2185:../DGC_A230_Functions/DGC_A230_Normal_Mode.c **** 
2186:../DGC_A230_Functions/DGC_A230_Normal_Mode.c **** 		//code
2187:../DGC_A230_Functions/DGC_A230_Normal_Mode.c **** 		Gate_Open_Indicator_Process();
 6909                             		.loc 1 2187 0
 6910 0030 FC 00 00 00             		call	!!%code(_Gate_Open_Indicator_Process)
2188:../DGC_A230_Functions/DGC_A230_Normal_Mode.c **** 		//  Normally Open Stop
2189:../DGC_A230_Functions/DGC_A230_Normal_Mode.c **** 		if (((Leaf_No1_State == GATE_STATE_OPENED) && (CFG_parameter.Number_Of_Motors == 0x01) && (Machin
 6911                             		.loc 1 2189 0
 6912 0034 8F 00 00                		mov	a, !_Leaf_No1_State
 6913 0037 9D F0                   		mov	r8, a
 6914 0039 4A F0 03                		cmp	r8, #3
 6915 003c 61 E8                   		 skz
 6916 003e EC 5E 00 00             		 br	!!.L504
 6917                             		.loc 1 2189 0 is_stmt 0 discriminator 1
 6918 0042 8F 00 00                		mov	a, !_CFG_parameter+1
 6919 0045 9D F0                   		mov	r8, a
 6920 0047 4A F0 01                		cmp	r8, #1
 6921 004a 61 E8                   		 skz
 6922 004c EC 5E 00 00             		 br	!!.L504
 6923                             		.loc 1 2189 0 discriminator 2
 6924 0050 8F 00 00                		mov	a, !_Machine_State
 6925 0053 9D F0                   		mov	r8, a
 6926 0055 4A F0 01                		cmp	r8, #1
 6927 0058 61 F8                   		 sknz
 6928 005a EC 96 00 00             		 br	!!.L505
 6929                             	.L504:
2190:../DGC_A230_Functions/DGC_A230_Normal_Mode.c **** 			|| ((Leaf_No1_State == GATE_STATE_OPENED) && (Leaf_No2_State == GATE_STATE_OPENED) && (CFG_param
 6930                             		.loc 1 2190 0 is_stmt 1
 6931 005e 8F 00 00                		mov	a, !_Leaf_No1_State
 6932 0061 9D F0                   		mov	r8, a
 6933 0063 4A F0 03                		cmp	r8, #3
 6934 0066 61 E8                   		 skz
 6935 0068 EC D0 00 00             		 br	!!.L506
 6936                             		.loc 1 2190 0 is_stmt 0 discriminator 1
 6937 006c 8F 00 00                		mov	a, !_Leaf_No2_State
 6938 006f 9D F0                   		mov	r8, a
 6939 0071 4A F0 03                		cmp	r8, #3
 6940 0074 61 E8                   		 skz
 6941 0076 EC D0 00 00             		 br	!!.L506
 6942                             		.loc 1 2190 0 discriminator 2
 6943 007a 8F 00 00                		mov	a, !_CFG_parameter+1
 6944 007d 9D F0                   		mov	r8, a
 6945 007f 4A F0 02                		cmp	r8, #2
 6946 0082 61 E8                   		 skz
 6947 0084 EC D0 00 00             		 br	!!.L506
 6948                             		.loc 1 2190 0 discriminator 3
 6949 0088 8F 00 00                		mov	a, !_Machine_State
 6950 008b 9D F0                   		mov	r8, a
 6951 008d 4A F0 01                		cmp	r8, #1
 6952 0090 61 E8                   		 skz
 6953 0092 EC D0 00 00             		 br	!!.L506
 6954                             	.L505:
 6955                             	.LBB198:
2191:../DGC_A230_Functions/DGC_A230_Normal_Mode.c **** 		{
2192:../DGC_A230_Functions/DGC_A230_Normal_Mode.c **** 			__Do_Stop_Gate_Motor1(OPEN_MOVING_DIRECTION);
 6956                             		.loc 1 2192 0 is_stmt 1
 6957 0096 F6                      		clrw	ax
 6958 0097 B8 00                   		movw	[sp], ax
 6959 0099 FC 00 00 00             		call	!!%code(___Do_Stop_Gate_Motor1)
2193:../DGC_A230_Functions/DGC_A230_Normal_Mode.c **** 			__Do_Stop_Gate_Motor2(OPEN_MOVING_DIRECTION);
 6960                             		.loc 1 2193 0
 6961 009d F6                      		clrw	ax
 6962 009e B8 00                   		movw	[sp], ax
 6963 00a0 FC 00 00 00             		call	!!%code(___Do_Stop_Gate_Motor2)
2194:../DGC_A230_Functions/DGC_A230_Normal_Mode.c **** 			if (Auto_Close_Gate_Retry_Number > 0)
 6964                             		.loc 1 2194 0
 6965 00a4 8F 00 00                		mov	a, !_Auto_Close_Gate_Retry_Number
 6966 00a7 9D F0                   		mov	r8, a
 6967 00a9 D4 F0                   		cmp0	r8
 6968 00ab 61 F8                   		 sknz
 6969 00ad EC B8 00 00             		 br	!!.L507
2195:../DGC_A230_Functions/DGC_A230_Normal_Mode.c **** 			{
2196:../DGC_A230_Functions/DGC_A230_Normal_Mode.c **** 				Auto_Close_Gate_Timer_Counter = 0;
 6970                             		.loc 1 2196 0
 6971 00b1 F6                      		clrw	ax
 6972 00b2 BF 00 00                		movw	!_Auto_Close_Gate_Timer_Counter, ax
2197:../DGC_A230_Functions/DGC_A230_Normal_Mode.c **** 				Auto_Close_Gate_Timer_Enable = 1;
 6973                             		.loc 1 2197 0
 6974 00b5 E5 00 00                		oneb	!_Auto_Close_Gate_Timer_Enable
 6975                             	.L507:
2198:../DGC_A230_Functions/DGC_A230_Normal_Mode.c **** 			}
2199:../DGC_A230_Functions/DGC_A230_Normal_Mode.c **** 			//code
2200:../DGC_A230_Functions/DGC_A230_Normal_Mode.c **** 			if(Power_failure_gate_2 == POWER_RUN_STATE)
 6976                             		.loc 1 2200 0
 6977 00b8 8F 00 00                		mov	a, !_Power_failure_gate_2
 6978 00bb 9D F0                   		mov	r8, a
 6979 00bd 4A F0 02                		cmp	r8, #2
 6980 00c0 61 E8                   		 skz
 6981 00c2 EC D0 00 00             		 br	!!.L506
 6982                             	.LBB199:
2201:../DGC_A230_Functions/DGC_A230_Normal_Mode.c **** 			{
2202:../DGC_A230_Functions/DGC_A230_Normal_Mode.c **** 				Power_failure_gate_1 = POWER_GOOD_STATE;
 6983                             		.loc 1 2202 0
 6984 00c6 F5 00 00                		clrb	!_Power_failure_gate_1
2203:../DGC_A230_Functions/DGC_A230_Normal_Mode.c **** 				Power_failure_gate_2 = POWER_GOOD_STATE;
 6985                             		.loc 1 2203 0
 6986 00c9 F5 00 00                		clrb	!_Power_failure_gate_2
2204:../DGC_A230_Functions/DGC_A230_Normal_Mode.c **** 				End_manual_recovery();
 6987                             		.loc 1 2204 0
 6988 00cc FC 00 00 00             		call	!!%code(_End_manual_recovery)
 6989                             	.L506:
 6990                             	.LBE199:
 6991                             	.LBE198:
2205:../DGC_A230_Functions/DGC_A230_Normal_Mode.c **** 			}
2206:../DGC_A230_Functions/DGC_A230_Normal_Mode.c **** 			//code
2207:../DGC_A230_Functions/DGC_A230_Normal_Mode.c **** 		}
2208:../DGC_A230_Functions/DGC_A230_Normal_Mode.c **** 
2209:../DGC_A230_Functions/DGC_A230_Normal_Mode.c **** 		//  Normally Close Stop
2210:../DGC_A230_Functions/DGC_A230_Normal_Mode.c **** 		if (((Leaf_No1_State == GATE_STATE_CLOSED) && (CFG_parameter.Number_Of_Motors == 0x01) && (Machin
 6992                             		.loc 1 2210 0
 6993 00d0 8F 00 00                		mov	a, !_Leaf_No1_State
 6994 00d3 9D F0                   		mov	r8, a
 6995 00d5 4A F0 01                		cmp	r8, #1
 6996 00d8 61 E8                   		 skz
 6997 00da EC FA 00 00             		 br	!!.L508
 6998                             		.loc 1 2210 0 is_stmt 0 discriminator 1
 6999 00de 8F 00 00                		mov	a, !_CFG_parameter+1
 7000 00e1 9D F0                   		mov	r8, a
 7001 00e3 4A F0 01                		cmp	r8, #1
 7002 00e6 61 E8                   		 skz
 7003 00e8 EC FA 00 00             		 br	!!.L508
 7004                             		.loc 1 2210 0 discriminator 2
 7005 00ec 8F 00 00                		mov	a, !_Machine_State
 7006 00ef 9D F0                   		mov	r8, a
 7007 00f1 4A F0 02                		cmp	r8, #2
 7008 00f4 61 F8                   		 sknz
 7009 00f6 EC 32 01 00             		 br	!!.L509
 7010                             	.L508:
2211:../DGC_A230_Functions/DGC_A230_Normal_Mode.c **** 			|| ((Leaf_No1_State == GATE_STATE_CLOSED) && (Leaf_No2_State == GATE_STATE_CLOSED) && (CFG_param
 7011                             		.loc 1 2211 0 is_stmt 1
 7012 00fa 8F 00 00                		mov	a, !_Leaf_No1_State
 7013 00fd 9D F0                   		mov	r8, a
 7014 00ff 4A F0 01                		cmp	r8, #1
 7015 0102 61 E8                   		 skz
 7016 0104 EC 67 01 00             		 br	!!.L510
 7017                             		.loc 1 2211 0 is_stmt 0 discriminator 1
 7018 0108 8F 00 00                		mov	a, !_Leaf_No2_State
 7019 010b 9D F0                   		mov	r8, a
 7020 010d 4A F0 01                		cmp	r8, #1
 7021 0110 61 E8                   		 skz
 7022 0112 EC 67 01 00             		 br	!!.L510
 7023                             		.loc 1 2211 0 discriminator 2
 7024 0116 8F 00 00                		mov	a, !_CFG_parameter+1
 7025 0119 9D F0                   		mov	r8, a
 7026 011b 4A F0 02                		cmp	r8, #2
 7027 011e 61 E8                   		 skz
 7028 0120 EC 67 01 00             		 br	!!.L510
 7029                             		.loc 1 2211 0 discriminator 3
 7030 0124 8F 00 00                		mov	a, !_Machine_State
 7031 0127 9D F0                   		mov	r8, a
 7032 0129 4A F0 02                		cmp	r8, #2
 7033 012c 61 E8                   		 skz
 7034 012e EC 67 01 00             		 br	!!.L510
 7035                             	.L509:
 7036                             	.LBB200:
2212:../DGC_A230_Functions/DGC_A230_Normal_Mode.c **** 		{
2213:../DGC_A230_Functions/DGC_A230_Normal_Mode.c **** 			__Do_Stop_Gate_Motor1(CLOSE_MOVING_DIRECTION);
 7037                             		.loc 1 2213 0 is_stmt 1
 7038 0132 E6                      		onew	ax
 7039 0133 B8 00                   		movw	[sp], ax
 7040 0135 FC 00 00 00             		call	!!%code(___Do_Stop_Gate_Motor1)
2214:../DGC_A230_Functions/DGC_A230_Normal_Mode.c **** 			__Do_Stop_Gate_Motor2(CLOSE_MOVING_DIRECTION);
 7041                             		.loc 1 2214 0
 7042 0139 E6                      		onew	ax
 7043 013a B8 00                   		movw	[sp], ax
 7044 013c FC 00 00 00             		call	!!%code(___Do_Stop_Gate_Motor2)
2215:../DGC_A230_Functions/DGC_A230_Normal_Mode.c **** 			Auto_Close_Gate_Retry_Number = Auto_Close_Retry_Number;
 7045                             		.loc 1 2215 0
 7046 0140 8F 00 00                		mov	a, !_Auto_Close_Retry_Number
 7047 0143 9D F0                   		mov	r8, a
 7048 0145 9F 00 00                		mov	!_Auto_Close_Gate_Retry_Number, a
2216:../DGC_A230_Functions/DGC_A230_Normal_Mode.c **** 			Auto_Close_Gate_Timer_Counter = 0;
 7049                             		.loc 1 2216 0
 7050 0148 F6                      		clrw	ax
 7051 0149 BF 00 00                		movw	!_Auto_Close_Gate_Timer_Counter, ax
2217:../DGC_A230_Functions/DGC_A230_Normal_Mode.c **** 			Auto_Close_Gate_Timer_Enable = 0;
 7052                             		.loc 1 2217 0
 7053 014c F5 00 00                		clrb	!_Auto_Close_Gate_Timer_Enable
2218:../DGC_A230_Functions/DGC_A230_Normal_Mode.c **** 			//code
2219:../DGC_A230_Functions/DGC_A230_Normal_Mode.c **** 			if(Power_failure_gate_2 == POWER_RUN_STATE)
 7054                             		.loc 1 2219 0
 7055 014f 8F 00 00                		mov	a, !_Power_failure_gate_2
 7056 0152 9D F0                   		mov	r8, a
 7057 0154 4A F0 02                		cmp	r8, #2
 7058 0157 61 E8                   		 skz
 7059 0159 EC 67 01 00             		 br	!!.L510
 7060                             	.LBB201:
2220:../DGC_A230_Functions/DGC_A230_Normal_Mode.c **** 			{
2221:../DGC_A230_Functions/DGC_A230_Normal_Mode.c **** 				Power_failure_gate_1 = POWER_GOOD_STATE;
 7061                             		.loc 1 2221 0
 7062 015d F5 00 00                		clrb	!_Power_failure_gate_1
2222:../DGC_A230_Functions/DGC_A230_Normal_Mode.c **** 				Power_failure_gate_2 = POWER_GOOD_STATE;
 7063                             		.loc 1 2222 0
 7064 0160 F5 00 00                		clrb	!_Power_failure_gate_2
2223:../DGC_A230_Functions/DGC_A230_Normal_Mode.c **** 				End_auto_recovery();
 7065                             		.loc 1 2223 0
 7066 0163 FC 00 00 00             		call	!!%code(_End_auto_recovery)
 7067                             	.L510:
 7068                             	.LBE201:
 7069                             	.LBE200:
2224:../DGC_A230_Functions/DGC_A230_Normal_Mode.c **** 			}
2225:../DGC_A230_Functions/DGC_A230_Normal_Mode.c **** 			//code
2226:../DGC_A230_Functions/DGC_A230_Normal_Mode.c **** 		}
2227:../DGC_A230_Functions/DGC_A230_Normal_Mode.c **** 
2228:../DGC_A230_Functions/DGC_A230_Normal_Mode.c **** 		//  Normally Partial Open Stop
2229:../DGC_A230_Functions/DGC_A230_Normal_Mode.c **** 		if ((Leaf_No1_State == GATE_STATE_PARTIAL) && (Machine_State == MACHINE_STATE_PARTIAL_OPENING))
 7070                             		.loc 1 2229 0
 7071 0167 8F 00 00                		mov	a, !_Leaf_No1_State
 7072 016a 9D F0                   		mov	r8, a
 7073 016c 4A F0 05                		cmp	r8, #5
 7074 016f 61 E8                   		 skz
 7075 0171 EC 9E 01 00             		 br	!!.L511
 7076                             		.loc 1 2229 0 is_stmt 0 discriminator 1
 7077 0175 8F 00 00                		mov	a, !_Machine_State
 7078 0178 9D F0                   		mov	r8, a
 7079 017a 4A F0 03                		cmp	r8, #3
 7080 017d 61 E8                   		 skz
 7081 017f EC 9E 01 00             		 br	!!.L511
 7082                             	.LBB202:
2230:../DGC_A230_Functions/DGC_A230_Normal_Mode.c **** 		{
2231:../DGC_A230_Functions/DGC_A230_Normal_Mode.c **** 			__Do_Partial_Stop_Gate(OPEN_MOVING_DIRECTION);
 7083                             		.loc 1 2231 0 is_stmt 1
 7084 0183 F6                      		clrw	ax
 7085 0184 B8 00                   		movw	[sp], ax
 7086 0186 FC 00 00 00             		call	!!%code(___Do_Partial_Stop_Gate)
2232:../DGC_A230_Functions/DGC_A230_Normal_Mode.c **** 
2233:../DGC_A230_Functions/DGC_A230_Normal_Mode.c **** 			if (Auto_Close_Gate_Retry_Number > 0)
 7087                             		.loc 1 2233 0
 7088 018a 8F 00 00                		mov	a, !_Auto_Close_Gate_Retry_Number
 7089 018d 9D F0                   		mov	r8, a
 7090 018f D4 F0                   		cmp0	r8
 7091 0191 61 F8                   		 sknz
 7092 0193 EC 9E 01 00             		 br	!!.L511
2234:../DGC_A230_Functions/DGC_A230_Normal_Mode.c **** 			{
2235:../DGC_A230_Functions/DGC_A230_Normal_Mode.c **** 				Auto_Close_Gate_Timer_Counter = 0;
 7093                             		.loc 1 2235 0
 7094 0197 F6                      		clrw	ax
 7095 0198 BF 00 00                		movw	!_Auto_Close_Gate_Timer_Counter, ax
2236:../DGC_A230_Functions/DGC_A230_Normal_Mode.c **** 				Auto_Close_Gate_Timer_Enable = 1;
 7096                             		.loc 1 2236 0
 7097 019b E5 00 00                		oneb	!_Auto_Close_Gate_Timer_Enable
 7098                             	.L511:
 7099                             	.LBE202:
2237:../DGC_A230_Functions/DGC_A230_Normal_Mode.c **** 			}
2238:../DGC_A230_Functions/DGC_A230_Normal_Mode.c **** 		}
2239:../DGC_A230_Functions/DGC_A230_Normal_Mode.c **** 
2240:../DGC_A230_Functions/DGC_A230_Normal_Mode.c **** 		//  Normally Partial Close Stop
2241:../DGC_A230_Functions/DGC_A230_Normal_Mode.c **** 		if ((Leaf_No1_State == GATE_STATE_CLOSED) && (Machine_State == MACHINE_STATE_PARTIAL_CLOSING))
 7100                             		.loc 1 2241 0
 7101 019e 8F 00 00                		mov	a, !_Leaf_No1_State
 7102 01a1 9D F0                   		mov	r8, a
 7103 01a3 4A F0 01                		cmp	r8, #1
 7104 01a6 61 E8                   		 skz
 7105 01a8 EC D0 01 00             		 br	!!.L512
 7106                             		.loc 1 2241 0 is_stmt 0 discriminator 1
 7107 01ac 8F 00 00                		mov	a, !_Machine_State
 7108 01af 9D F0                   		mov	r8, a
 7109 01b1 4A F0 04                		cmp	r8, #4
 7110 01b4 61 E8                   		 skz
 7111 01b6 EC D0 01 00             		 br	!!.L512
 7112                             	.LBB203:
2242:../DGC_A230_Functions/DGC_A230_Normal_Mode.c **** 		{
2243:../DGC_A230_Functions/DGC_A230_Normal_Mode.c **** 			__Do_Partial_Stop_Gate(CLOSE_MOVING_DIRECTION);
 7113                             		.loc 1 2243 0 is_stmt 1
 7114 01ba E6                      		onew	ax
 7115 01bb B8 00                   		movw	[sp], ax
 7116 01bd FC 00 00 00             		call	!!%code(___Do_Partial_Stop_Gate)
2244:../DGC_A230_Functions/DGC_A230_Normal_Mode.c **** 
2245:../DGC_A230_Functions/DGC_A230_Normal_Mode.c **** 			Auto_Close_Gate_Retry_Number = Auto_Close_Retry_Number;
 7117                             		.loc 1 2245 0
 7118 01c1 8F 00 00                		mov	a, !_Auto_Close_Retry_Number
 7119 01c4 9D F0                   		mov	r8, a
 7120 01c6 9F 00 00                		mov	!_Auto_Close_Gate_Retry_Number, a
2246:../DGC_A230_Functions/DGC_A230_Normal_Mode.c **** 			Auto_Close_Gate_Timer_Counter = 0;
 7121                             		.loc 1 2246 0
 7122 01c9 F6                      		clrw	ax
 7123 01ca BF 00 00                		movw	!_Auto_Close_Gate_Timer_Counter, ax
2247:../DGC_A230_Functions/DGC_A230_Normal_Mode.c **** 			Auto_Close_Gate_Timer_Enable = 0;
 7124                             		.loc 1 2247 0
 7125 01cd F5 00 00                		clrb	!_Auto_Close_Gate_Timer_Enable
 7126                             	.L512:
 7127                             	.LBE203:
2248:../DGC_A230_Functions/DGC_A230_Normal_Mode.c **** 		}
2249:../DGC_A230_Functions/DGC_A230_Normal_Mode.c **** 
2250:../DGC_A230_Functions/DGC_A230_Normal_Mode.c **** 		if (FCA1_IN && (CFG_parameter.Limit_Switch_Config != 0x00))
 7128                             		.loc 1 2250 0
 7129 01d0 C9 F0 04 FF             		movw	r8, #-252
 7130 01d4 AD F0                   		movw	ax, r8
 7131 01d6 BD F2                   		movw	r10, ax
 7132 01d8 FA F2                   		movw	hl, r10
 7133 01da 8B                      		mov	a, [hl]
 7134 01db 9D F0                   		mov	r8, a
 7135 01dd 31 1A                   		shr	a, 1
 7136 01df 9D F0                   		mov	r8, a
 7137 01e1 5A F0 01                		and	r8, #1
 7138 01e4 61 F8                   		sknz
 7139 01e6 EC FB 01 00             		 br	!!.L513
 7140                             		 # zero-comparison eliminated
 7141                             		.loc 1 2250 0 is_stmt 0 discriminator 1
 7142 01ea 8F 00 00                		mov	a, !_CFG_parameter+96
 7143 01ed 9D F0                   		mov	r8, a
 7144 01ef D4 F0                   		cmp0	r8
 7145 01f1 61 F8                   		 sknz
 7146 01f3 EC FB 01 00             		 br	!!.L513
2251:../DGC_A230_Functions/DGC_A230_Normal_Mode.c **** 		{
2252:../DGC_A230_Functions/DGC_A230_Normal_Mode.c **** 			Open_Limit_Switch_No1_Process();
 7147                             		.loc 1 2252 0 is_stmt 1
 7148 01f7 FC 00 00 00             		call	!!%code(_Open_Limit_Switch_No1_Process)
 7149                             	.L513:
2253:../DGC_A230_Functions/DGC_A230_Normal_Mode.c **** 		}
2254:../DGC_A230_Functions/DGC_A230_Normal_Mode.c **** 
2255:../DGC_A230_Functions/DGC_A230_Normal_Mode.c **** 		if (FCA2_IN && (CFG_parameter.Limit_Switch_Config != 0x00))
 7150                             		.loc 1 2255 0
 7151 01fb C9 F0 04 FF             		movw	r8, #-252
 7152 01ff AD F0                   		movw	ax, r8
 7153 0201 BD F2                   		movw	r10, ax
 7154 0203 FA F2                   		movw	hl, r10
 7155 0205 8B                      		mov	a, [hl]
 7156 0206 9D F0                   		mov	r8, a
 7157 0208 31 3A                   		shr	a, 3
 7158 020a 9D F0                   		mov	r8, a
 7159 020c 5A F0 01                		and	r8, #1
 7160 020f 61 F8                   		sknz
 7161 0211 EC 26 02 00             		 br	!!.L514
 7162                             		 # zero-comparison eliminated
 7163                             		.loc 1 2255 0 is_stmt 0 discriminator 1
 7164 0215 8F 00 00                		mov	a, !_CFG_parameter+96
 7165 0218 9D F0                   		mov	r8, a
 7166 021a D4 F0                   		cmp0	r8
 7167 021c 61 F8                   		 sknz
 7168 021e EC 26 02 00             		 br	!!.L514
2256:../DGC_A230_Functions/DGC_A230_Normal_Mode.c **** 		{
2257:../DGC_A230_Functions/DGC_A230_Normal_Mode.c **** 			Open_Limit_Switch_No2_Process();
 7169                             		.loc 1 2257 0 is_stmt 1
 7170 0222 FC 00 00 00             		call	!!%code(_Open_Limit_Switch_No2_Process)
 7171                             	.L514:
2258:../DGC_A230_Functions/DGC_A230_Normal_Mode.c **** 		}
2259:../DGC_A230_Functions/DGC_A230_Normal_Mode.c **** 
2260:../DGC_A230_Functions/DGC_A230_Normal_Mode.c **** 		if (FCC1_IN && (CFG_parameter.Limit_Switch_Config == 0x01))
 7172                             		.loc 1 2260 0
 7173 0226 C9 F0 04 FF             		movw	r8, #-252
 7174 022a AD F0                   		movw	ax, r8
 7175 022c BD F2                   		movw	r10, ax
 7176 022e FA F2                   		movw	hl, r10
 7177 0230 8B                      		mov	a, [hl]
 7178 0231 9D F0                   		mov	r8, a
 7179 0233 31 2A                   		shr	a, 2
 7180 0235 9D F0                   		mov	r8, a
 7181 0237 5A F0 01                		and	r8, #1
 7182 023a 61 F8                   		sknz
 7183 023c EC 52 02 00             		 br	!!.L515
 7184                             		 # zero-comparison eliminated
 7185                             		.loc 1 2260 0 is_stmt 0 discriminator 1
 7186 0240 8F 00 00                		mov	a, !_CFG_parameter+96
 7187 0243 9D F0                   		mov	r8, a
 7188 0245 4A F0 01                		cmp	r8, #1
 7189 0248 61 E8                   		 skz
 7190 024a EC 52 02 00             		 br	!!.L515
2261:../DGC_A230_Functions/DGC_A230_Normal_Mode.c **** 		{
2262:../DGC_A230_Functions/DGC_A230_Normal_Mode.c **** 			Close_Limit_Switch_No1_Process();
 7191                             		.loc 1 2262 0 is_stmt 1
 7192 024e FC 00 00 00             		call	!!%code(_Close_Limit_Switch_No1_Process)
 7193                             	.L515:
2263:../DGC_A230_Functions/DGC_A230_Normal_Mode.c **** 		}
2264:../DGC_A230_Functions/DGC_A230_Normal_Mode.c **** 
2265:../DGC_A230_Functions/DGC_A230_Normal_Mode.c **** 		if (FCC2_IN && (CFG_parameter.Limit_Switch_Config == 0x01))
 7194                             		.loc 1 2265 0
 7195 0252 C9 F0 0C FF             		movw	r8, #-244
 7196 0256 AD F0                   		movw	ax, r8
 7197 0258 BD F2                   		movw	r10, ax
 7198 025a EA F2                   		movw	de, r10
 7199 025c 89                      		mov	a, [de]
 7200 025d 5C 01                   		and	a, #1
 7201 025f 9D F0                   		mov	r8, a
 7202 0261 D4 F0                   		cmp0	r8
 7203 0263 61 F8                   		 sknz
 7204 0265 EC 7B 02 00             		 br	!!.L516
 7205                             		.loc 1 2265 0 is_stmt 0 discriminator 1
 7206 0269 8F 00 00                		mov	a, !_CFG_parameter+96
 7207 026c 9D F0                   		mov	r8, a
 7208 026e 4A F0 01                		cmp	r8, #1
 7209 0271 61 E8                   		 skz
 7210 0273 EC 7B 02 00             		 br	!!.L516
2266:../DGC_A230_Functions/DGC_A230_Normal_Mode.c **** 		{
2267:../DGC_A230_Functions/DGC_A230_Normal_Mode.c **** 			Close_Limit_Switch_No2_Process();
 7211                             		.loc 1 2267 0 is_stmt 1
 7212 0277 FC 00 00 00             		call	!!%code(_Close_Limit_Switch_No2_Process)
 7213                             	.L516:
2268:../DGC_A230_Functions/DGC_A230_Normal_Mode.c **** 		}
2269:../DGC_A230_Functions/DGC_A230_Normal_Mode.c **** 		if (Auto_Close_Gate_Command == AUTO_CLOSE_GATE_COMMAND_ON)
 7214                             		.loc 1 2269 0
 7215 027b 8F 00 00                		mov	a, !_Auto_Close_Gate_Command
 7216 027e 9D F0                   		mov	r8, a
 7217 0280 4A F0 01                		cmp	r8, #1
 7218 0283 61 E8                   		 skz
 7219 0285 EC 8D 02 00             		 br	!!.L517
2270:../DGC_A230_Functions/DGC_A230_Normal_Mode.c **** 		{
2271:../DGC_A230_Functions/DGC_A230_Normal_Mode.c **** 			Auto_Close_Gate_Command_Process();
 7220                             		.loc 1 2271 0
 7221 0289 FC 00 00 00             		call	!!%code(_Auto_Close_Gate_Command_Process)
 7222                             	.L517:
2272:../DGC_A230_Functions/DGC_A230_Normal_Mode.c **** 		}
2273:../DGC_A230_Functions/DGC_A230_Normal_Mode.c **** 		//  Emergency Stop
2274:../DGC_A230_Functions/DGC_A230_Normal_Mode.c **** 		if (E_STOP)
 7223                             		.loc 1 2274 0
 7224 028d C9 F0 07 FF             		movw	r8, #-249
 7225 0291 AD F0                   		movw	ax, r8
 7226 0293 BD F2                   		movw	r10, ax
 7227 0295 FA F2                   		movw	hl, r10
 7228 0297 8B                      		mov	a, [hl]
 7229 0298 9D F0                   		mov	r8, a
 7230 029a 31 4A                   		shr	a, 4
 7231 029c 9D F0                   		mov	r8, a
 7232 029e 5A F0 01                		and	r8, #1
 7233 02a1 61 F8                   		sknz
 7234 02a3 EC AB 02 00             		 br	!!.L518
 7235                             		 # zero-comparison eliminated
2275:../DGC_A230_Functions/DGC_A230_Normal_Mode.c **** 		{
2276:../DGC_A230_Functions/DGC_A230_Normal_Mode.c **** 			Emergency_Stop_Process();
 7236                             		.loc 1 2276 0
 7237 02a7 FC 00 00 00             		call	!!%code(_Emergency_Stop_Process)
 7238                             	.L518:
2277:../DGC_A230_Functions/DGC_A230_Normal_Mode.c **** 		}
2278:../DGC_A230_Functions/DGC_A230_Normal_Mode.c **** 
2279:../DGC_A230_Functions/DGC_A230_Normal_Mode.c **** 		if (FT1)
 7239                             		.loc 1 2279 0
 7240 02ab C9 F0 07 FF             		movw	r8, #-249
 7241 02af AD F0                   		movw	ax, r8
 7242 02b1 BD F2                   		movw	r10, ax
 7243 02b3 FA F2                   		movw	hl, r10
 7244 02b5 8B                      		mov	a, [hl]
 7245 02b6 9D F0                   		mov	r8, a
 7246 02b8 31 1A                   		shr	a, 1
 7247 02ba 9D F0                   		mov	r8, a
 7248 02bc 5A F0 01                		and	r8, #1
 7249 02bf 61 F8                   		sknz
 7250 02c1 EC C9 02 00             		 br	!!.L519
 7251                             		 # zero-comparison eliminated
2280:../DGC_A230_Functions/DGC_A230_Normal_Mode.c **** 		{
2281:../DGC_A230_Functions/DGC_A230_Normal_Mode.c **** 			Photocell_FT1_Process();
 7252                             		.loc 1 2281 0
 7253 02c5 FC 00 00 00             		call	!!%code(_Photocell_FT1_Process)
 7254                             	.L519:
2282:../DGC_A230_Functions/DGC_A230_Normal_Mode.c **** 		}
2283:../DGC_A230_Functions/DGC_A230_Normal_Mode.c **** 
2284:../DGC_A230_Functions/DGC_A230_Normal_Mode.c **** 		if (FT2)
 7255                             		.loc 1 2284 0
 7256 02c9 C9 F0 07 FF             		movw	r8, #-249
 7257 02cd AD F0                   		movw	ax, r8
 7258 02cf BD F2                   		movw	r10, ax
 7259 02d1 EA F2                   		movw	de, r10
 7260 02d3 89                      		mov	a, [de]
 7261 02d4 5C 01                   		and	a, #1
 7262 02d6 9D F0                   		mov	r8, a
 7263 02d8 D4 F0                   		cmp0	r8
 7264 02da 61 F8                   		 sknz
 7265 02dc EC E4 02 00             		 br	!!.L520
2285:../DGC_A230_Functions/DGC_A230_Normal_Mode.c **** 		{
2286:../DGC_A230_Functions/DGC_A230_Normal_Mode.c **** 			Photocell_FT2_Process();
 7266                             		.loc 1 2286 0
 7267 02e0 FC 00 00 00             		call	!!%code(_Photocell_FT2_Process)
 7268                             	.L520:
2287:../DGC_A230_Functions/DGC_A230_Normal_Mode.c **** 		}
2288:../DGC_A230_Functions/DGC_A230_Normal_Mode.c **** 
2289:../DGC_A230_Functions/DGC_A230_Normal_Mode.c **** 		if ((COS1) && (Last_Sensing_Edge_COS1_status == SENSING_EDGE_STATUS_INACTIVE))
 7269                             		.loc 1 2289 0
 7270 02e4 C9 F0 07 FF             		movw	r8, #-249
 7271 02e8 AD F0                   		movw	ax, r8
 7272 02ea BD F2                   		movw	r10, ax
 7273 02ec FA F2                   		movw	hl, r10
 7274 02ee 8B                      		mov	a, [hl]
 7275 02ef 9D F0                   		mov	r8, a
 7276 02f1 31 3A                   		shr	a, 3
 7277 02f3 9D F0                   		mov	r8, a
 7278 02f5 5A F0 01                		and	r8, #1
 7279 02f8 61 F8                   		sknz
 7280 02fa EC 12 03 00             		 br	!!.L521
 7281                             		 # zero-comparison eliminated
 7282                             		.loc 1 2289 0 is_stmt 0 discriminator 1
 7283 02fe 8F 00 00                		mov	a, !_Last_Sensing_Edge_COS1_status
 7284 0301 9D F0                   		mov	r8, a
 7285 0303 D4 F0                   		cmp0	r8
 7286 0305 61 E8                   		 skz
 7287 0307 EC 12 03 00             		 br	!!.L521
2290:../DGC_A230_Functions/DGC_A230_Normal_Mode.c **** 		{
2291:../DGC_A230_Functions/DGC_A230_Normal_Mode.c **** 			Last_Sensing_Edge_COS1_status = SENSING_EDGE_STATUS_ACTIVE;
 7288                             		.loc 1 2291 0 is_stmt 1
 7289 030b E5 00 00                		oneb	!_Last_Sensing_Edge_COS1_status
2292:../DGC_A230_Functions/DGC_A230_Normal_Mode.c **** 			Sensing_Edge_COS1_Process();
 7290                             		.loc 1 2292 0
 7291 030e FC 00 00 00             		call	!!%code(_Sensing_Edge_COS1_Process)
 7292                             	.L521:
2293:../DGC_A230_Functions/DGC_A230_Normal_Mode.c **** 		}
2294:../DGC_A230_Functions/DGC_A230_Normal_Mode.c **** 
2295:../DGC_A230_Functions/DGC_A230_Normal_Mode.c **** 		if ((COS2) && (Last_Sensing_Edge_COS2_status == SENSING_EDGE_STATUS_INACTIVE))
 7293                             		.loc 1 2295 0
 7294 0312 C9 F0 07 FF             		movw	r8, #-249
 7295 0316 AD F0                   		movw	ax, r8
 7296 0318 BD F2                   		movw	r10, ax
 7297 031a FA F2                   		movw	hl, r10
 7298 031c 8B                      		mov	a, [hl]
 7299 031d 9D F0                   		mov	r8, a
 7300 031f 31 2A                   		shr	a, 2
 7301 0321 9D F0                   		mov	r8, a
 7302 0323 5A F0 01                		and	r8, #1
 7303 0326 61 F8                   		sknz
 7304 0328 EC 40 03 00             		 br	!!.L522
 7305                             		 # zero-comparison eliminated
 7306                             		.loc 1 2295 0 is_stmt 0 discriminator 1
 7307 032c 8F 00 00                		mov	a, !_Last_Sensing_Edge_COS2_status
 7308 032f 9D F0                   		mov	r8, a
 7309 0331 D4 F0                   		cmp0	r8
 7310 0333 61 E8                   		 skz
 7311 0335 EC 40 03 00             		 br	!!.L522
2296:../DGC_A230_Functions/DGC_A230_Normal_Mode.c **** 		{
2297:../DGC_A230_Functions/DGC_A230_Normal_Mode.c **** 			Last_Sensing_Edge_COS2_status = SENSING_EDGE_STATUS_ACTIVE;
 7312                             		.loc 1 2297 0 is_stmt 1
 7313 0339 E5 00 00                		oneb	!_Last_Sensing_Edge_COS2_status
2298:../DGC_A230_Functions/DGC_A230_Normal_Mode.c **** 			Sensing_Edge_COS2_Process();
 7314                             		.loc 1 2298 0
 7315 033c FC 00 00 00             		call	!!%code(_Sensing_Edge_COS2_Process)
 7316                             	.L522:
2299:../DGC_A230_Functions/DGC_A230_Normal_Mode.c **** 		}
2300:../DGC_A230_Functions/DGC_A230_Normal_Mode.c **** 
2301:../DGC_A230_Functions/DGC_A230_Normal_Mode.c **** 		if ((!COS1) && (Last_Sensing_Edge_COS1_status == SENSING_EDGE_STATUS_ACTIVE))
 7317                             		.loc 1 2301 0
 7318 0340 C9 F0 07 FF             		movw	r8, #-249
 7319 0344 AD F0                   		movw	ax, r8
 7320 0346 BD F2                   		movw	r10, ax
 7321 0348 FA F2                   		movw	hl, r10
 7322 034a 8B                      		mov	a, [hl]
 7323 034b 9D F0                   		mov	r8, a
 7324 034d 31 3A                   		shr	a, 3
 7325 034f 9D F0                   		mov	r8, a
 7326 0351 5A F0 01                		and	r8, #1
 7327 0354 61 E8                   		skz
 7328 0356 EC 6B 03 00             		 br	!!.L523
 7329                             		 # zero-comparison eliminated
 7330                             		.loc 1 2301 0 is_stmt 0 discriminator 1
 7331 035a 8F 00 00                		mov	a, !_Last_Sensing_Edge_COS1_status
 7332 035d 9D F0                   		mov	r8, a
 7333 035f 4A F0 01                		cmp	r8, #1
 7334 0362 61 E8                   		 skz
 7335 0364 EC 6B 03 00             		 br	!!.L523
2302:../DGC_A230_Functions/DGC_A230_Normal_Mode.c **** 		{
2303:../DGC_A230_Functions/DGC_A230_Normal_Mode.c **** 			Last_Sensing_Edge_COS1_status = SENSING_EDGE_STATUS_INACTIVE;
 7336                             		.loc 1 2303 0 is_stmt 1
 7337 0368 F5 00 00                		clrb	!_Last_Sensing_Edge_COS1_status
 7338                             	.L523:
2304:../DGC_A230_Functions/DGC_A230_Normal_Mode.c **** 		}
2305:../DGC_A230_Functions/DGC_A230_Normal_Mode.c **** 
2306:../DGC_A230_Functions/DGC_A230_Normal_Mode.c **** 		if ((!COS2) && (Last_Sensing_Edge_COS2_status == SENSING_EDGE_STATUS_ACTIVE))
 7339                             		.loc 1 2306 0
 7340 036b C9 F0 07 FF             		movw	r8, #-249
 7341 036f AD F0                   		movw	ax, r8
 7342 0371 BD F2                   		movw	r10, ax
 7343 0373 FA F2                   		movw	hl, r10
 7344 0375 8B                      		mov	a, [hl]
 7345 0376 9D F0                   		mov	r8, a
 7346 0378 31 2A                   		shr	a, 2
 7347 037a 9D F0                   		mov	r8, a
 7348 037c 5A F0 01                		and	r8, #1
 7349 037f 61 E8                   		skz
 7350 0381 EC 96 03 00             		 br	!!.L524
 7351                             		 # zero-comparison eliminated
 7352                             		.loc 1 2306 0 is_stmt 0 discriminator 1
 7353 0385 8F 00 00                		mov	a, !_Last_Sensing_Edge_COS2_status
 7354 0388 9D F0                   		mov	r8, a
 7355 038a 4A F0 01                		cmp	r8, #1
 7356 038d 61 E8                   		 skz
 7357 038f EC 96 03 00             		 br	!!.L524
2307:../DGC_A230_Functions/DGC_A230_Normal_Mode.c **** 		{
2308:../DGC_A230_Functions/DGC_A230_Normal_Mode.c **** 			Last_Sensing_Edge_COS2_status = SENSING_EDGE_STATUS_INACTIVE;
 7358                             		.loc 1 2308 0 is_stmt 1
 7359 0393 F5 00 00                		clrb	!_Last_Sensing_Edge_COS2_status
 7360                             	.L524:
2309:../DGC_A230_Functions/DGC_A230_Normal_Mode.c **** 		}
2310:../DGC_A230_Functions/DGC_A230_Normal_Mode.c **** 
2311:../DGC_A230_Functions/DGC_A230_Normal_Mode.c **** 		if ((!PED_IN)						// Partial Command is activated
 7361                             		.loc 1 2311 0
 7362 0396 C9 F0 06 FF             		movw	r8, #-250
 7363 039a AD F0                   		movw	ax, r8
 7364 039c BD F2                   		movw	r10, ax
 7365 039e EA F2                   		movw	de, r10
 7366 03a0 89                      		mov	a, [de]
 7367 03a1 5C 01                   		and	a, #1
 7368 03a3 9D F0                   		mov	r8, a
 7369 03a5 D4 F0                   		cmp0	r8
 7370 03a7 61 E8                   		 skz
 7371 03a9 EC 0A 04 00             		 br	!!.L525
2312:../DGC_A230_Functions/DGC_A230_Normal_Mode.c **** 			&& (!((!ORO_IN) && (CFG_parameter.Clock_Contact_Mode == 0x00))))
 7372                             		.loc 1 2312 0
 7373 03ad C9 F0 03 FF             		movw	r8, #-253
 7374 03b1 AD F0                   		movw	ax, r8
 7375 03b3 BD F2                   		movw	r10, ax
 7376 03b5 FA F2                   		movw	hl, r10
 7377 03b7 8B                      		mov	a, [hl]
 7378 03b8 9D F0                   		mov	r8, a
 7379 03ba 31 1A                   		shr	a, 1
 7380 03bc 9D F0                   		mov	r8, a
 7381 03be 5A F0 01                		and	r8, #1
 7382 03c1 61 E8                   		skz
 7383 03c3 EC D4 03 00             		 br	!!.L526
 7384                             		 # zero-comparison eliminated
 7385                             		.loc 1 2312 0 is_stmt 0 discriminator 1
 7386 03c7 8F 00 00                		mov	a, !_CFG_parameter+100
 7387 03ca 9D F0                   		mov	r8, a
 7388 03cc D4 F0                   		cmp0	r8
 7389 03ce 61 F8                   		 sknz
 7390 03d0 EC 0A 04 00             		 br	!!.L525
 7391                             	.L526:
2313:../DGC_A230_Functions/DGC_A230_Normal_Mode.c **** 		{
2314:../DGC_A230_Functions/DGC_A230_Normal_Mode.c **** 			if((CFG_parameter.Manual_Function == 0x00) && (Power_failure == POWER_GOOD_STATE))
 7392                             		.loc 1 2314 0 is_stmt 1
 7393 03d4 8F 00 00                		mov	a, !_CFG_parameter+58
 7394 03d7 9D F0                   		mov	r8, a
 7395 03d9 D4 F0                   		cmp0	r8
 7396 03db 61 E8                   		 skz
 7397 03dd EC F2 03 00             		 br	!!.L527
 7398                             		.loc 1 2314 0 is_stmt 0 discriminator 1
 7399 03e1 8F 00 00                		mov	a, !_Power_failure
 7400 03e4 9D F0                   		mov	r8, a
 7401 03e6 D4 F0                   		cmp0	r8
 7402 03e8 61 E8                   		 skz
 7403 03ea EC F2 03 00             		 br	!!.L527
2315:../DGC_A230_Functions/DGC_A230_Normal_Mode.c **** 			{
2316:../DGC_A230_Functions/DGC_A230_Normal_Mode.c **** 				Partial_Command_Process();		// Partial Command Procedure
 7404                             		.loc 1 2316 0 is_stmt 1
 7405 03ee FC 00 00 00             		call	!!%code(_Partial_Command_Process)
 7406                             	.L527:
2317:../DGC_A230_Functions/DGC_A230_Normal_Mode.c **** 			}
2318:../DGC_A230_Functions/DGC_A230_Normal_Mode.c **** 			while(!PED_IN);
 7407                             		.loc 1 2318 0
 7408 03f2 00                      		nop
 7409                             	.L528:
 7410                             		.loc 1 2318 0 is_stmt 0 discriminator 1
 7411 03f3 C9 F0 06 FF             		movw	r8, #-250
 7412 03f7 AD F0                   		movw	ax, r8
 7413 03f9 BD F2                   		movw	r10, ax
 7414 03fb EA F2                   		movw	de, r10
 7415 03fd 89                      		mov	a, [de]
 7416 03fe 5C 01                   		and	a, #1
 7417 0400 9D F0                   		mov	r8, a
 7418 0402 D4 F0                   		cmp0	r8
 7419 0404 61 F8                   		 sknz
 7420 0406 EC F3 03 00             		 br	!!.L528
 7421                             	.L525:
2319:../DGC_A230_Functions/DGC_A230_Normal_Mode.c **** 		}
2320:../DGC_A230_Functions/DGC_A230_Normal_Mode.c **** 
2321:../DGC_A230_Functions/DGC_A230_Normal_Mode.c **** 		if ((!PP_IN)							// Step Command is activated
 7422                             		.loc 1 2321 0 is_stmt 1
 7423 040a C9 F0 06 FF             		movw	r8, #-250
 7424 040e AD F0                   		movw	ax, r8
 7425 0410 BD F2                   		movw	r10, ax
 7426 0412 FA F2                   		movw	hl, r10
 7427 0414 8B                      		mov	a, [hl]
 7428 0415 9D F0                   		mov	r8, a
 7429 0417 31 1A                   		shr	a, 1
 7430 0419 9D F0                   		mov	r8, a
 7431 041b 5A F0 01                		and	r8, #1
 7432 041e 61 E8                   		skz
 7433 0420 EC 9B 04 00             		 br	!!.L529
 7434                             		 # zero-comparison eliminated
2322:../DGC_A230_Functions/DGC_A230_Normal_Mode.c **** 			&& (!((!ORO_IN) && (CFG_parameter.Clock_Contact_Mode == 0x00))))
 7435                             		.loc 1 2322 0
 7436 0424 C9 F0 03 FF             		movw	r8, #-253
 7437 0428 AD F0                   		movw	ax, r8
 7438 042a BD F2                   		movw	r10, ax
 7439 042c FA F2                   		movw	hl, r10
 7440 042e 8B                      		mov	a, [hl]
 7441 042f 9D F0                   		mov	r8, a
 7442 0431 31 1A                   		shr	a, 1
 7443 0433 9D F0                   		mov	r8, a
 7444 0435 5A F0 01                		and	r8, #1
 7445 0438 61 E8                   		skz
 7446 043a EC 4B 04 00             		 br	!!.L530
 7447                             		 # zero-comparison eliminated
 7448                             		.loc 1 2322 0 is_stmt 0 discriminator 1
 7449 043e 8F 00 00                		mov	a, !_CFG_parameter+100
 7450 0441 9D F0                   		mov	r8, a
 7451 0443 D4 F0                   		cmp0	r8
 7452 0445 61 F8                   		 sknz
 7453 0447 EC 9B 04 00             		 br	!!.L529
 7454                             	.L530:
2323:../DGC_A230_Functions/DGC_A230_Normal_Mode.c **** 		{
2324:../DGC_A230_Functions/DGC_A230_Normal_Mode.c **** 
2325:../DGC_A230_Functions/DGC_A230_Normal_Mode.c **** 			if (Power_failure_gate_2 == POWER_FAILURE_STATE)
 7455                             		.loc 1 2325 0 is_stmt 1
 7456 044b 8F 00 00                		mov	a, !_Power_failure_gate_2
 7457 044e 9D F0                   		mov	r8, a
 7458 0450 4A F0 01                		cmp	r8, #1
 7459 0453 61 E8                   		 skz
 7460 0455 EC 6F 04 00             		 br	!!.L531
 7461                             	.LBB204:
2326:../DGC_A230_Functions/DGC_A230_Normal_Mode.c **** 			{
2327:../DGC_A230_Functions/DGC_A230_Normal_Mode.c **** //				Manual_Power_Failure_Recovery_Process();
2328:../DGC_A230_Functions/DGC_A230_Normal_Mode.c **** //				Manual_Power_Failure_Recovery_Process_Test();
2329:../DGC_A230_Functions/DGC_A230_Normal_Mode.c **** 
2330:../DGC_A230_Functions/DGC_A230_Normal_Mode.c **** 				//code
2331:../DGC_A230_Functions/DGC_A230_Normal_Mode.c **** 				Power_failure_gate_1 = POWER_RUN_STATE;
 7462                             		.loc 1 2331 0
 7463 0459 51 02                   		mov	a, #2
 7464 045b 9F 00 00                		mov	!_Power_failure_gate_1, a
2332:../DGC_A230_Functions/DGC_A230_Normal_Mode.c **** 				Power_failure_gate_2 = POWER_RUN_STATE;
 7465                             		.loc 1 2332 0
 7466 045e 51 02                   		mov	a, #2
 7467 0460 9F 00 00                		mov	!_Power_failure_gate_2, a
2333:../DGC_A230_Functions/DGC_A230_Normal_Mode.c **** 				Start_manual_recovery();
 7468                             		.loc 1 2333 0
 7469 0463 FC 00 00 00             		call	!!%code(_Start_manual_recovery)
2334:../DGC_A230_Functions/DGC_A230_Normal_Mode.c **** 				Step_Command_Process();			// Step Command Procedure
 7470                             		.loc 1 2334 0
 7471 0467 FC 00 00 00             		call	!!%code(_Step_Command_Process)
 7472                             	.LBE204:
 7473 046b EC 80 04 00             		br	!!.L532
 7474                             	.L531:
2335:../DGC_A230_Functions/DGC_A230_Normal_Mode.c **** 				//code
2336:../DGC_A230_Functions/DGC_A230_Normal_Mode.c **** 
2337:../DGC_A230_Functions/DGC_A230_Normal_Mode.c **** 
2338:../DGC_A230_Functions/DGC_A230_Normal_Mode.c **** 			}
2339:../DGC_A230_Functions/DGC_A230_Normal_Mode.c **** 			else
2340:../DGC_A230_Functions/DGC_A230_Normal_Mode.c **** 			{
2341:../DGC_A230_Functions/DGC_A230_Normal_Mode.c **** 				if(CFG_parameter.Manual_Function == 0x00)
 7475                             		.loc 1 2341 0
 7476 046f 8F 00 00                		mov	a, !_CFG_parameter+58
 7477 0472 9D F0                   		mov	r8, a
 7478 0474 D4 F0                   		cmp0	r8
 7479 0476 61 E8                   		 skz
 7480 0478 EC 80 04 00             		 br	!!.L532
2342:../DGC_A230_Functions/DGC_A230_Normal_Mode.c **** 				{
2343:../DGC_A230_Functions/DGC_A230_Normal_Mode.c **** 					Step_Command_Process();			// Step Command Procedure
 7481                             		.loc 1 2343 0
 7482 047c FC 00 00 00             		call	!!%code(_Step_Command_Process)
 7483                             	.L532:
2344:../DGC_A230_Functions/DGC_A230_Normal_Mode.c **** 				}
2345:../DGC_A230_Functions/DGC_A230_Normal_Mode.c **** 			}
2346:../DGC_A230_Functions/DGC_A230_Normal_Mode.c **** 			while(!PP_IN);
 7484                             		.loc 1 2346 0
 7485 0480 00                      		nop
 7486                             	.L533:
 7487                             		.loc 1 2346 0 is_stmt 0 discriminator 1
 7488 0481 C9 F0 06 FF             		movw	r8, #-250
 7489 0485 AD F0                   		movw	ax, r8
 7490 0487 BD F2                   		movw	r10, ax
 7491 0489 FA F2                   		movw	hl, r10
 7492 048b 8B                      		mov	a, [hl]
 7493 048c 9D F0                   		mov	r8, a
 7494 048e 31 1A                   		shr	a, 1
 7495 0490 9D F0                   		mov	r8, a
 7496 0492 5A F0 01                		and	r8, #1
 7497 0495 61 F8                   		sknz
 7498 0497 EC 81 04 00             		 br	!!.L533
 7499                             		 # zero-comparison eliminated
 7500                             	.L529:
2347:../DGC_A230_Functions/DGC_A230_Normal_Mode.c **** 		}
2348:../DGC_A230_Functions/DGC_A230_Normal_Mode.c **** 
2349:../DGC_A230_Functions/DGC_A230_Normal_Mode.c **** 		if ((!CH_IN)							// Close Command is activated
 7501                             		.loc 1 2349 0 is_stmt 1
 7502 049b C9 F0 06 FF             		movw	r8, #-250
 7503 049f AD F0                   		movw	ax, r8
 7504 04a1 BD F2                   		movw	r10, ax
 7505 04a3 FA F2                   		movw	hl, r10
 7506 04a5 8B                      		mov	a, [hl]
 7507 04a6 9D F0                   		mov	r8, a
 7508 04a8 31 2A                   		shr	a, 2
 7509 04aa 9D F0                   		mov	r8, a
 7510 04ac 5A F0 01                		and	r8, #1
 7511 04af 61 E8                   		skz
 7512 04b1 EC E0 04 00             		 br	!!.L534
 7513                             		 # zero-comparison eliminated
2350:../DGC_A230_Functions/DGC_A230_Normal_Mode.c **** 			&& (!((!ORO_IN) && (CFG_parameter.Clock_Contact_Mode == 0x00))))
 7514                             		.loc 1 2350 0
 7515 04b5 C9 F0 03 FF             		movw	r8, #-253
 7516 04b9 AD F0                   		movw	ax, r8
 7517 04bb BD F2                   		movw	r10, ax
 7518 04bd FA F2                   		movw	hl, r10
 7519 04bf 8B                      		mov	a, [hl]
 7520 04c0 9D F0                   		mov	r8, a
 7521 04c2 31 1A                   		shr	a, 1
 7522 04c4 9D F0                   		mov	r8, a
 7523 04c6 5A F0 01                		and	r8, #1
 7524 04c9 61 E8                   		skz
 7525 04cb EC DC 04 00             		 br	!!.L535
 7526                             		 # zero-comparison eliminated
 7527                             		.loc 1 2350 0 is_stmt 0 discriminator 1
 7528 04cf 8F 00 00                		mov	a, !_CFG_parameter+100
 7529 04d2 9D F0                   		mov	r8, a
 7530 04d4 D4 F0                   		cmp0	r8
 7531 04d6 61 F8                   		 sknz
 7532 04d8 EC E0 04 00             		 br	!!.L534
 7533                             	.L535:
2351:../DGC_A230_Functions/DGC_A230_Normal_Mode.c **** 		{
2352:../DGC_A230_Functions/DGC_A230_Normal_Mode.c **** 			Close_Command_Process();		// Close Command Procedure
 7534                             		.loc 1 2352 0 is_stmt 1
 7535 04dc FC 00 00 00             		call	!!%code(_Close_Command_Process)
 7536                             	.L534:
2353:../DGC_A230_Functions/DGC_A230_Normal_Mode.c **** 		}
2354:../DGC_A230_Functions/DGC_A230_Normal_Mode.c **** 
2355:../DGC_A230_Functions/DGC_A230_Normal_Mode.c **** 		if (((CH_IN)
 7537                             		.loc 1 2355 0
 7538 04e0 C9 F0 06 FF             		movw	r8, #-250
 7539 04e4 AD F0                   		movw	ax, r8
 7540 04e6 BD F2                   		movw	r10, ax
 7541 04e8 FA F2                   		movw	hl, r10
 7542 04ea 8B                      		mov	a, [hl]
 7543 04eb 9D F0                   		mov	r8, a
 7544 04ed 31 2A                   		shr	a, 2
 7545 04ef 9D F0                   		mov	r8, a
 7546 04f1 5A F0 01                		and	r8, #1
 7547 04f4 61 F8                   		sknz
 7548 04f6 EC 83 05 00             		 br	!!.L536
 7549                             		 # zero-comparison eliminated
2356:../DGC_A230_Functions/DGC_A230_Normal_Mode.c **** 			&& (Last_Close_Command_State == COMMAND_PRESSED_STATE)
 7550                             		.loc 1 2356 0
 7551 04fa 8F 00 00                		mov	a, !_Last_Close_Command_State
 7552 04fd 9D F0                   		mov	r8, a
 7553 04ff D4 F0                   		cmp0	r8
 7554 0501 61 E8                   		 skz
 7555 0503 EC 83 05 00             		 br	!!.L536
2357:../DGC_A230_Functions/DGC_A230_Normal_Mode.c **** 			&& (CFG_parameter.Manual_Function == 0x01))
 7556                             		.loc 1 2357 0
 7557 0507 8F 00 00                		mov	a, !_CFG_parameter+58
 7558 050a 9D F0                   		mov	r8, a
 7559 050c 4A F0 01                		cmp	r8, #1
 7560 050f 61 E8                   		 skz
 7561 0511 EC 83 05 00             		 br	!!.L536
2358:../DGC_A230_Functions/DGC_A230_Normal_Mode.c **** 			&& (!((!ORO_IN) && (CFG_parameter.Clock_Contact_Mode == 0x00))))
 7562                             		.loc 1 2358 0
 7563 0515 C9 F0 03 FF             		movw	r8, #-253
 7564 0519 AD F0                   		movw	ax, r8
 7565 051b BD F2                   		movw	r10, ax
 7566 051d FA F2                   		movw	hl, r10
 7567 051f 8B                      		mov	a, [hl]
 7568 0520 9D F0                   		mov	r8, a
 7569 0522 31 1A                   		shr	a, 1
 7570 0524 9D F0                   		mov	r8, a
 7571 0526 5A F0 01                		and	r8, #1
 7572 0529 61 E8                   		skz
 7573 052b EC 3C 05 00             		 br	!!.L537
 7574                             		 # zero-comparison eliminated
 7575                             		.loc 1 2358 0 is_stmt 0 discriminator 1
 7576 052f 8F 00 00                		mov	a, !_CFG_parameter+100
 7577 0532 9D F0                   		mov	r8, a
 7578 0534 D4 F0                   		cmp0	r8
 7579 0536 61 F8                   		 sknz
 7580 0538 EC 83 05 00             		 br	!!.L536
 7581                             	.L537:
2359:../DGC_A230_Functions/DGC_A230_Normal_Mode.c **** 		{
2360:../DGC_A230_Functions/DGC_A230_Normal_Mode.c **** 			if (Machine_State == MACHINE_STATE_NORMAL_CLOSING)
 7582                             		.loc 1 2360 0 is_stmt 1
 7583 053c 8F 00 00                		mov	a, !_Machine_State
 7584 053f 9D F0                   		mov	r8, a
 7585 0541 4A F0 02                		cmp	r8, #2
 7586 0544 61 E8                   		 skz
 7587 0546 EC 66 05 00             		 br	!!.L538
 7588                             	.LBB205:
2361:../DGC_A230_Functions/DGC_A230_Normal_Mode.c **** 			{
2362:../DGC_A230_Functions/DGC_A230_Normal_Mode.c **** 				Leaf_No1_State = GATE_STATE_CLOSING_PAUSE;
 7589                             		.loc 1 2362 0
 7590 054a 51 07                   		mov	a, #7
 7591 054c 9F 00 00                		mov	!_Leaf_No1_State, a
2363:../DGC_A230_Functions/DGC_A230_Normal_Mode.c **** 				Leaf_No2_State = GATE_STATE_CLOSING_PAUSE;
 7592                             		.loc 1 2363 0
 7593 054f 51 07                   		mov	a, #7
 7594 0551 9F 00 00                		mov	!_Leaf_No2_State, a
2364:../DGC_A230_Functions/DGC_A230_Normal_Mode.c **** 				__Do_Stop_Gate_Motor1(CLOSE_MOVING_DIRECTION);
 7595                             		.loc 1 2364 0
 7596 0554 E6                      		onew	ax
 7597 0555 B8 00                   		movw	[sp], ax
 7598 0557 FC 00 00 00             		call	!!%code(___Do_Stop_Gate_Motor1)
2365:../DGC_A230_Functions/DGC_A230_Normal_Mode.c **** 				__Do_Stop_Gate_Motor2(CLOSE_MOVING_DIRECTION);
 7599                             		.loc 1 2365 0
 7600 055b E6                      		onew	ax
 7601 055c B8 00                   		movw	[sp], ax
 7602 055e FC 00 00 00             		call	!!%code(___Do_Stop_Gate_Motor2)
 7603                             	.LBE205:
 7604 0562 EC 80 05 00             		br	!!.L539
 7605                             	.L538:
2366:../DGC_A230_Functions/DGC_A230_Normal_Mode.c **** 			}
2367:../DGC_A230_Functions/DGC_A230_Normal_Mode.c **** 			else if (Machine_State == MACHINE_STATE_PARTIAL_CLOSING)
 7606                             		.loc 1 2367 0
 7607 0566 8F 00 00                		mov	a, !_Machine_State
 7608 0569 9D F0                   		mov	r8, a
 7609 056b 4A F0 04                		cmp	r8, #4
 7610 056e 61 E8                   		 skz
 7611 0570 EC 80 05 00             		 br	!!.L539
 7612                             	.LBB206:
2368:../DGC_A230_Functions/DGC_A230_Normal_Mode.c **** 			{
2369:../DGC_A230_Functions/DGC_A230_Normal_Mode.c **** 				Leaf_No1_State = GATE_STATE_CLOSING_PAUSE;
 7613                             		.loc 1 2369 0
 7614 0574 51 07                   		mov	a, #7
 7615 0576 9F 00 00                		mov	!_Leaf_No1_State, a
2370:../DGC_A230_Functions/DGC_A230_Normal_Mode.c **** 				__Do_Partial_Stop_Gate(CLOSE_MOVING_DIRECTION);
 7616                             		.loc 1 2370 0
 7617 0579 E6                      		onew	ax
 7618 057a B8 00                   		movw	[sp], ax
 7619 057c FC 00 00 00             		call	!!%code(___Do_Partial_Stop_Gate)
 7620                             	.L539:
 7621                             	.LBE206:
2371:../DGC_A230_Functions/DGC_A230_Normal_Mode.c **** 			}
2372:../DGC_A230_Functions/DGC_A230_Normal_Mode.c **** 			Last_Close_Command_State = COMMAND_RELEASE_STATE;
 7622                             		.loc 1 2372 0
 7623 0580 E5 00 00                		oneb	!_Last_Close_Command_State
 7624                             	.L536:
2373:../DGC_A230_Functions/DGC_A230_Normal_Mode.c **** 		}
2374:../DGC_A230_Functions/DGC_A230_Normal_Mode.c **** 
2375:../DGC_A230_Functions/DGC_A230_Normal_Mode.c **** 		if 	((!AP_IN)
 7625                             		.loc 1 2375 0
 7626 0583 C9 F0 06 FF             		movw	r8, #-250
 7627 0587 AD F0                   		movw	ax, r8
 7628 0589 BD F2                   		movw	r10, ax
 7629 058b FA F2                   		movw	hl, r10
 7630 058d 8B                      		mov	a, [hl]
 7631 058e 9D F0                   		mov	r8, a
 7632 0590 31 3A                   		shr	a, 3
 7633 0592 9D F0                   		mov	r8, a
 7634 0594 5A F0 01                		and	r8, #1
 7635 0597 61 E8                   		skz
 7636 0599 EC C8 05 00             		 br	!!.L540
 7637                             		 # zero-comparison eliminated
2376:../DGC_A230_Functions/DGC_A230_Normal_Mode.c **** 			&& (!((!ORO_IN) && (CFG_parameter.Clock_Contact_Mode == 0x00))))
 7638                             		.loc 1 2376 0
 7639 059d C9 F0 03 FF             		movw	r8, #-253
 7640 05a1 AD F0                   		movw	ax, r8
 7641 05a3 BD F2                   		movw	r10, ax
 7642 05a5 FA F2                   		movw	hl, r10
 7643 05a7 8B                      		mov	a, [hl]
 7644 05a8 9D F0                   		mov	r8, a
 7645 05aa 31 1A                   		shr	a, 1
 7646 05ac 9D F0                   		mov	r8, a
 7647 05ae 5A F0 01                		and	r8, #1
 7648 05b1 61 E8                   		skz
 7649 05b3 EC C4 05 00             		 br	!!.L541
 7650                             		 # zero-comparison eliminated
 7651                             		.loc 1 2376 0 is_stmt 0 discriminator 1
 7652 05b7 8F 00 00                		mov	a, !_CFG_parameter+100
 7653 05ba 9D F0                   		mov	r8, a
 7654 05bc D4 F0                   		cmp0	r8
 7655 05be 61 F8                   		 sknz
 7656 05c0 EC C8 05 00             		 br	!!.L540
 7657                             	.L541:
2377:../DGC_A230_Functions/DGC_A230_Normal_Mode.c **** 		{
2378:../DGC_A230_Functions/DGC_A230_Normal_Mode.c **** 			Open_Command_Process();		// Open Command Procedure
 7658                             		.loc 1 2378 0 is_stmt 1
 7659 05c4 FC 00 00 00             		call	!!%code(_Open_Command_Process)
 7660                             	.L540:
2379:../DGC_A230_Functions/DGC_A230_Normal_Mode.c **** 		}
2380:../DGC_A230_Functions/DGC_A230_Normal_Mode.c **** 
2381:../DGC_A230_Functions/DGC_A230_Normal_Mode.c **** 		if (((AP_IN)
 7661                             		.loc 1 2381 0
 7662 05c8 C9 F0 06 FF             		movw	r8, #-250
 7663 05cc AD F0                   		movw	ax, r8
 7664 05ce BD F2                   		movw	r10, ax
 7665 05d0 FA F2                   		movw	hl, r10
 7666 05d2 8B                      		mov	a, [hl]
 7667 05d3 9D F0                   		mov	r8, a
 7668 05d5 31 3A                   		shr	a, 3
 7669 05d7 9D F0                   		mov	r8, a
 7670 05d9 5A F0 01                		and	r8, #1
 7671 05dc 61 F8                   		sknz
 7672 05de EC 4D 06 00             		 br	!!.L542
 7673                             		 # zero-comparison eliminated
2382:../DGC_A230_Functions/DGC_A230_Normal_Mode.c **** 			&& (Last_Open_Command_State == COMMAND_PRESSED_STATE)
 7674                             		.loc 1 2382 0
 7675 05e2 8F 00 00                		mov	a, !_Last_Open_Command_State
 7676 05e5 9D F0                   		mov	r8, a
 7677 05e7 D4 F0                   		cmp0	r8
 7678 05e9 61 E8                   		 skz
 7679 05eb EC 4D 06 00             		 br	!!.L542
2383:../DGC_A230_Functions/DGC_A230_Normal_Mode.c **** 			&& (CFG_parameter.Manual_Function == 0x01))
 7680                             		.loc 1 2383 0
 7681 05ef 8F 00 00                		mov	a, !_CFG_parameter+58
 7682 05f2 9D F0                   		mov	r8, a
 7683 05f4 4A F0 01                		cmp	r8, #1
 7684 05f7 61 E8                   		 skz
 7685 05f9 EC 4D 06 00             		 br	!!.L542
2384:../DGC_A230_Functions/DGC_A230_Normal_Mode.c **** 			&& (!((!ORO_IN) && (CFG_parameter.Clock_Contact_Mode == 0x00))))
 7686                             		.loc 1 2384 0
 7687 05fd C9 F0 03 FF             		movw	r8, #-253
 7688 0601 AD F0                   		movw	ax, r8
 7689 0603 BD F2                   		movw	r10, ax
 7690 0605 FA F2                   		movw	hl, r10
 7691 0607 8B                      		mov	a, [hl]
 7692 0608 9D F0                   		mov	r8, a
 7693 060a 31 1A                   		shr	a, 1
 7694 060c 9D F0                   		mov	r8, a
 7695 060e 5A F0 01                		and	r8, #1
 7696 0611 61 E8                   		skz
 7697 0613 EC 24 06 00             		 br	!!.L543
 7698                             		 # zero-comparison eliminated
 7699                             		.loc 1 2384 0 is_stmt 0 discriminator 1
 7700 0617 8F 00 00                		mov	a, !_CFG_parameter+100
 7701 061a 9D F0                   		mov	r8, a
 7702 061c D4 F0                   		cmp0	r8
 7703 061e 61 F8                   		 sknz
 7704 0620 EC 4D 06 00             		 br	!!.L542
 7705                             	.L543:
2385:../DGC_A230_Functions/DGC_A230_Normal_Mode.c **** 		{
2386:../DGC_A230_Functions/DGC_A230_Normal_Mode.c **** 			if (Machine_State == MACHINE_STATE_NORMAL_OPENING)
 7706                             		.loc 1 2386 0 is_stmt 1
 7707 0624 8F 00 00                		mov	a, !_Machine_State
 7708 0627 9D F0                   		mov	r8, a
 7709 0629 4A F0 01                		cmp	r8, #1
 7710 062c 61 E8                   		 skz
 7711 062e EC 4A 06 00             		 br	!!.L544
 7712                             	.LBB207:
2387:../DGC_A230_Functions/DGC_A230_Normal_Mode.c **** 				{
2388:../DGC_A230_Functions/DGC_A230_Normal_Mode.c **** 				Leaf_No1_State = GATE_STATE_OPENING_PAUSE;
 7713                             		.loc 1 2388 0
 7714 0632 51 06                   		mov	a, #6
 7715 0634 9F 00 00                		mov	!_Leaf_No1_State, a
2389:../DGC_A230_Functions/DGC_A230_Normal_Mode.c **** 				Leaf_No2_State = GATE_STATE_OPENING_PAUSE;
 7716                             		.loc 1 2389 0
 7717 0637 51 06                   		mov	a, #6
 7718 0639 9F 00 00                		mov	!_Leaf_No2_State, a
2390:../DGC_A230_Functions/DGC_A230_Normal_Mode.c **** 				__Do_Stop_Gate_Motor1(OPEN_MOVING_DIRECTION);
 7719                             		.loc 1 2390 0
 7720 063c F6                      		clrw	ax
 7721 063d B8 00                   		movw	[sp], ax
 7722 063f FC 00 00 00             		call	!!%code(___Do_Stop_Gate_Motor1)
2391:../DGC_A230_Functions/DGC_A230_Normal_Mode.c **** 				__Do_Stop_Gate_Motor2(OPEN_MOVING_DIRECTION);
 7723                             		.loc 1 2391 0
 7724 0643 F6                      		clrw	ax
 7725 0644 B8 00                   		movw	[sp], ax
 7726 0646 FC 00 00 00             		call	!!%code(___Do_Stop_Gate_Motor2)
 7727                             	.L544:
 7728                             	.LBE207:
2392:../DGC_A230_Functions/DGC_A230_Normal_Mode.c **** 				}
2393:../DGC_A230_Functions/DGC_A230_Normal_Mode.c **** 			Last_Open_Command_State = COMMAND_RELEASE_STATE;
 7729                             		.loc 1 2393 0
 7730 064a E5 00 00                		oneb	!_Last_Open_Command_State
 7731                             	.L542:
2394:../DGC_A230_Functions/DGC_A230_Normal_Mode.c **** 		}
2395:../DGC_A230_Functions/DGC_A230_Normal_Mode.c **** 
2396:../DGC_A230_Functions/DGC_A230_Normal_Mode.c **** 		if ((!ORO_IN)						// Clock function is activated
 7732                             		.loc 1 2396 0
 7733 064d C9 F0 03 FF             		movw	r8, #-253
 7734 0651 AD F0                   		movw	ax, r8
 7735 0653 BD F2                   		movw	r10, ax
 7736 0655 FA F2                   		movw	hl, r10
 7737 0657 8B                      		mov	a, [hl]
 7738 0658 9D F0                   		mov	r8, a
 7739 065a 31 1A                   		shr	a, 1
 7740 065c 9D F0                   		mov	r8, a
 7741 065e 5A F0 01                		and	r8, #1
 7742 0661 61 E8                   		skz
 7743 0663 EC 7C 06 00             		 br	!!.L545
 7744                             		 # zero-comparison eliminated
2397:../DGC_A230_Functions/DGC_A230_Normal_Mode.c **** 			&& (Last_Clock_Command_State == COMMAND_RELEASE_STATE))
 7745                             		.loc 1 2397 0
 7746 0667 8F 00 00                		mov	a, !_Last_Clock_Command_State
 7747 066a 9D F0                   		mov	r8, a
 7748 066c 4A F0 01                		cmp	r8, #1
 7749 066f 61 E8                   		 skz
 7750 0671 EC 7C 06 00             		 br	!!.L545
2398:../DGC_A230_Functions/DGC_A230_Normal_Mode.c **** 		{
2399:../DGC_A230_Functions/DGC_A230_Normal_Mode.c **** 			Last_Clock_Command_State = COMMAND_PRESSED_STATE;
 7751                             		.loc 1 2399 0
 7752 0675 F5 00 00                		clrb	!_Last_Clock_Command_State
2400:../DGC_A230_Functions/DGC_A230_Normal_Mode.c **** 			Ext_Clock_Open_Command_Process();	// External Clock Open Command Procedure
 7753                             		.loc 1 2400 0
 7754 0678 FC 00 00 00             		call	!!%code(_Ext_Clock_Open_Command_Process)
 7755                             	.L545:
2401:../DGC_A230_Functions/DGC_A230_Normal_Mode.c **** 		}
2402:../DGC_A230_Functions/DGC_A230_Normal_Mode.c **** 
2403:../DGC_A230_Functions/DGC_A230_Normal_Mode.c **** 		if ((ORO_IN)						// Clock function is activated
 7756                             		.loc 1 2403 0
 7757 067c C9 F0 03 FF             		movw	r8, #-253
 7758 0680 AD F0                   		movw	ax, r8
 7759 0682 BD F2                   		movw	r10, ax
 7760 0684 FA F2                   		movw	hl, r10
 7761 0686 8B                      		mov	a, [hl]
 7762 0687 9D F0                   		mov	r8, a
 7763 0689 31 1A                   		shr	a, 1
 7764 068b 9D F0                   		mov	r8, a
 7765 068d 5A F0 01                		and	r8, #1
 7766 0690 61 F8                   		sknz
 7767 0692 EC AA 06 00             		 br	!!.L546
 7768                             		 # zero-comparison eliminated
2404:../DGC_A230_Functions/DGC_A230_Normal_Mode.c **** 			&& (Last_Clock_Command_State == COMMAND_PRESSED_STATE))
 7769                             		.loc 1 2404 0
 7770 0696 8F 00 00                		mov	a, !_Last_Clock_Command_State
 7771 0699 9D F0                   		mov	r8, a
 7772 069b D4 F0                   		cmp0	r8
 7773 069d 61 E8                   		 skz
 7774 069f EC AA 06 00             		 br	!!.L546
2405:../DGC_A230_Functions/DGC_A230_Normal_Mode.c **** 		{
2406:../DGC_A230_Functions/DGC_A230_Normal_Mode.c **** 			Last_Clock_Command_State = COMMAND_RELEASE_STATE;
 7775                             		.loc 1 2406 0
 7776 06a3 E5 00 00                		oneb	!_Last_Clock_Command_State
2407:../DGC_A230_Functions/DGC_A230_Normal_Mode.c **** 			Ext_Clock_Close_Command_Process();	// External Clock Open Command Procedure
 7777                             		.loc 1 2407 0
 7778 06a6 FC 00 00 00             		call	!!%code(_Ext_Clock_Close_Command_Process)
 7779                             	.L546:
2408:../DGC_A230_Functions/DGC_A230_Normal_Mode.c **** 		}
2409:../DGC_A230_Functions/DGC_A230_Normal_Mode.c **** 
2410:../DGC_A230_Functions/DGC_A230_Normal_Mode.c **** 		if (!TEST_KEY)						// Test_Key is pressed
 7780                             		.loc 1 2410 0
 7781 06aa C9 F0 0E FF             		movw	r8, #-242
 7782 06ae AD F0                   		movw	ax, r8
 7783 06b0 BD F2                   		movw	r10, ax
 7784 06b2 FA F2                   		movw	hl, r10
 7785 06b4 8B                      		mov	a, [hl]
 7786 06b5 9D F0                   		mov	r8, a
 7787 06b7 31 7A                   		shr	a, 7
 7788 06b9 9D F0                   		mov	r8, a
 7789 06bb D4 F0                   		cmp0	r8
 7790 06bd 61 E8                   		 skz
 7791 06bf EC E1 06 00             		 br	!!.L547
2411:../DGC_A230_Functions/DGC_A230_Normal_Mode.c **** 		{
2412:../DGC_A230_Functions/DGC_A230_Normal_Mode.c **** 			TestPB_Pressed_Process();
 7792                             		.loc 1 2412 0
 7793 06c3 FC 00 00 00             		call	!!%code(_TestPB_Pressed_Process)
2413:../DGC_A230_Functions/DGC_A230_Normal_Mode.c **** 			while(!TEST_KEY);				// Do nothing while Test_Key is still pressed
 7794                             		.loc 1 2413 0
 7795 06c7 00                      		nop
 7796                             	.L548:
 7797                             		.loc 1 2413 0 is_stmt 0 discriminator 1
 7798 06c8 C9 F0 0E FF             		movw	r8, #-242
 7799 06cc AD F0                   		movw	ax, r8
 7800 06ce BD F2                   		movw	r10, ax
 7801 06d0 FA F2                   		movw	hl, r10
 7802 06d2 8B                      		mov	a, [hl]
 7803 06d3 9D F0                   		mov	r8, a
 7804 06d5 31 7A                   		shr	a, 7
 7805 06d7 9D F0                   		mov	r8, a
 7806 06d9 D4 F0                   		cmp0	r8
 7807 06db 61 F8                   		 sknz
 7808 06dd EC C8 06 00             		 br	!!.L548
 7809                             	.L547:
2414:../DGC_A230_Functions/DGC_A230_Normal_Mode.c **** 		}
2415:../DGC_A230_Functions/DGC_A230_Normal_Mode.c **** 
2416:../DGC_A230_Functions/DGC_A230_Normal_Mode.c **** 		if (!LEFT_KEY)						// Left_Key is pressed
 7810                             		.loc 1 2416 0 is_stmt 1
 7811 06e1 C9 F0 07 FF             		movw	r8, #-249
 7812 06e5 AD F0                   		movw	ax, r8
 7813 06e7 BD F2                   		movw	r10, ax
 7814 06e9 FA F2                   		movw	hl, r10
 7815 06eb 8B                      		mov	a, [hl]
 7816 06ec 9D F0                   		mov	r8, a
 7817 06ee 31 7A                   		shr	a, 7
 7818 06f0 9D F0                   		mov	r8, a
 7819 06f2 D4 F0                   		cmp0	r8
 7820 06f4 61 E8                   		 skz
 7821 06f6 EC 18 07 00             		 br	!!.L549
 7822                             	.LBB208:
2417:../DGC_A230_Functions/DGC_A230_Normal_Mode.c **** 		{
2418:../DGC_A230_Functions/DGC_A230_Normal_Mode.c **** 			Parameters_Edit_Process();		// Edit Parameters Procedure
 7823                             		.loc 1 2418 0
 7824 06fa FC 00 00 00             		call	!!%code(_Parameters_Edit_Process)
2419:../DGC_A230_Functions/DGC_A230_Normal_Mode.c **** 			while(!LEFT_KEY);				// Do nothing while Left_Key is still pressed
 7825                             		.loc 1 2419 0
 7826 06fe 00                      		nop
 7827                             	.L550:
 7828                             		.loc 1 2419 0 is_stmt 0 discriminator 1
 7829 06ff C9 F0 07 FF             		movw	r8, #-249
 7830 0703 AD F0                   		movw	ax, r8
 7831 0705 BD F2                   		movw	r10, ax
 7832 0707 FA F2                   		movw	hl, r10
 7833 0709 8B                      		mov	a, [hl]
 7834 070a 9D F0                   		mov	r8, a
 7835 070c 31 7A                   		shr	a, 7
 7836 070e 9D F0                   		mov	r8, a
 7837 0710 D4 F0                   		cmp0	r8
 7838 0712 61 F8                   		 sknz
 7839 0714 EC FF 06 00             		 br	!!.L550
 7840                             	.L549:
 7841                             	.LBE208:
2420:../DGC_A230_Functions/DGC_A230_Normal_Mode.c **** 		}
2421:../DGC_A230_Functions/DGC_A230_Normal_Mode.c **** 
2422:../DGC_A230_Functions/DGC_A230_Normal_Mode.c **** 		if (!RIGHT_KEY)						// Right_Key is pressed
 7842                             		.loc 1 2422 0 is_stmt 1
 7843 0718 C9 F0 07 FF             		movw	r8, #-249
 7844 071c AD F0                   		movw	ax, r8
 7845 071e BD F2                   		movw	r10, ax
 7846 0720 FA F2                   		movw	hl, r10
 7847 0722 8B                      		mov	a, [hl]
 7848 0723 9D F0                   		mov	r8, a
 7849 0725 31 5A                   		shr	a, 5
 7850 0727 9D F0                   		mov	r8, a
 7851 0729 5A F0 01                		and	r8, #1
 7852 072c 61 E8                   		skz
 7853 072e EC 51 07 00             		 br	!!.L551
 7854                             		 # zero-comparison eliminated
 7855                             	.LBB209:
2423:../DGC_A230_Functions/DGC_A230_Normal_Mode.c **** 		{
2424:../DGC_A230_Functions/DGC_A230_Normal_Mode.c **** 			Parameters_Edit_Process();		// Edit Parameters Procedure
 7856                             		.loc 1 2424 0
 7857 0732 FC 00 00 00             		call	!!%code(_Parameters_Edit_Process)
2425:../DGC_A230_Functions/DGC_A230_Normal_Mode.c **** 			while(!RIGHT_KEY);				// Do nothing while Right_Key is still pressed
 7858                             		.loc 1 2425 0
 7859 0736 00                      		nop
 7860                             	.L552:
 7861                             		.loc 1 2425 0 is_stmt 0 discriminator 1
 7862 0737 C9 F0 07 FF             		movw	r8, #-249
 7863 073b AD F0                   		movw	ax, r8
 7864 073d BD F2                   		movw	r10, ax
 7865 073f FA F2                   		movw	hl, r10
 7866 0741 8B                      		mov	a, [hl]
 7867 0742 9D F0                   		mov	r8, a
 7868 0744 31 5A                   		shr	a, 5
 7869 0746 9D F0                   		mov	r8, a
 7870 0748 5A F0 01                		and	r8, #1
 7871 074b 61 F8                   		sknz
 7872 074d EC 37 07 00             		 br	!!.L552
 7873                             		 # zero-comparison eliminated
 7874                             	.L551:
 7875                             	.LBE209:
2426:../DGC_A230_Functions/DGC_A230_Normal_Mode.c **** 		}
2427:../DGC_A230_Functions/DGC_A230_Normal_Mode.c **** 
2428:../DGC_A230_Functions/DGC_A230_Normal_Mode.c **** 		if ((!PROG_KEY) && (Machine_State == MACHINE_STATE_STOP))	// Prog_Key is pressed
 7876                             		.loc 1 2428 0 is_stmt 1
 7877 0751 C9 F0 01 FF             		movw	r8, #-255
 7878 0755 AD F0                   		movw	ax, r8
 7879 0757 BD F2                   		movw	r10, ax
 7880 0759 FA F2                   		movw	hl, r10
 7881 075b 8B                      		mov	a, [hl]
 7882 075c 9D F0                   		mov	r8, a
 7883 075e 31 6A                   		shr	a, 6
 7884 0760 9D F0                   		mov	r8, a
 7885 0762 5A F0 01                		and	r8, #1
 7886 0765 61 E8                   		skz
 7887 0767 EC B7 07 00             		 br	!!.L553
 7888                             		 # zero-comparison eliminated
 7889                             		.loc 1 2428 0 is_stmt 0 discriminator 1
 7890 076b 8F 00 00                		mov	a, !_Machine_State
 7891 076e 9D F0                   		mov	r8, a
 7892 0770 D4 F0                   		cmp0	r8
 7893 0772 61 E8                   		 skz
 7894 0774 EC B7 07 00             		 br	!!.L553
2429:../DGC_A230_Functions/DGC_A230_Normal_Mode.c **** 		{
2430:../DGC_A230_Functions/DGC_A230_Normal_Mode.c **** 			Key_Tick_Count = 0;										// Reset Tick count
 7895                             		.loc 1 2430 0 is_stmt 1
 7896 0778 F6                      		clrw	ax
 7897 0779 BF 00 00                		movw	!_Key_Tick_Count, ax
2431:../DGC_A230_Functions/DGC_A230_Normal_Mode.c **** //			R_TAU0_Channel1_Start();								// Start Timer channel 1
2432:../DGC_A230_Functions/DGC_A230_Normal_Mode.c **** 			while((!PROG_KEY) && (Key_Tick_Count < 400)); 			// Check time that Prog_Key pressed
 7898                             		.loc 1 2432 0
 7899 077c 00                      		nop
 7900                             	.L555:
 7901                             		.loc 1 2432 0 is_stmt 0 discriminator 2
 7902 077d C9 F0 01 FF             		movw	r8, #-255
 7903 0781 AD F0                   		movw	ax, r8
 7904 0783 BD F2                   		movw	r10, ax
 7905 0785 FA F2                   		movw	hl, r10
 7906 0787 8B                      		mov	a, [hl]
 7907 0788 9D F0                   		mov	r8, a
 7908 078a 31 6A                   		shr	a, 6
 7909 078c 9D F0                   		mov	r8, a
 7910 078e 5A F0 01                		and	r8, #1
 7911 0791 61 E8                   		skz
 7912 0793 EC A5 07 00             		 br	!!.L554
 7913                             		 # zero-comparison eliminated
 7914                             		.loc 1 2432 0 discriminator 1
 7915 0797 AF 00 00                		movw	ax, !_Key_Tick_Count
 7916 079a BD F0                   		movw	r8, ax
 7917 079c 44 8F 01                		cmpw	ax, #399
 7918 079f 61 E3                   		 skh
 7919 07a1 EC 7D 07 00             		 br	!!.L555
 7920                             	.L554:
2433:../DGC_A230_Functions/DGC_A230_Normal_Mode.c **** //			R_TAU0_Channel1_Stop();									// Stop Timer channel 1
2434:../DGC_A230_Functions/DGC_A230_Normal_Mode.c **** 
2435:../DGC_A230_Functions/DGC_A230_Normal_Mode.c **** 			if(Key_Tick_Count >= 400)
 7921                             		.loc 1 2435 0 is_stmt 1
 7922 07a5 AF 00 00                		movw	ax, !_Key_Tick_Count
 7923 07a8 BD F0                   		movw	r8, ax
 7924 07aa 44 8F 01                		cmpw	ax, #399
 7925 07ad 61 E3                   		 skh
 7926 07af EC B7 07 00             		 br	!!.L553
 7927                             	.LBB210:
2436:../DGC_A230_Functions/DGC_A230_Normal_Mode.c **** 			{
2437:../DGC_A230_Functions/DGC_A230_Normal_Mode.c **** 				Program_Command_Process();							// Travel Acquisition Procedure
 7928                             		.loc 1 2437 0
 7929 07b3 FC 00 00 00             		call	!!%code(_Program_Command_Process)
 7930                             	.L553:
 7931                             	.LBE210:
2438:../DGC_A230_Functions/DGC_A230_Normal_Mode.c **** 			}
2439:../DGC_A230_Functions/DGC_A230_Normal_Mode.c **** 		}
2440:../DGC_A230_Functions/DGC_A230_Normal_Mode.c **** 	}
 7932                             		.loc 1 2440 0
 7933 07b7 EC 02 00 00             		br	!!.L556
 7934                             	.LFE26:
 8258                             	.Letext0:
 8259                             		.file 2 "E:/AIoT/Code/Rogger/Test_new/DGC_A230_6_Rev_1_0_Software/generate/iodefine.h"
 8260                             		.file 3 "E:\\AIoT\\Code\\Rogger\\Test_new\\DGC_A230_6_Rev_1_0_Software\\src/r_cg_macrodriver.h"
 8261                             		.file 4 "E:\\AIoT\\Code\\Rogger\\Test_new\\DGC_A230_6_Rev_1_0_Software\\DGC_A230_Functions/DGC_A23
